(dp1
S'edges'
p2
ccollections
defaultdict
p3
(c__builtin__
list
p4
tRp5
I0
(lp6
I6
aI15
aI20
aI63
aI90
aI105
aI140
aI180
aI182
aI189
aI204
aI223
aI254
aI258
aI260
aI301
aI309
aI346
aI349
aI368
aI412
aI415
aI423
aI429
aI443
aI445
aI455
aI464
aI487
aI493
aI535
aI587
aI629
aI663
aI689
aI692
aI703
aI704
aI706
aI718
aI748
aI757
aI768
aI791
aI804
aI812
aI820
aI822
aI840
aI857
aI870
aI914
aI928
aI930
aI937
aI943
aI945
aI974
aI975
aI993
asI1
(lp7
I6
aI35
aI62
aI64
aI77
aI91
aI99
aI131
aI143
aI151
aI152
aI166
aI168
aI182
aI218
aI223
aI272
aI337
aI346
aI363
aI371
aI413
aI415
aI422
aI443
aI447
aI449
aI452
aI456
aI488
aI492
aI508
aI513
aI544
aI550
aI557
aI587
aI592
aI609
aI614
aI628
aI634
aI650
aI665
aI673
aI687
aI692
aI704
aI706
aI718
aI731
aI732
aI761
aI770
aI771
aI786
aI791
aI794
aI797
aI804
aI840
aI847
aI854
aI855
aI859
aI860
aI870
aI871
aI884
aI891
aI901
aI914
aI923
aI930
aI937
aI938
aI943
aI944
aI946
aI981
aI997
asI2
(lp8
I20
aI22
aI38
aI67
aI73
aI97
aI117
aI120
aI127
aI134
aI138
aI190
aI214
aI268
aI295
aI327
aI329
aI378
aI428
aI437
aI450
aI455
aI464
aI487
aI493
aI532
aI535
aI539
aI578
aI632
aI644
aI689
aI699
aI701
aI720
aI726
aI746
aI750
aI752
aI765
aI785
aI789
aI812
aI818
aI821
aI838
aI842
aI868
aI898
aI910
aI913
aI919
aI936
aI945
aI947
aI951
aI968
asI3
(lp9
I30
aI41
aI42
aI47
aI51
aI76
aI84
aI102
aI115
aI122
aI124
aI141
aI144
aI147
aI155
aI158
aI176
aI185
aI229
aI252
aI262
aI274
aI277
aI287
aI292
aI307
aI316
aI364
aI424
aI425
aI430
aI439
aI444
aI457
aI460
aI469
aI472
aI476
aI489
aI522
aI533
aI534
aI538
aI545
aI546
aI561
aI566
aI569
aI577
aI580
aI590
aI612
aI618
aI647
aI648
aI654
aI671
aI691
aI709
aI715
aI727
aI737
aI740
aI751
aI764
aI779
aI788
aI808
aI850
aI863
aI874
aI906
aI912
aI916
aI918
aI927
aI934
aI940
aI948
aI952
aI955
aI958
aI965
aI978
aI982
aI983
aI994
asI4
(lp10
I28
aI32
aI68
aI98
aI101
aI104
aI109
aI125
aI131
aI137
aI151
aI216
aI222
aI243
aI251
aI259
aI280
aI298
aI341
aI351
aI366
aI422
aI453
aI488
aI508
aI513
aI529
aI550
aI554
aI592
aI606
aI607
aI609
aI650
aI665
aI731
aI732
aI734
aI753
aI786
aI794
aI797
aI811
aI852
aI855
aI873
aI901
aI908
aI909
aI923
aI938
aI944
aI953
asI5
(lp11
I18
aI24
aI50
aI72
aI76
aI119
aI133
aI165
aI183
aI267
aI312
aI335
aI354
aI356
aI358
aI362
aI366
aI409
aI461
aI466
aI469
aI518
aI549
aI561
aI585
aI596
aI647
aI667
aI672
aI700
aI747
aI798
aI825
aI836
aI839
aI874
aI876
aI885
aI917
aI948
aI955
aI973
aI988
aI989
aI991
asI6
(lp12
I0
aI1
aI35
aI62
aI63
aI77
aI82
aI90
aI91
aI99
aI105
aI140
aI143
aI180
aI182
aI189
aI204
aI223
aI254
aI258
aI260
aI301
aI309
aI336
aI337
aI346
aI349
aI363
aI368
aI412
aI413
aI415
aI423
aI429
aI443
aI445
aI449
aI452
aI492
aI544
aI587
aI614
aI629
aI663
aI680
aI687
aI692
aI703
aI704
aI706
aI718
aI729
aI748
aI757
aI761
aI770
aI771
aI791
aI804
aI820
aI822
aI840
aI854
aI857
aI860
aI870
aI884
aI891
aI914
aI928
aI930
aI937
aI943
aI946
aI974
aI975
aI981
aI993
aI997
asI7
(lp13
I9
aI21
aI31
aI39
aI40
aI43
aI45
aI46
aI49
aI52
aI92
aI121
aI139
aI148
aI156
aI160
aI161
aI175
aI188
aI212
aI231
aI245
aI271
aI284
aI289
aI291
aI293
aI299
aI302
aI321
aI324
aI326
aI342
aI352
aI353
aI357
aI367
aI372
aI376
aI386
aI395
aI397
aI398
aI404
aI406
aI411
aI432
aI433
aI446
aI454
aI481
aI499
aI500
aI521
aI523
aI536
aI537
aI542
aI559
aI570
aI571
aI573
aI575
aI579
aI584
aI599
aI621
aI633
aI661
aI668
aI669
aI682
aI683
aI693
aI696
aI721
aI756
aI767
aI775
aI780
aI796
aI801
aI803
aI810
aI826
aI828
aI830
aI831
aI832
aI851
aI853
aI861
aI867
aI888
aI893
aI894
aI925
aI950
aI956
aI963
aI979
aI980
aI992
asI8
(lp14
I54
aI56
aI73
aI85
aI95
aI96
aI110
aI118
aI129
aI167
aI169
aI171
aI173
aI203
aI207
aI217
aI221
aI230
aI235
aI322
aI333
aI334
aI344
aI360
aI365
aI370
aI384
aI396
aI401
aI403
aI420
aI426
aI427
aI431
aI471
aI482
aI485
aI501
aI505
aI514
aI520
aI525
aI526
aI540
aI558
aI565
aI567
aI574
aI576
aI613
aI615
aI616
aI622
aI626
aI627
aI636
aI638
aI641
aI657
aI660
aI662
aI664
aI684
aI697
aI738
aI739
aI760
aI772
aI776
aI777
aI783
aI784
aI793
aI827
aI862
aI886
aI896
aI932
aI960
aI995
aI996
aI999
asI9
(lp15
I7
aI31
aI40
aI45
aI49
aI92
aI121
aI135
aI136
aI142
aI156
aI160
aI161
aI170
aI175
aI193
aI205
aI224
aI245
aI250
aI263
aI291
aI293
aI299
aI314
aI320
aI324
aI326
aI350
aI359
aI367
aI372
aI377
aI397
aI406
aI408
aI411
aI421
aI433
aI481
aI496
aI498
aI500
aI521
aI523
aI536
aI537
aI551
aI559
aI571
aI575
aI579
aI584
aI599
aI621
aI633
aI668
aI676
aI682
aI693
aI717
aI756
aI763
aI775
aI780
aI803
aI813
aI826
aI828
aI830
aI831
aI832
aI853
aI867
aI893
aI902
aI925
aI954
aI961
aI963
aI971
aI980
asI10
(lp16
I12
aI23
aI60
aI74
aI75
aI80
aI94
aI181
aI192
aI195
aI196
aI199
aI201
aI202
aI227
aI228
aI242
aI257
aI273
aI279
aI283
aI305
aI315
aI317
aI319
aI321
aI331
aI347
aI355
aI379
aI382
aI389
aI391
aI393
aI417
aI418
aI454
aI465
aI468
aI502
aI504
aI527
aI588
aI597
aI611
aI619
aI631
aI643
aI646
aI669
aI674
aI685
aI714
aI716
aI722
aI743
aI749
aI762
aI767
aI773
aI800
aI806
aI807
aI814
aI848
aI856
aI864
aI866
aI889
aI894
aI935
aI950
aI957
aI964
aI967
aI984
aI985
asI11
(lp17
I13
aI47
aI51
aI71
aI111
aI112
aI115
aI144
aI150
aI157
aI185
aI191
aI229
aI262
aI277
aI307
aI316
aI380
aI387
aI390
aI460
aI463
aI475
aI476
aI494
aI522
aI533
aI534
aI566
aI568
aI569
aI580
aI649
aI671
aI691
aI715
aI719
aI737
aI740
aI764
aI779
aI787
aI788
aI792
aI816
aI829
aI841
aI863
aI875
aI892
aI921
aI927
aI939
aI940
aI994
asI12
(lp18
I10
aI19
aI23
aI60
aI69
aI75
aI153
aI181
aI192
aI195
aI198
aI199
aI201
aI208
aI227
aI228
aI237
aI242
aI269
aI273
aI283
aI286
aI288
aI305
aI315
aI319
aI325
aI330
aI331
aI347
aI389
aI391
aI393
aI402
aI418
aI419
aI459
aI465
aI468
aI474
aI495
aI502
aI504
aI527
aI563
aI588
aI600
aI603
aI611
aI619
aI631
aI643
aI646
aI658
aI674
aI675
aI716
aI722
aI724
aI735
aI743
aI745
aI755
aI762
aI773
aI806
aI814
aI849
aI856
aI895
aI957
aI964
aI984
asI13
(lp19
I11
aI47
aI51
aI71
aI111
aI112
aI115
aI141
aI144
aI150
aI157
aI185
aI191
aI229
aI262
aI277
aI307
aI316
aI380
aI387
aI390
aI424
aI430
aI460
aI463
aI475
aI476
aI494
aI522
aI533
aI534
aI538
aI566
aI568
aI569
aI580
aI649
aI671
aI691
aI715
aI719
aI737
aI740
aI764
aI779
aI787
aI788
aI792
aI816
aI829
aI841
aI863
aI875
aI892
aI921
aI927
aI939
aI940
aI986
aI994
asI14
(lp20
I27
aI37
aI59
aI79
aI86
aI88
aI113
aI146
aI162
aI178
aI186
aI238
aI248
aI264
aI266
aI281
aI296
aI339
aI383
aI407
aI438
aI491
aI512
aI524
aI531
aI543
aI560
aI572
aI589
aI594
aI595
aI601
aI602
aI617
aI624
aI625
aI642
aI666
aI679
aI688
aI713
aI769
aI778
aI817
aI844
aI887
aI903
aI904
aI907
aI915
aI931
aI959
aI966
aI970
aI987
aI990
asI15
(lp21
I0
aI20
aI22
aI38
aI63
aI90
aI97
aI105
aI117
aI134
aI140
aI189
aI204
aI254
aI258
aI260
aI301
aI309
aI327
aI349
aI412
aI415
aI423
aI445
aI450
aI455
aI464
aI487
aI493
aI535
aI629
aI663
aI689
aI703
aI726
aI746
aI748
aI752
aI757
aI768
aI785
aI812
aI820
aI822
aI928
aI936
aI945
aI968
aI974
aI975
aI993
asI16
(lp22
I48
aI58
aI64
aI89
aI98
aI101
aI104
aI107
aI114
aI133
aI151
aI174
aI197
aI211
aI216
aI218
aI246
aI272
aI285
aI304
aI306
aI335
aI436
aI448
aI453
aI456
aI509
aI510
aI550
aI554
aI556
aI557
aI591
aI628
aI634
aI650
aI665
aI672
aI708
aI711
aI730
aI732
aI754
aI758
aI759
aI782
aI790
aI797
aI802
aI811
aI815
aI836
aI855
aI871
aI900
aI922
aI929
aI938
aI969
aI976
aI991
asI17
(lp23
I26
aI33
aI67
aI80
aI120
aI126
aI127
aI130
aI190
aI196
aI202
aI214
aI226
aI241
aI257
aI268
aI275
aI329
aI338
aI343
aI355
aI374
aI379
aI381
aI382
aI388
aI394
aI417
aI428
aI437
aI528
aI532
aI555
aI578
aI632
aI643
aI644
aI685
aI701
aI702
aI720
aI733
aI749
aI750
aI765
aI781
aI789
aI818
aI864
aI868
aI877
aI889
aI898
aI910
aI913
aI919
aI935
aI985
asI18
(lp24
I5
aI24
aI28
aI32
aI50
aI98
aI101
aI119
aI133
aI165
aI183
aI216
aI243
aI251
aI280
aI335
aI354
aI358
aI366
aI409
aI453
aI461
aI466
aI509
aI518
aI529
aI549
aI554
aI585
aI672
aI747
aI753
aI825
aI836
aI885
aI908
aI991
asI19
(lp25
I12
aI60
aI69
aI75
aI153
aI192
aI195
aI198
aI199
aI201
aI208
aI227
aI228
aI237
aI269
aI273
aI283
aI288
aI315
aI319
aI325
aI330
aI331
aI389
aI391
aI393
aI402
aI418
aI419
aI459
aI465
aI467
aI468
aI474
aI495
aI504
aI588
aI600
aI603
aI611
aI619
aI646
aI658
aI675
aI716
aI722
aI724
aI743
aI745
aI755
aI773
aI806
aI849
aI856
aI895
aI899
aI957
aI964
aI984
asI20
(lp26
I0
aI2
aI15
aI22
aI38
aI63
aI73
aI82
aI90
aI97
aI105
aI117
aI134
aI138
aI140
aI189
aI204
aI254
aI258
aI260
aI301
aI327
aI349
aI412
aI423
aI429
aI450
aI455
aI464
aI487
aI493
aI535
aI539
aI629
aI663
aI689
aI699
aI703
aI726
aI742
aI746
aI748
aI752
aI757
aI768
aI785
aI812
aI819
aI820
aI821
aI822
aI838
aI842
aI928
aI936
aI945
aI947
aI968
aI974
aI975
aI993
asI21
(lp27
I7
aI29
aI36
aI39
aI43
aI52
aI61
aI139
aI145
aI148
aI159
aI163
aI164
aI177
aI188
aI212
aI213
aI231
aI284
aI289
aI297
aI300
aI308
aI323
aI340
aI352
aI353
aI357
aI369
aI386
aI395
aI398
aI404
aI410
aI432
aI435
aI446
aI499
aI517
aI523
aI542
aI570
aI573
aI661
aI683
aI686
aI695
aI696
aI721
aI728
aI736
aI796
aI805
aI810
aI833
aI851
aI858
aI861
aI881
aI882
aI888
aI941
aI956
aI972
aI979
aI992
asI22
(lp28
I2
aI15
aI20
aI38
aI73
aI90
aI97
aI117
aI120
aI127
aI134
aI138
aI171
aI189
aI190
aI214
aI258
aI268
aI295
aI327
aI378
aI428
aI450
aI455
aI464
aI487
aI493
aI535
aI539
aI578
aI632
aI644
aI689
aI699
aI720
aI726
aI746
aI752
aI765
aI768
aI785
aI789
aI812
aI819
aI821
aI838
aI842
aI898
aI910
aI919
aI932
aI936
aI945
aI947
aI951
aI968
asI23
(lp29
I10
aI12
aI26
aI60
aI66
aI75
aI80
aI94
aI153
aI181
aI192
aI196
aI199
aI201
aI202
aI226
aI227
aI228
aI244
aI257
aI261
aI273
aI283
aI305
aI315
aI330
aI331
aI347
aI355
aI379
aI389
aI391
aI393
aI418
aI459
aI465
aI468
aI502
aI504
aI527
aI563
aI567
aI588
aI600
aI619
aI631
aI643
aI646
aI674
aI685
aI702
aI714
aI716
aI722
aI733
aI749
aI762
aI773
aI806
aI848
aI849
aI856
aI864
aI866
aI889
aI895
aI935
aI957
aI964
aI984
aI985
aI998
asI24
(lp30
I5
aI18
aI50
aI72
aI98
aI119
aI133
aI165
aI183
aI251
aI267
aI335
aI354
aI358
aI366
aI409
aI461
aI466
aI509
aI518
aI529
aI549
aI585
aI672
aI747
aI825
aI836
aI839
aI876
aI885
aI908
aI988
aI989
aI991
asI25
(lp31
I44
aI53
aI57
aI70
aI108
aI116
aI154
aI225
aI234
aI236
aI247
aI249
aI256
aI270
aI310
aI328
aI332
aI348
aI361
aI392
aI400
aI414
aI441
aI442
aI451
aI458
aI462
aI470
aI478
aI480
aI484
aI490
aI497
aI511
aI530
aI541
aI547
aI548
aI552
aI581
aI583
aI586
aI593
aI604
aI620
aI623
aI630
aI639
aI640
aI651
aI652
aI659
aI677
aI694
aI725
aI741
aI744
aI766
aI823
aI834
aI835
aI845
aI878
aI879
aI883
aI904
aI911
aI920
aI933
aI949
aI962
aI977
asI26
(lp32
I17
aI23
aI33
aI56
aI60
aI66
aI67
aI69
aI95
aI129
aI130
aI153
aI181
aI199
aI201
aI202
aI203
aI207
aI226
aI230
aI244
aI257
aI261
aI268
aI273
aI283
aI315
aI329
aI330
aI343
aI344
aI347
aI355
aI378
aI389
aI391
aI401
aI459
aI468
aI485
aI502
aI504
aI505
aI514
aI515
aI527
aI532
aI540
aI555
aI563
aI567
aI574
aI588
aI600
aI616
aI619
aI627
aI631
aI632
aI636
aI643
aI644
aI685
aI702
aI722
aI733
aI739
aI745
aI755
aI760
aI765
aI772
aI789
aI806
aI849
aI868
aI877
aI889
aI896
aI913
aI919
aI932
aI935
aI951
aI964
aI984
aI985
aI998
asI27
(lp33
I14
aI34
aI37
aI59
aI62
aI86
aI88
aI100
aI113
aI123
aI146
aI152
aI162
aI168
aI180
aI186
aI238
aI248
aI264
aI266
aI281
aI296
aI318
aI339
aI368
aI407
aI438
aI447
aI491
aI512
aI524
aI531
aI543
aI560
aI572
aI589
aI594
aI595
aI601
aI602
aI617
aI624
aI625
aI642
aI666
aI680
aI688
aI690
aI706
aI713
aI769
aI778
aI804
aI817
aI844
aI859
aI880
aI884
aI887
aI903
aI915
aI930
aI931
aI942
aI959
aI966
aI970
aI987
aI990
asI28
(lp34
I4
aI18
aI32
aI68
aI98
aI101
aI104
aI109
aI125
aI151
aI216
aI222
aI243
aI251
aI259
aI280
aI298
aI335
aI341
aI351
aI366
aI453
aI466
aI529
aI550
aI554
aI592
aI606
aI607
aI650
aI672
aI734
aI753
aI811
aI836
aI852
aI855
aI873
aI901
aI908
aI909
asI29
(lp35
I21
aI36
aI39
aI43
aI46
aI52
aI61
aI139
aI145
aI148
aI159
aI163
aI164
aI177
aI188
aI194
aI212
aI231
aI276
aI278
aI284
aI289
aI300
aI323
aI352
aI353
aI369
aI386
aI395
aI398
aI432
aI435
aI446
aI499
aI519
aI542
aI570
aI573
aI661
aI683
aI695
aI696
aI721
aI796
aI805
aI810
aI833
aI851
aI858
aI861
aI881
aI882
aI888
aI956
aI972
aI979
aI992
asI30
(lp36
I3
aI41
aI42
aI72
aI76
aI84
aI106
aI122
aI124
aI132
aI141
aI147
aI155
aI158
aI176
aI179
aI187
aI215
aI252
aI255
aI274
aI287
aI292
aI312
aI313
aI356
aI362
aI364
aI425
aI430
aI444
aI457
aI469
aI473
aI483
aI489
aI538
aI545
aI546
aI553
aI561
aI582
aI590
aI596
aI608
aI612
aI618
aI647
aI648
aI653
aI654
aI655
aI667
aI698
aI700
aI705
aI712
aI727
aI751
aI798
aI799
aI808
aI839
aI850
aI869
aI874
aI876
aI890
aI906
aI912
aI916
aI917
aI918
aI924
aI948
aI952
aI955
aI958
aI965
aI973
aI978
aI982
aI983
asI31
(lp37
I7
aI9
aI39
aI40
aI43
aI45
aI46
aI49
aI52
aI121
aI139
aI148
aI156
aI160
aI161
aI175
aI188
aI212
aI231
aI245
aI271
aI284
aI291
aI293
aI299
aI302
aI314
aI320
aI321
aI324
aI326
aI342
aI352
aI353
aI367
aI372
aI376
aI386
aI395
aI397
aI398
aI406
aI411
aI433
aI446
aI454
aI481
aI496
aI499
aI500
aI521
aI523
aI536
aI537
aI559
aI570
aI571
aI573
aI575
aI579
aI584
aI599
aI633
aI668
aI669
aI682
aI683
aI693
aI696
aI717
aI721
aI756
aI767
aI775
aI780
aI796
aI801
aI803
aI810
aI826
aI828
aI830
aI831
aI832
aI851
aI853
aI861
aI867
aI888
aI893
aI894
aI925
aI950
aI961
aI963
aI967
aI979
aI980
aI992
asI32
(lp38
I4
aI18
aI28
aI68
aI98
aI101
aI104
aI109
aI125
aI151
aI216
aI222
aI243
aI251
aI259
aI280
aI298
aI335
aI341
aI351
aI366
aI453
aI466
aI518
aI529
aI554
aI606
aI607
aI734
aI753
aI852
aI873
aI901
aI908
aI909
asI33
(lp39
I17
aI26
aI56
aI66
aI67
aI73
aI95
aI120
aI127
aI129
aI130
aI171
aI202
aI203
aI207
aI214
aI226
aI230
aI244
aI261
aI268
aI295
aI329
aI343
aI344
aI365
aI378
aI401
aI428
aI459
aI485
aI505
aI514
aI515
aI527
aI532
aI539
aI540
aI555
aI563
aI567
aI574
aI578
aI616
aI627
aI631
aI632
aI636
aI643
aI644
aI685
aI702
aI720
aI733
aI739
aI765
aI772
aI789
aI821
aI842
aI849
aI868
aI877
aI889
aI896
aI913
aI919
aI932
aI935
aI947
aI951
aI998
aI999
asI34
(lp40
I27
aI37
aI88
aI100
aI146
aI180
aI209
aI220
aI236
aI238
aI249
aI253
aI270
aI290
aI318
aI332
aI339
aI361
aI368
aI407
aI434
aI480
aI541
aI548
aI560
aI572
aI589
aI595
aI617
aI624
aI642
aI652
aI688
aI690
aI713
aI774
aI817
aI824
aI843
aI879
aI880
aI903
aI904
aI931
aI942
aI966
aI987
aI990
asI35
(lp41
I1
aI6
aI54
aI64
aI77
aI82
aI87
aI89
aI91
aI96
aI99
aI140
aI143
aI166
aI182
aI204
aI218
aI223
aI254
aI260
aI272
aI336
aI337
aI346
aI349
aI363
aI370
aI396
aI412
aI415
aI423
aI429
aI443
aI449
aI452
aI456
aI471
aI488
aI492
aI520
aI544
aI558
aI565
aI576
aI587
aI614
aI622
aI626
aI628
aI634
aI662
aI663
aI673
aI684
aI687
aI692
aI704
aI718
aI729
aI742
aI748
aI761
aI770
aI771
aI777
aI784
aI791
aI793
aI794
aI819
aI820
aI822
aI840
aI847
aI854
aI857
aI860
aI870
aI871
aI886
aI891
aI914
aI937
aI943
aI946
aI974
aI981
aI993
aI995
asI36
(lp42
I21
aI29
aI39
aI52
aI139
aI148
aI159
aI163
aI164
aI177
aI188
aI194
aI212
aI231
aI276
aI278
aI284
aI289
aI300
aI323
aI352
aI369
aI375
aI395
aI398
aI432
aI435
aI446
aI519
aI542
aI573
aI683
aI696
aI721
aI805
aI833
aI851
aI858
aI861
aI881
aI888
aI956
aI972
aI979
aI992
asI37
(lp43
I14
aI27
aI34
aI59
aI86
aI88
aI100
aI108
aI146
aI162
aI178
aI186
aI220
aI238
aI248
aI253
aI266
aI270
aI296
aI318
aI339
aI383
aI407
aI438
aI451
aI484
aI491
aI507
aI512
aI524
aI552
aI560
aI572
aI589
aI594
aI595
aI601
aI602
aI617
aI624
aI642
aI652
aI679
aI688
aI690
aI713
aI769
aI774
aI778
aI817
aI843
aI844
aI879
aI880
aI903
aI904
aI907
aI915
aI931
aI942
aI959
aI966
aI970
aI987
aI990
asI38
(lp44
I2
aI15
aI20
aI22
aI73
aI90
aI97
aI117
aI120
aI134
aI138
aI140
aI189
aI190
aI258
aI260
aI295
aI301
aI327
aI412
aI423
aI450
aI455
aI464
aI487
aI493
aI535
aI539
aI578
aI629
aI663
aI689
aI699
aI703
aI726
aI742
aI746
aI752
aI768
aI785
aI812
aI819
aI821
aI822
aI838
aI842
aI898
aI928
aI936
aI945
aI947
aI951
aI968
asI39
(lp45
I7
aI21
aI29
aI31
aI36
aI43
aI61
aI92
aI139
aI145
aI148
aI160
aI161
aI163
aI164
aI175
aI177
aI188
aI212
aI213
aI282
aI284
aI289
aI293
aI297
aI300
aI311
aI323
aI324
aI326
aI352
aI353
aI357
aI367
aI369
aI386
aI395
aI398
aI399
aI404
aI410
aI432
aI440
aI446
aI499
aI500
aI503
aI517
aI523
aI536
aI542
aI562
aI570
aI573
aI621
aI656
aI661
aI682
aI683
aI686
aI695
aI696
aI710
aI721
aI736
aI795
aI796
aI810
aI837
aI851
aI867
aI881
aI882
aI888
aI941
aI956
aI963
aI972
aI979
aI992
asI40
(lp46
I7
aI9
aI31
aI45
aI49
aI121
aI135
aI136
aI142
aI156
aI160
aI161
aI175
aI193
aI205
aI210
aI224
aI245
aI271
aI291
aI293
aI299
aI302
aI314
aI320
aI324
aI326
aI342
aI367
aI372
aI376
aI377
aI397
aI405
aI406
aI408
aI411
aI433
aI481
aI496
aI498
aI500
aI506
aI516
aI521
aI523
aI536
aI537
aI551
aI559
aI571
aI575
aI579
aI584
aI599
aI633
aI668
aI676
aI681
aI682
aI693
aI717
aI756
aI763
aI775
aI780
aI801
aI803
aI826
aI828
aI830
aI831
aI832
aI853
aI893
aI902
aI925
aI926
aI954
aI961
aI963
aI967
aI971
aI980
asI41
(lp47
I3
aI30
aI42
aI72
aI84
aI106
aI122
aI124
aI132
aI141
aI158
aI176
aI179
aI187
aI215
aI252
aI255
aI274
aI287
aI292
aI312
aI313
aI316
aI364
aI425
aI430
aI444
aI457
aI460
aI469
aI473
aI476
aI483
aI489
aI533
aI538
aI545
aI546
aI553
aI582
aI596
aI608
aI612
aI618
aI647
aI648
aI653
aI654
aI655
aI698
aI700
aI705
aI727
aI751
aI779
aI798
aI799
aI808
aI850
aI869
aI874
aI890
aI906
aI912
aI916
aI918
aI924
aI948
aI952
aI955
aI958
aI965
aI973
aI978
aI983
asI42
(lp48
I3
aI30
aI41
aI72
aI84
aI106
aI122
aI124
aI132
aI158
aI176
aI179
aI187
aI215
aI252
aI255
aI274
aI287
aI292
aI312
aI313
aI356
aI362
aI364
aI425
aI444
aI457
aI469
aI473
aI476
aI483
aI489
aI538
aI545
aI546
aI553
aI582
aI596
aI608
aI612
aI618
aI647
aI648
aI653
aI654
aI655
aI667
aI698
aI700
aI705
aI712
aI727
aI751
aI798
aI799
aI808
aI850
aI869
aI874
aI890
aI906
aI912
aI916
aI918
aI924
aI948
aI952
aI955
aI958
aI965
aI973
aI978
aI983
asI43
(lp49
I7
aI21
aI29
aI31
aI39
aI61
aI92
aI145
aI160
aI161
aI163
aI164
aI175
aI213
aI282
aI289
aI293
aI297
aI300
aI311
aI323
aI324
aI326
aI353
aI357
aI367
aI386
aI399
aI404
aI410
aI432
aI440
aI499
aI500
aI503
aI517
aI536
aI542
aI562
aI570
aI621
aI656
aI661
aI686
aI695
aI710
aI736
aI795
aI796
aI810
aI837
aI867
aI881
aI882
aI941
aI956
aI963
aI972
asI44
(lp50
I25
aI53
aI57
aI70
aI108
aI116
aI154
aI220
aI225
aI234
aI236
aI247
aI249
aI256
aI270
aI310
aI328
aI332
aI348
aI361
aI392
aI400
aI414
aI441
aI442
aI451
aI458
aI462
aI470
aI478
aI480
aI484
aI490
aI497
aI507
aI511
aI530
aI541
aI547
aI548
aI552
aI581
aI583
aI586
aI593
aI604
aI620
aI623
aI630
aI639
aI640
aI652
aI659
aI677
aI679
aI690
aI694
aI725
aI741
aI744
aI766
aI774
aI823
aI834
aI835
aI845
aI878
aI879
aI883
aI904
aI911
aI920
aI933
aI949
aI962
aI977
asI45
(lp51
I7
aI9
aI31
aI40
aI46
aI49
aI74
aI94
aI135
aI136
aI142
aI156
aI193
aI219
aI231
aI245
aI271
aI279
aI291
aI299
aI302
aI314
aI320
aI321
aI342
aI372
aI376
aI377
aI382
aI397
aI405
aI406
aI411
aI433
aI454
aI496
aI506
aI521
aI537
aI559
aI571
aI575
aI579
aI597
aI599
aI633
aI668
aI669
aI681
aI682
aI693
aI714
aI717
aI767
aI775
aI780
aI800
aI801
aI807
aI814
aI826
aI828
aI830
aI831
aI832
aI848
aI861
aI864
aI866
aI893
aI894
aI897
aI925
aI926
aI950
aI961
aI967
aI971
aI980
asI46
(lp52
I7
aI29
aI31
aI45
aI52
aI156
aI164
aI194
aI200
aI228
aI239
aI242
aI245
aI271
aI278
aI279
aI299
aI302
aI317
aI321
aI342
aI375
aI376
aI406
aI411
aI433
aI454
aI519
aI559
aI575
aI597
aI668
aI669
aI674
aI714
aI762
aI767
aI775
aI780
aI801
aI805
aI807
aI814
aI826
aI832
aI858
aI893
aI894
aI950
aI967
aI980
asI47
(lp53
I3
aI11
aI13
aI51
aI102
aI111
aI115
aI122
aI124
aI141
aI144
aI147
aI150
aI157
aI176
aI185
aI229
aI252
aI262
aI274
aI277
aI307
aI316
aI364
aI380
aI387
aI424
aI425
aI430
aI439
aI444
aI457
aI460
aI463
aI472
aI475
aI476
aI489
aI494
aI522
aI533
aI534
aI538
aI545
aI566
aI569
aI577
aI580
aI612
aI618
aI654
aI671
aI691
aI709
aI715
aI719
aI727
aI737
aI740
aI751
aI764
aI779
aI787
aI788
aI792
aI808
aI829
aI841
aI850
aI863
aI875
aI912
aI918
aI927
aI934
aI940
aI952
aI958
aI965
aI978
aI983
aI994
asI48
(lp54
I16
aI101
aI104
aI107
aI114
aI133
aI151
aI174
aI183
aI197
aI211
aI216
aI218
aI222
aI246
aI272
aI285
aI304
aI306
aI436
aI448
aI453
aI456
aI466
aI509
aI510
aI529
aI549
aI550
aI554
aI556
aI557
aI591
aI628
aI650
aI665
aI672
aI708
aI711
aI730
aI732
aI754
aI759
aI782
aI790
aI797
aI802
aI811
aI815
aI836
aI855
aI871
aI901
aI908
aI909
aI929
aI938
aI969
aI976
aI991
asI49
(lp55
I7
aI9
aI31
aI40
aI45
aI74
aI121
aI135
aI136
aI142
aI193
aI205
aI224
aI271
aI291
aI302
aI314
aI320
aI321
aI342
aI372
aI376
aI377
aI397
aI405
aI454
aI481
aI496
aI498
aI506
aI521
aI537
aI551
aI571
aI579
aI584
aI599
aI633
aI681
aI693
aI717
aI756
aI763
aI767
aI801
aI803
aI828
aI830
aI831
aI853
aI902
aI925
aI926
aI950
aI954
aI961
aI967
aI971
asI50
(lp56
I5
aI18
aI24
aI72
aI119
aI133
aI165
aI174
aI183
aI197
aI233
aI267
aI312
aI354
aI356
aI358
aI362
aI409
aI448
aI461
aI473
aI509
aI518
aI549
aI556
aI582
aI585
aI596
aI667
aI700
aI712
aI747
aI790
aI798
aI825
aI839
aI869
aI876
aI885
aI929
aI973
aI988
aI989
aI991
asI51
(lp57
I3
aI11
aI13
aI47
aI71
aI102
aI111
aI112
aI115
aI124
aI141
aI144
aI150
aI157
aI185
aI191
aI229
aI262
aI274
aI277
aI307
aI316
aI380
aI387
aI390
aI424
aI430
aI439
aI460
aI463
aI472
aI475
aI489
aI494
aI522
aI533
aI534
aI545
aI566
aI568
aI569
aI577
aI580
aI649
aI671
aI691
aI709
aI715
aI719
aI737
aI740
aI764
aI779
aI787
aI788
aI792
aI816
aI829
aI841
aI863
aI875
aI892
aI921
aI927
aI934
aI939
aI940
aI952
aI983
aI986
aI994
asI52
(lp58
I7
aI21
aI29
aI31
aI36
aI46
aI163
aI194
aI200
aI239
aI242
aI276
aI278
aI279
aI286
aI300
aI317
aI323
aI325
aI375
aI435
aI519
aI669
aI735
aI805
aI814
aI858
aI881
aI894
aI972
asI53
(lp59
I25
aI44
aI57
aI70
aI116
aI154
aI225
aI234
aI247
aI256
aI310
aI328
aI348
aI392
aI400
aI414
aI441
aI442
aI458
aI462
aI470
aI478
aI490
aI497
aI511
aI530
aI547
aI552
aI581
aI583
aI586
aI593
aI604
aI620
aI623
aI630
aI639
aI640
aI651
aI659
aI725
aI741
aI744
aI766
aI823
aI834
aI835
aI845
aI878
aI911
aI920
aI933
aI949
aI962
aI977
asI54
(lp60
I8
aI35
aI56
aI64
aI82
aI87
aI89
aI91
aI96
aI97
aI99
aI110
aI117
aI166
aI167
aI171
aI173
aI184
aI204
aI217
aI221
aI230
aI235
aI322
aI333
aI336
aI349
aI363
aI365
aI370
aI384
aI396
aI403
aI420
aI429
aI443
aI450
aI471
aI482
aI492
aI505
aI520
aI539
aI558
aI565
aI576
aI615
aI622
aI626
aI634
aI638
aI641
aI657
aI662
aI664
aI673
aI684
aI687
aI718
aI729
aI742
aI748
aI758
aI761
aI772
aI777
aI783
aI784
aI791
aI793
aI819
aI827
aI840
aI847
aI857
aI886
aI891
aI946
aI960
aI974
aI981
aI995
asI55
(lp61
I58
aI65
aI85
aI87
aI89
aI93
aI107
aI110
aI114
aI118
aI169
aI173
aI184
aI211
aI217
aI235
aI240
aI272
aI285
aI304
aI306
aI322
aI373
aI426
aI431
aI436
aI456
aI471
aI479
aI525
aI558
aI591
aI613
aI622
aI628
aI634
aI638
aI657
aI660
aI673
aI708
aI754
aI758
aI777
aI782
aI783
aI802
aI815
aI871
aI900
aI905
aI922
aI969
aI976
aI995
aI996
asI56
(lp62
I8
aI26
aI33
aI54
aI66
aI69
aI95
aI96
aI110
aI129
aI167
aI169
aI171
aI203
aI207
aI221
aI230
aI244
aI261
aI333
aI343
aI344
aI360
aI365
aI378
aI384
aI396
aI401
aI403
aI420
aI427
aI459
aI482
aI485
aI501
aI505
aI514
aI515
aI525
aI526
aI540
aI563
aI565
aI567
aI574
aI615
aI616
aI627
aI632
aI636
aI641
aI644
aI662
aI664
aI697
aI739
aI745
aI760
aI772
aI784
aI793
aI819
aI821
aI827
aI849
aI862
aI886
aI896
aI919
aI932
aI960
aI998
aI999
asI57
(lp63
I25
aI44
aI53
aI70
aI116
aI225
aI234
aI247
aI256
aI310
aI328
aI348
aI392
aI400
aI414
aI441
aI442
aI458
aI462
aI470
aI477
aI478
aI490
aI497
aI511
aI530
aI547
aI581
aI583
aI586
aI593
aI604
aI620
aI623
aI630
aI639
aI640
aI651
aI659
aI677
aI694
aI725
aI741
aI744
aI766
aI823
aI834
aI835
aI845
aI878
aI911
aI920
aI933
aI949
aI962
aI977
asI58
(lp64
I16
aI55
aI64
aI65
aI85
aI87
aI89
aI91
aI93
aI99
aI107
aI110
aI114
aI118
aI166
aI169
aI173
aI174
aI184
aI211
aI217
aI218
aI235
aI240
aI246
aI272
aI285
aI304
aI306
aI322
aI370
aI373
aI396
aI426
aI431
aI436
aI448
aI456
aI471
aI479
aI510
aI520
aI525
aI557
aI558
aI576
aI591
aI613
aI622
aI626
aI628
aI634
aI638
aI657
aI660
aI664
aI665
aI673
aI684
aI708
aI711
aI754
aI758
aI759
aI777
aI782
aI783
aI802
aI815
aI847
aI871
aI891
aI900
aI905
aI922
aI969
aI976
aI981
aI995
aI996
asI59
(lp65
I14
aI27
aI37
aI86
aI88
aI108
aI116
aI146
aI154
aI162
aI178
aI186
aI220
aI248
aI266
aI270
aI296
aI339
aI383
aI400
aI407
aI438
aI451
aI484
aI491
aI507
aI512
aI524
aI552
aI560
aI572
aI594
aI595
aI602
aI617
aI624
aI642
aI652
aI679
aI688
aI690
aI713
aI769
aI778
aI817
aI879
aI903
aI904
aI907
aI915
aI931
aI942
aI959
aI966
aI970
aI987
aI990
asI60
(lp66
I10
aI12
aI19
aI23
aI26
aI66
aI75
aI94
aI153
aI181
aI192
aI195
aI198
aI199
aI201
aI202
aI208
aI227
aI228
aI237
aI242
aI244
aI257
aI269
aI273
aI283
aI288
aI305
aI315
aI319
aI325
aI330
aI331
aI347
aI379
aI389
aI391
aI393
aI418
aI465
aI468
aI474
aI495
aI502
aI504
aI527
aI563
aI588
aI597
aI600
aI603
aI611
aI619
aI631
aI646
aI658
aI674
aI714
aI716
aI722
aI743
aI745
aI755
aI762
aI773
aI806
aI814
aI848
aI856
aI895
aI935
aI957
aI964
aI984
asI61
(lp67
I21
aI29
aI39
aI43
aI83
aI145
aI159
aI177
aI213
aI282
aI297
aI308
aI311
aI340
aI357
aI369
aI399
aI404
aI410
aI440
aI503
aI517
aI562
aI656
aI661
aI686
aI695
aI710
aI728
aI736
aI795
aI833
aI837
aI846
aI867
aI882
aI941
asI62
(lp68
I1
aI6
aI27
aI77
aI100
aI113
aI123
aI131
aI137
aI143
aI152
aI168
aI180
aI182
aI223
aI238
aI248
aI264
aI281
aI309
aI337
aI346
aI368
aI371
aI407
aI413
aI415
aI422
aI447
aI449
aI452
aI488
aI508
aI513
aI543
aI544
aI587
aI589
aI592
aI594
aI601
aI609
aI614
aI625
aI680
aI692
aI704
aI706
aI713
aI731
aI732
aI770
aI771
aI786
aI794
aI797
aI804
aI809
aI817
aI844
aI852
aI854
aI859
aI860
aI870
aI884
aI887
aI914
aI923
aI930
aI937
aI943
aI944
aI946
aI953
aI959
aI990
aI997
asI63
(lp69
I0
aI6
aI15
aI20
aI105
aI180
aI182
aI223
aI254
aI301
aI309
aI346
aI368
aI429
aI443
aI445
aI587
aI629
aI692
aI703
aI704
aI706
aI757
aI768
aI791
aI820
aI840
aI870
aI914
aI928
aI930
aI937
aI943
aI975
aI993
asI64
(lp70
I1
aI16
aI35
aI54
aI58
aI77
aI87
aI89
aI91
aI99
aI107
aI114
aI143
aI166
aI184
aI211
aI217
aI218
aI240
aI246
aI285
aI304
aI306
aI363
aI370
aI422
aI436
aI449
aI452
aI471
aI488
aI492
aI513
aI520
aI544
aI550
aI557
aI558
aI576
aI591
aI614
aI622
aI626
aI650
aI660
aI665
aI673
aI684
aI687
aI708
aI718
aI729
aI732
aI754
aI758
aI759
aI761
aI770
aI771
aI777
aI782
aI783
aI786
aI794
aI797
aI802
aI811
aI847
aI854
aI855
aI857
aI860
aI891
aI900
aI905
aI922
aI923
aI938
aI944
aI946
aI969
aI976
aI981
aI995
asI65
(lp71
I55
aI58
aI85
aI87
aI93
aI107
aI110
aI114
aI118
aI167
aI169
aI173
aI184
aI217
aI235
aI240
aI285
aI304
aI306
aI322
aI373
aI396
aI426
aI427
aI431
aI436
aI479
aI501
aI525
aI526
aI591
aI613
aI615
aI638
aI657
aI660
aI664
aI708
aI758
aI783
aI802
aI815
aI900
aI905
aI922
aI969
aI976
aI996
asI66
(lp72
I23
aI26
aI33
aI56
aI60
aI67
aI69
aI95
aI129
aI130
aI153
aI181
aI203
aI207
aI226
aI227
aI230
aI237
aI244
aI257
aI261
aI288
aI305
aI330
aI343
aI344
aI347
aI360
aI378
aI401
aI418
aI485
aI502
aI514
aI515
aI540
aI567
aI574
aI600
aI616
aI627
aI636
aI675
aI685
aI702
aI733
aI739
aI745
aI755
aI760
aI765
aI772
aI889
aI895
aI896
aI899
aI913
aI932
aI998
aI999
asI67
(lp73
I2
aI17
aI26
aI33
aI66
aI120
aI126
aI127
aI129
aI130
aI138
aI190
aI207
aI214
aI226
aI261
aI268
aI295
aI329
aI343
aI355
aI388
aI394
aI428
aI437
aI485
aI515
aI528
aI532
aI540
aI555
aI578
aI636
aI699
aI701
aI702
aI720
aI733
aI750
aI781
aI789
aI818
aI842
aI868
aI877
aI896
aI898
aI910
aI913
aI947
aI951
aI985
aI998
asI68
(lp74
I4
aI28
aI32
aI79
aI104
aI109
aI113
aI125
aI131
aI137
aI152
aI222
aI243
aI259
aI264
aI280
aI281
aI298
aI303
aI341
aI351
aI371
aI422
aI447
aI508
aI513
aI531
aI543
aI592
aI606
aI607
aI609
aI614
aI625
aI645
aI666
aI731
aI734
aI753
aI786
aI809
aI852
aI859
aI873
aI887
aI901
aI909
aI923
aI938
aI944
aI953
aI997
asI69
(lp75
I12
aI19
aI26
aI56
aI66
aI95
aI192
aI203
aI237
aI288
aI334
aI360
aI393
aI403
aI427
aI467
aI474
aI482
aI486
aI514
aI526
aI574
aI616
aI627
aI658
aI675
aI697
aI738
aI739
aI755
aI760
aI776
aI862
aI895
aI899
aI999
asI70
(lp76
I25
aI44
aI53
aI57
aI116
aI154
aI225
aI234
aI247
aI249
aI256
aI310
aI328
aI348
aI392
aI400
aI414
aI441
aI442
aI451
aI458
aI462
aI470
aI478
aI484
aI490
aI497
aI511
aI530
aI547
aI548
aI552
aI581
aI583
aI586
aI593
aI604
aI620
aI623
aI630
aI639
aI640
aI651
aI659
aI677
aI694
aI725
aI741
aI744
aI766
aI823
aI834
aI835
aI845
aI878
aI911
aI920
aI933
aI949
aI962
aI977
asI71
(lp77
I11
aI13
aI51
aI111
aI112
aI115
aI144
aI150
aI157
aI185
aI191
aI229
aI262
aI277
aI307
aI380
aI387
aI390
aI463
aI475
aI494
aI534
aI568
aI569
aI580
aI649
aI671
aI691
aI715
aI719
aI737
aI740
aI764
aI787
aI788
aI792
aI816
aI829
aI841
aI863
aI875
aI892
aI921
aI927
aI939
aI940
aI994
asI72
(lp78
I5
aI24
aI30
aI41
aI42
aI50
aI76
aI106
aI119
aI155
aI165
aI183
aI187
aI215
aI233
aI255
aI267
aI287
aI292
aI312
aI313
aI354
aI356
aI358
aI362
aI409
aI461
aI469
aI473
aI483
aI509
aI518
aI549
aI561
aI582
aI585
aI590
aI596
aI608
aI618
aI647
aI648
aI653
aI655
aI667
aI698
aI700
aI705
aI712
aI747
aI798
aI799
aI825
aI839
aI869
aI874
aI876
aI885
aI890
aI906
aI912
aI916
aI917
aI924
aI929
aI948
aI955
aI958
aI973
aI982
aI988
aI989
asI73
(lp79
I2
aI8
aI20
aI22
aI33
aI38
aI82
aI96
aI130
aI167
aI171
aI221
aI295
aI327
aI333
aI336
aI344
aI365
aI384
aI401
aI420
aI482
aI505
aI515
aI565
aI576
aI615
aI626
aI641
aI662
aI664
aI726
aI729
aI742
aI746
aI752
aI784
aI785
aI793
aI827
aI857
aI886
aI960
aI968
aI999
asI74
(lp80
I10
aI45
aI49
aI80
aI94
aI103
aI135
aI136
aI142
aI149
aI193
aI196
aI219
aI275
aI279
aI314
aI320
aI338
aI345
aI355
aI374
aI377
aI379
aI382
aI394
aI405
aI417
aI496
aI506
aI516
aI597
aI598
aI676
aI681
aI714
aI749
aI762
aI781
aI800
aI807
aI848
aI864
aI866
aI897
aI926
aI961
aI971
aI985
asI75
(lp81
I10
aI12
aI19
aI23
aI60
aI195
aI198
aI200
aI208
aI237
aI239
aI242
aI269
aI286
aI288
aI305
aI317
aI319
aI325
aI331
aI375
aI402
aI419
aI465
aI474
aI495
aI603
aI611
aI646
aI658
aI674
aI716
aI724
aI735
aI743
aI773
aI848
aI856
aI957
asI76
(lp82
I3
aI5
aI30
aI72
aI102
aI119
aI147
aI155
aI267
aI287
aI292
aI356
aI358
aI362
aI409
aI439
aI444
aI457
aI461
aI561
aI590
aI648
aI655
aI709
aI727
aI751
aI839
aI850
aI876
aI885
aI916
aI917
aI918
aI982
aI988
aI989
asI77
(lp83
I1
aI6
aI35
aI62
aI64
aI131
aI143
aI166
aI246
aI337
aI363
aI371
aI413
aI422
aI449
aI452
aI488
aI492
aI513
aI544
aI557
aI609
aI684
aI687
aI729
aI754
aI761
aI770
aI771
aI782
aI786
aI794
aI847
aI854
aI860
aI923
aI944
aI997
asI78
(lp84
I80
aI103
aI135
aI136
aI142
aI149
aI193
aI210
aI219
aI241
aI275
aI338
aI345
aI374
aI381
aI382
aI388
aI394
aI405
aI417
aI506
aI516
aI528
aI598
aI676
aI681
aI763
aI781
aI800
aI897
aI926
aI971
asI79
(lp85
I14
aI68
aI109
aI113
aI123
aI137
aI152
aI162
aI168
aI248
aI264
aI266
aI281
aI296
aI298
aI303
aI341
aI351
aI371
aI438
aI447
aI491
aI508
aI524
aI531
aI543
aI592
aI594
aI601
aI602
aI625
aI645
aI666
aI731
aI734
aI809
aI844
aI852
aI859
aI887
aI953
aI959
aI970
asI80
(lp86
I10
aI17
aI23
aI74
aI78
aI94
aI103
aI126
aI149
aI196
aI219
aI241
aI275
aI338
aI345
aI374
aI379
aI381
aI382
aI388
aI394
aI405
aI417
aI506
aI516
aI555
aI597
aI598
aI681
aI749
aI781
aI800
aI807
aI864
aI866
aI877
aI897
aI926
asI81
(lp87
I92
aI121
aI128
aI170
aI172
aI206
aI232
aI250
aI263
aI265
aI294
aI350
aI357
aI359
aI385
aI408
aI416
aI421
aI481
aI498
aI564
aI584
aI605
aI610
aI621
aI635
aI637
aI670
aI678
aI707
aI710
aI717
aI723
aI756
aI795
aI803
aI813
aI846
aI853
aI865
aI872
aI954
asI82
(lp88
I6
aI20
aI35
aI54
aI73
aI96
aI167
aI221
aI333
aI336
aI365
aI370
aI384
aI420
aI520
aI565
aI615
aI641
aI662
aI742
aI784
aI793
aI827
aI886
aI960
asI83
(lp89
I61
aI145
aI159
aI177
aI213
aI297
aI308
aI311
aI340
aI369
aI399
aI410
aI440
aI503
aI517
aI656
aI686
aI695
aI728
aI736
aI833
aI837
aI882
aI941
asI84
(lp90
I3
aI30
aI41
aI42
aI106
aI122
aI132
aI158
aI176
aI179
aI187
aI215
aI252
aI255
aI313
aI364
aI425
aI473
aI483
aI546
aI553
aI608
aI612
aI653
aI654
aI655
aI698
aI705
aI799
aI808
aI869
aI890
aI906
aI924
aI965
aI978
asI85
(lp91
I8
aI55
aI58
aI65
aI93
aI118
aI169
aI173
aI184
aI235
aI240
aI322
aI373
aI403
aI420
aI426
aI427
aI431
aI479
aI482
aI501
aI525
aI526
aI613
aI638
aI657
aI660
aI697
aI815
aI900
aI905
aI922
aI960
aI996
asI86
(lp92
I14
aI27
aI37
aI59
aI88
aI108
aI146
aI162
aI178
aI186
aI220
aI238
aI266
aI296
aI339
aI383
aI438
aI451
aI484
aI491
aI507
aI512
aI524
aI560
aI572
aI589
aI595
aI601
aI602
aI617
aI624
aI642
aI652
aI679
aI688
aI690
aI769
aI778
aI844
aI879
aI903
aI907
aI915
aI931
aI942
aI966
aI970
aI987
asI87
(lp93
I35
aI54
aI55
aI58
aI64
aI65
aI93
aI118
aI240
aI333
aI336
aI373
aI384
aI613
aI641
aI827
aI905
asI88
(lp94
I14
aI27
aI34
aI37
aI59
aI86
aI108
aI154
aI178
aI186
aI209
aI220
aI236
aI249
aI253
aI270
aI290
aI318
aI332
aI348
aI361
aI383
aI434
aI458
aI478
aI480
aI497
aI507
aI512
aI541
aI547
aI548
aI679
aI725
aI769
aI774
aI778
aI824
aI835
aI843
aI880
aI907
aI915
aI920
aI942
aI977
asI89
(lp95
I16
aI35
aI54
aI55
aI58
aI64
aI93
aI211
aI246
aI373
aI479
aI996
asI90
(lp96
I0
aI6
aI15
aI20
aI22
aI38
aI105
aI309
aI445
aI757
aI936
aI975
asI91
(lp97
I1
aI6
aI35
aI54
aI58
aI64
aI221
asI92
(lp98
I7
aI9
aI39
aI43
aI81
aI128
aI170
aI172
aI206
aI213
aI232
aI250
aI263
aI282
aI294
aI311
aI350
aI359
aI385
aI404
aI408
aI416
aI421
aI562
aI564
aI605
aI610
aI621
aI635
aI637
aI678
aI707
aI710
aI795
aI813
aI846
aI865
aI872
asI93
(lp99
I55
aI58
aI65
aI85
aI87
aI89
aI426
aI431
aI479
aI501
asI94
(lp100
I10
aI23
aI45
aI60
aI74
aI80
aI196
aI219
aI275
aI279
aI317
aI338
aI345
aI374
aI417
aI749
aI781
aI800
aI807
aI866
aI897
asI95
(lp101
I8
aI26
aI33
aI56
aI66
aI69
aI334
aI360
aI403
aI427
aI467
aI474
aI486
aI501
aI526
aI658
aI675
aI697
aI738
aI760
aI776
aI862
aI899
asI96
(lp102
I8
aI35
aI54
aI56
aI73
aI82
asI97
(lp103
I2
aI15
aI20
aI22
aI38
aI54
asI98
(lp104
I4
aI16
aI18
aI24
aI28
aI32
aI109
aI125
aI222
aI243
aI251
aI259
aI280
aI351
aI354
aI510
aI556
aI606
aI607
aI711
aI730
aI734
aI747
aI753
aI759
aI790
aI811
aI825
aI873
aI909
asI99
(lp105
I1
aI6
aI35
aI54
aI58
aI64
asI100
(lp106
I27
aI34
aI37
aI62
aI123
aI152
aI168
aI318
aI413
aI445
aI447
aI680
aI804
aI824
aI859
aI880
aI884
aI887
asI101
(lp107
I4
aI16
aI18
aI28
aI32
aI48
aI125
aI174
aI197
aI259
aI448
aI510
aI556
aI606
aI607
aI711
aI730
aI759
aI790
aI873
aI929
asI102
(lp108
I3
aI47
aI51
aI76
aI147
aI155
aI424
aI439
aI472
aI522
aI561
aI566
aI577
aI590
aI709
aI917
aI934
aI982
asI103
(lp109
I74
aI78
aI80
aI126
aI149
aI210
aI219
aI241
aI275
aI338
aI345
aI374
aI381
aI388
aI394
aI516
aI528
aI598
aI676
aI763
aI897
asI104
(lp110
I4
aI16
aI28
aI32
aI48
aI68
aI131
aI341
aI510
aI556
aI609
aI711
aI730
asI105
(lp111
I0
aI6
aI15
aI20
aI63
aI90
asI106
(lp112
I30
aI41
aI42
aI72
aI84
aI132
aI158
aI179
aI187
aI215
aI233
aI255
aI313
aI483
aI546
aI553
aI582
aI608
aI653
aI667
aI698
aI705
aI712
aI799
aI890
aI924
asI107
(lp113
I16
aI48
aI55
aI58
aI64
aI65
aI197
aI730
aI790
asI108
(lp114
I25
aI37
aI44
aI59
aI86
aI88
aI178
aI256
aI383
aI414
aI442
aI507
aI530
aI744
aI834
aI907
aI911
aI949
aI962
asI109
(lp115
I4
aI28
aI32
aI68
aI79
aI98
aI137
aI281
aI298
aI303
aI508
aI645
aI731
aI809
aI953
asI110
(lp116
I8
aI54
aI55
aI56
aI58
aI65
aI334
aI360
aI697
aI738
aI776
aI862
asI111
(lp117
I11
aI13
aI47
aI51
aI71
aI112
aI150
aI157
aI191
aI380
aI387
aI390
aI463
aI475
aI494
aI568
aI649
aI719
aI787
aI792
aI816
aI829
aI841
aI875
aI892
aI921
aI939
asI112
(lp118
I11
aI13
aI51
aI71
aI111
aI390
aI568
aI649
aI816
aI892
aI921
aI939
asI113
(lp119
I14
aI27
aI62
aI68
aI79
aI123
aI137
aI168
aI264
aI303
aI371
aI531
aI543
aI625
aI645
aI666
aI809
aI884
aI953
asI114
(lp120
I16
aI48
aI55
aI58
aI64
aI65
aI197
asI115
(lp121
I3
aI11
aI13
aI47
aI51
aI71
aI424
aI439
aI472
aI577
aI709
aI934
asI116
(lp122
I25
aI44
aI53
aI57
aI59
aI70
aI225
aI234
aI236
aI249
aI328
aI332
aI361
aI480
aI490
aI548
aI583
aI604
aI623
aI639
aI741
aI774
asI117
(lp123
I2
aI15
aI20
aI22
aI38
aI54
aI134
aI138
aI699
aI838
aI898
asI118
(lp124
I8
aI55
aI58
aI65
aI85
aI87
aI334
aI738
aI862
asI119
(lp125
I5
aI18
aI24
aI50
aI72
aI76
aI155
aI165
aI267
aI585
aI590
aI917
aI982
aI988
aI989
asI120
(lp126
I2
aI17
aI22
aI33
aI38
aI67
aI127
aI190
aI214
aI329
aI428
aI437
aI532
aI555
aI701
aI720
aI750
aI818
aI838
aI868
aI877
aI910
asI121
(lp127
I7
aI9
aI31
aI40
aI49
aI81
aI170
aI205
aI224
aI250
aI263
aI350
aI359
aI377
aI385
aI408
aI416
aI421
aI498
aI551
aI564
aI605
aI610
aI707
aI763
aI813
aI902
aI954
asI122
(lp128
I3
aI30
aI41
aI42
aI47
aI84
aI132
aI179
aI553
asI123
(lp129
I27
aI62
aI79
aI100
aI113
aI318
aI337
aI413
aI531
aI645
aI666
aI680
aI809
aI880
aI997
asI124
(lp130
I3
aI30
aI41
aI42
aI47
aI51
aI147
aI472
aI577
aI934
asI125
(lp131
I4
aI28
aI32
aI68
aI98
aI101
aI303
aI645
asI126
(lp132
I17
aI67
aI80
aI103
aI241
aI381
aI388
aI437
aI528
aI701
aI750
aI818
aI910
asI127
(lp133
I2
aI17
aI22
aI33
aI67
aI120
aI437
aI528
aI701
aI750
aI818
asI128
(lp134
I81
aI92
aI170
aI172
aI206
aI232
aI250
aI263
aI265
aI294
aI350
aI359
aI385
aI408
aI416
aI421
aI564
aI605
aI610
aI635
aI637
aI670
aI678
aI707
aI723
aI813
aI865
aI954
asI129
(lp135
I8
aI26
aI33
aI56
aI66
aI67
asI130
(lp136
I17
aI26
aI33
aI66
aI67
aI73
asI131
(lp137
I1
aI4
aI62
aI68
aI77
aI104
aI303
aI680
asI132
(lp138
I30
aI41
aI42
aI84
aI106
aI122
asI133
(lp139
I5
aI16
aI18
aI24
aI48
aI50
aI233
aI712
aI929
asI134
(lp140
I2
aI15
aI20
aI22
aI38
aI117
asI135
(lp141
I9
aI40
aI45
aI49
aI74
aI78
aI149
aI210
aI224
aI345
aI516
aI551
aI598
aI676
asI136
(lp142
I9
aI40
aI45
aI49
aI74
aI78
aI149
aI210
aI224
aI551
aI598
aI902
asI137
(lp143
I4
aI62
aI68
aI79
aI109
aI113
asI138
(lp144
I2
aI20
aI22
aI38
aI67
aI117
asI139
(lp145
I7
aI21
aI29
aI31
aI36
aI39
aI194
aI317
aI435
aI519
aI805
aI858
asI140
(lp146
I0
aI6
aI15
aI20
aI35
aI38
asI141
(lp147
I3
aI13
aI30
aI41
aI47
aI51
asI142
(lp148
I9
aI40
aI45
aI49
aI74
aI78
aI205
aI210
aI498
aI902
asI143
(lp149
I1
aI6
aI35
aI62
aI64
aI77
asI144
(lp150
I3
aI11
aI13
aI47
aI51
aI71
aI191
aI986
asI145
(lp151
I21
aI29
aI39
aI43
aI61
aI83
aI159
aI282
aI297
aI308
aI311
aI340
aI399
aI410
aI440
aI503
aI517
aI562
aI656
aI686
aI728
aI736
aI833
aI837
aI941
asI146
(lp152
I14
aI27
aI34
aI37
aI59
aI86
aI209
aI253
aI290
aI332
aI434
aI774
aI824
aI843
asI147
(lp153
I3
aI30
aI47
aI76
aI102
aI124
asI148
(lp154
I7
aI21
aI29
aI31
aI36
aI39
aI194
aI435
aI519
asI149
(lp155
I74
aI78
aI80
aI103
aI135
aI136
aI241
aI381
asI150
(lp156
I11
aI13
aI47
aI51
aI71
aI111
asI151
(lp157
I1
aI4
aI16
aI28
aI32
aI48
asI152
(lp158
I1
aI27
aI62
aI68
aI79
aI100
asI153
(lp159
I12
aI19
aI23
aI26
aI60
aI66
aI208
aI269
aI467
aI486
aI495
aI675
aI743
aI899
asI154
(lp160
I25
aI44
aI53
aI59
aI70
aI88
asI155
(lp161
I3
aI30
aI72
aI76
aI102
aI119
asI156
(lp162
I7
aI9
aI31
aI40
aI45
aI46
asI157
(lp163
I11
aI13
aI47
aI51
aI71
aI111
asI158
(lp164
I3
aI30
aI41
aI42
aI84
aI106
asI159
(lp165
I21
aI29
aI36
aI61
aI83
aI145
aI308
aI340
aI728
aI837
asI160
(lp166
I7
aI9
aI31
aI39
aI40
aI43
aI206
aI263
aI282
aI350
aI359
aI385
aI416
aI564
aI605
aI610
aI707
aI710
aI795
aI865
asI161
(lp167
I7
aI9
aI31
aI39
aI40
aI43
aI206
aI564
aI605
aI610
aI707
asI162
(lp168
I14
aI27
aI37
aI59
aI79
aI86
asI163
(lp169
I21
aI29
aI36
aI39
aI43
aI52
aI276
aI278
asI164
(lp170
I21
aI29
aI36
aI39
aI43
aI46
aI276
aI278
asI165
(lp171
I5
aI18
aI24
aI50
aI72
aI119
aI233
asI166
(lp172
I1
aI35
aI54
aI58
aI64
aI77
asI167
(lp173
I8
aI54
aI56
aI65
aI73
aI82
aI738
asI168
(lp174
I1
aI27
aI62
aI79
aI100
aI113
asI169
(lp175
I8
aI55
aI56
aI58
aI65
aI85
aI334
aI776
asI170
(lp176
I9
aI81
aI92
aI121
aI128
aI172
aI205
aI250
aI265
aI294
aI385
aI416
aI421
aI635
aI637
aI670
aI723
aI813
asI171
(lp177
I8
aI22
aI33
aI54
aI56
aI73
asI172
(lp178
I81
aI92
aI128
aI170
aI206
aI232
aI265
aI294
aI635
aI637
aI670
aI678
aI723
aI846
aI865
aI872
asI173
(lp179
I8
aI54
aI55
aI58
aI65
aI85
asI174
(lp180
I16
aI48
aI50
aI58
aI101
aI233
asI175
(lp181
I7
aI9
aI31
aI39
aI40
aI43
aI637
aI865
asI176
(lp182
I3
aI30
aI41
aI42
aI47
aI84
asI177
(lp183
I21
aI29
aI36
aI39
aI61
aI83
aI308
aI340
aI440
aI503
aI728
asI178
(lp184
I14
aI37
aI59
aI86
aI88
aI108
asI179
(lp185
I30
aI41
aI42
aI84
aI106
aI122
asI180
(lp186
I0
aI6
aI27
aI34
aI62
aI63
aI824
asI181
(lp187
I10
aI12
aI23
aI26
aI60
aI66
asI182
(lp188
I0
aI1
aI6
aI35
aI62
aI63
asI183
(lp189
I5
aI18
aI24
aI48
aI50
aI72
asI184
(lp190
I54
aI55
aI58
aI64
aI65
aI85
asI185
(lp191
I3
aI11
aI13
aI47
aI51
aI71
aI986
asI186
(lp192
I14
aI27
aI37
aI59
aI86
aI88
asI187
(lp193
I30
aI41
aI42
aI72
aI84
aI106
asI188
(lp194
I7
aI21
aI29
aI31
aI36
aI39
aI200
aI239
aI276
aI375
asI189
(lp195
I0
aI6
aI15
aI20
aI22
aI38
asI190
(lp196
I2
aI17
aI22
aI38
aI67
aI120
asI191
(lp197
I11
aI13
aI51
aI71
aI111
aI144
aI986
asI192
(lp198
I10
aI12
aI19
aI23
aI60
aI69
aI195
aI198
aI208
aI269
aI286
aI319
aI325
aI402
aI419
aI495
aI603
aI611
aI724
aI735
asI193
(lp199
I9
aI40
aI45
aI49
aI74
aI78
asI194
(lp200
I29
aI36
aI46
aI52
aI139
aI148
aI200
aI239
aI286
aI375
aI402
aI419
aI724
aI735
asI195
(lp201
I10
aI12
aI19
aI60
aI75
aI192
aI198
aI200
aI239
aI286
aI402
aI419
aI603
aI724
aI735
asI196
(lp202
I10
aI17
aI23
aI74
aI80
aI94
asI197
(lp203
I16
aI48
aI50
aI101
aI107
aI114
asI198
(lp204
I12
aI19
aI60
aI75
aI192
aI195
asI199
(lp205
I10
aI12
aI19
aI23
aI26
aI60
aI467
aI899
asI200
(lp206
I46
aI52
aI75
aI188
aI194
aI195
asI201
(lp207
I10
aI12
aI19
aI23
aI26
aI60
asI202
(lp208
I10
aI17
aI23
aI26
aI33
aI60
asI203
(lp209
I8
aI26
aI33
aI56
aI66
aI69
asI204
(lp210
I0
aI6
aI15
aI20
aI35
aI54
asI205
(lp211
I9
aI40
aI49
aI121
aI142
aI170
asI206
(lp212
I81
aI92
aI128
aI160
aI161
aI172
aI232
aI265
aI294
aI399
aI562
aI635
aI656
aI670
aI678
aI723
aI846
aI872
asI207
(lp213
I8
aI26
aI33
aI56
aI66
aI67
asI208
(lp214
I12
aI19
aI60
aI75
aI153
aI192
asI209
(lp215
I34
aI88
aI146
aI236
aI253
aI290
aI361
aI434
aI480
aI541
aI824
aI843
aI883
asI210
(lp216
I40
aI78
aI103
aI135
aI136
aI142
asI211
(lp217
I16
aI48
aI55
aI58
aI64
aI89
asI212
(lp218
I7
aI21
aI29
aI31
aI36
aI39
asI213
(lp219
I21
aI39
aI43
aI61
aI83
aI92
aI846
aI872
asI214
(lp220
I2
aI17
aI22
aI33
aI67
aI120
asI215
(lp221
I30
aI41
aI42
aI72
aI84
aI106
asI216
(lp222
I4
aI16
aI18
aI28
aI32
aI48
asI217
(lp223
I8
aI54
aI55
aI58
aI64
aI65
asI218
(lp224
I1
aI16
aI35
aI48
aI58
aI64
asI219
(lp225
I45
aI74
aI78
aI80
aI94
aI103
asI220
(lp226
I34
aI37
aI44
aI59
aI86
aI88
aI253
aI290
aI434
aI541
aI843
aI883
asI221
(lp227
I8
aI54
aI56
aI73
aI82
aI91
asI222
(lp228
I4
aI28
aI32
aI48
aI68
aI98
asI223
(lp229
I0
aI1
aI6
aI35
aI62
aI63
asI224
(lp230
I9
aI40
aI49
aI121
aI135
aI136
asI225
(lp231
I25
aI44
aI53
aI57
aI70
aI116
aI247
aI310
aI392
aI441
aI462
aI470
aI511
aI581
aI586
aI593
aI620
aI630
aI640
aI651
aI766
aI823
aI845
aI878
aI933
asI226
(lp232
I17
aI23
aI26
aI33
aI66
aI67
asI227
(lp233
I10
aI12
aI19
aI23
aI60
aI66
aI467
asI228
(lp234
I10
aI12
aI19
aI23
aI46
aI60
asI229
(lp235
I3
aI11
aI13
aI47
aI51
aI71
aI986
asI230
(lp236
I8
aI26
aI33
aI54
aI56
aI66
asI231
(lp237
I7
aI21
aI29
aI31
aI36
aI45
asI232
(lp238
I81
aI92
aI128
aI172
aI206
aI265
aI670
aI678
aI723
aI872
asI233
(lp239
I50
aI72
aI106
aI133
aI165
aI174
asI234
(lp240
I25
aI44
aI53
aI57
aI70
aI116
aI651
aI659
aI677
aI694
aI883
asI235
(lp241
I8
aI54
aI55
aI58
aI65
aI85
asI236
(lp242
I25
aI34
aI44
aI88
aI116
aI209
aI290
aI434
aI677
aI883
asI237
(lp243
I12
aI19
aI60
aI66
aI69
aI75
aI486
aI776
asI238
(lp244
I14
aI27
aI34
aI37
aI62
aI86
asI239
(lp245
I46
aI52
aI75
aI188
aI194
aI195
asI240
(lp246
I55
aI58
aI64
aI65
aI85
aI87
asI241
(lp247
I17
aI78
aI80
aI103
aI126
aI149
asI242
(lp248
I10
aI12
aI46
aI52
aI60
aI75
asI243
(lp249
I4
aI18
aI28
aI32
aI68
aI98
asI244
(lp250
I23
aI26
aI33
aI56
aI60
aI66
aI486
asI245
(lp251
I7
aI9
aI31
aI40
aI45
aI46
asI246
(lp252
I16
aI48
aI58
aI64
aI77
aI89
asI247
(lp253
I25
aI44
aI53
aI57
aI70
aI225
aI477
aI694
asI248
(lp254
I14
aI27
aI37
aI59
aI62
aI79
asI249
(lp255
I25
aI34
aI44
aI70
aI88
aI116
asI250
(lp256
I9
aI81
aI92
aI121
aI128
aI170
asI251
(lp257
I4
aI18
aI24
aI28
aI32
aI98
asI252
(lp258
I3
aI30
aI41
aI42
aI47
aI84
asI253
(lp259
I34
aI37
aI88
aI146
aI209
aI220
asI254
(lp260
I0
aI6
aI15
aI20
aI35
aI63
asI255
(lp261
I30
aI41
aI42
aI72
aI84
aI106
asI256
(lp262
I25
aI44
aI53
aI57
aI70
aI108
asI257
(lp263
I10
aI17
aI23
aI26
aI60
aI66
asI258
(lp264
I0
aI6
aI15
aI20
aI22
aI38
asI259
(lp265
I4
aI28
aI32
aI68
aI98
aI101
asI260
(lp266
I0
aI6
aI15
aI20
aI35
aI38
asI261
(lp267
I23
aI26
aI33
aI56
aI66
aI67
asI262
(lp268
I3
aI11
aI13
aI47
aI51
aI71
asI263
(lp269
I9
aI81
aI92
aI121
aI128
aI160
asI264
(lp270
I14
aI27
aI62
aI68
aI79
aI113
asI265
(lp271
I81
aI128
aI170
aI172
aI206
aI232
asI266
(lp272
I14
aI27
aI37
aI59
aI79
aI86
asI267
(lp273
I5
aI24
aI50
aI72
aI76
aI119
asI268
(lp274
I2
aI17
aI22
aI26
aI33
aI67
asI269
(lp275
I12
aI19
aI60
aI75
aI153
aI192
asI270
(lp276
I25
aI34
aI37
aI44
aI59
aI88
asI271
(lp277
I7
aI31
aI40
aI45
aI46
aI49
asI272
(lp278
I1
aI16
aI35
aI48
aI55
aI58
asI273
(lp279
I10
aI12
aI19
aI23
aI26
aI60
asI274
(lp280
I3
aI30
aI41
aI42
aI47
aI51
asI275
(lp281
I17
aI74
aI78
aI80
aI94
aI103
asI276
(lp282
I29
aI36
aI52
aI163
aI164
aI188
asI277
(lp283
I3
aI11
aI13
aI47
aI51
aI71
asI278
(lp284
I29
aI36
aI46
aI52
aI163
aI164
asI279
(lp285
I10
aI45
aI46
aI52
aI74
aI94
asI280
(lp286
I4
aI18
aI28
aI32
aI68
aI98
asI281
(lp287
I14
aI27
aI62
aI68
aI79
aI109
asI282
(lp288
I39
aI43
aI61
aI92
aI145
aI160
asI283
(lp289
I10
aI12
aI19
aI23
aI26
aI60
asI284
(lp290
I7
aI21
aI29
aI31
aI36
aI39
asI285
(lp291
I16
aI48
aI55
aI58
aI64
aI65
asI286
(lp292
I12
aI52
aI75
aI192
aI194
aI195
asI287
(lp293
I3
aI30
aI41
aI42
aI72
aI76
asI288
(lp294
I12
aI19
aI60
aI66
aI69
aI75
aI486
asI289
(lp295
I7
aI21
aI29
aI36
aI39
aI43
asI290
(lp296
I34
aI88
aI146
aI209
aI220
aI236
asI291
(lp297
I7
aI9
aI31
aI40
aI45
aI49
asI292
(lp298
I3
aI30
aI41
aI42
aI72
aI76
asI293
(lp299
I7
aI9
aI31
aI39
aI40
aI43
asI294
(lp300
I81
aI92
aI128
aI170
aI172
aI206
asI295
(lp301
I2
aI22
aI33
aI38
aI67
aI73
asI296
(lp302
I14
aI27
aI37
aI59
aI79
aI86
asI297
(lp303
I21
aI39
aI43
aI61
aI83
aI145
asI298
(lp304
I4
aI28
aI32
aI68
aI79
aI109
asI299
(lp305
I7
aI9
aI31
aI40
aI45
aI46
asI300
(lp306
I21
aI29
aI36
aI39
aI43
aI52
asI301
(lp307
I0
aI6
aI15
aI20
aI38
aI63
asI302
(lp308
I7
aI31
aI40
aI45
aI46
aI49
asI303
(lp309
I68
aI79
aI109
aI113
aI125
aI131
asI304
(lp310
I16
aI48
aI55
aI58
aI64
aI65
asI305
(lp311
I10
aI12
aI23
aI60
aI66
aI75
asI306
(lp312
I16
aI48
aI55
aI58
aI64
aI65
asI307
(lp313
I3
aI11
aI13
aI47
aI51
aI71
asI308
(lp314
I21
aI61
aI83
aI145
aI159
aI177
asI309
(lp315
I0
aI6
aI15
aI62
aI63
aI90
asI310
(lp316
I25
aI44
aI53
aI57
aI70
aI225
asI311
(lp317
I39
aI43
aI61
aI83
aI92
aI145
asI312
(lp318
I5
aI30
aI41
aI42
aI50
aI72
asI313
(lp319
I30
aI41
aI42
aI72
aI84
aI106
asI314
(lp320
I9
aI31
aI40
aI45
aI49
aI74
asI315
(lp321
I10
aI12
aI19
aI23
aI26
aI60
asI316
(lp322
I3
aI11
aI13
aI41
aI47
aI51
asI317
(lp323
I10
aI46
aI52
aI75
aI94
aI139
asI318
(lp324
I27
aI34
aI37
aI88
aI100
aI123
asI319
(lp325
I10
aI12
aI19
aI60
aI75
aI192
asI320
(lp326
I9
aI31
aI40
aI45
aI49
aI74
asI321
(lp327
I7
aI10
aI31
aI45
aI46
aI49
asI322
(lp328
I8
aI54
aI55
aI58
aI65
aI85
asI323
(lp329
I21
aI29
aI36
aI39
aI43
aI52
asI324
(lp330
I7
aI9
aI31
aI39
aI40
aI43
asI325
(lp331
I12
aI19
aI52
aI60
aI75
aI192
asI326
(lp332
I7
aI9
aI31
aI39
aI40
aI43
asI327
(lp333
I2
aI15
aI20
aI22
aI38
aI73
asI328
(lp334
I25
aI44
aI53
aI57
aI70
aI116
aI477
asI329
(lp335
I2
aI17
aI26
aI33
aI67
aI120
asI330
(lp336
I12
aI19
aI23
aI26
aI60
aI66
asI331
(lp337
I10
aI12
aI19
aI23
aI60
aI75
asI332
(lp338
I25
aI34
aI44
aI88
aI116
aI146
asI333
(lp339
I8
aI54
aI56
aI73
aI82
aI87
asI334
(lp340
I8
aI69
aI95
aI110
aI118
aI169
asI335
(lp341
I5
aI16
aI18
aI24
aI28
aI32
asI336
(lp342
I6
aI35
aI54
aI73
aI82
aI87
asI337
(lp343
I1
aI6
aI35
aI62
aI77
aI123
asI338
(lp344
I17
aI74
aI78
aI80
aI94
aI103
asI339
(lp345
I14
aI27
aI34
aI37
aI59
aI86
asI340
(lp346
I21
aI61
aI83
aI145
aI159
aI177
asI341
(lp347
I4
aI28
aI32
aI68
aI79
aI104
asI342
(lp348
I7
aI31
aI40
aI45
aI46
aI49
asI343
(lp349
I17
aI26
aI33
aI56
aI66
aI67
asI344
(lp350
I8
aI26
aI33
aI56
aI66
aI73
asI345
(lp351
I74
aI78
aI80
aI94
aI103
aI135
asI346
(lp352
I0
aI1
aI6
aI35
aI62
aI63
asI347
(lp353
I10
aI12
aI23
aI26
aI60
aI66
asI348
(lp354
I25
aI44
aI53
aI57
aI70
aI88
asI349
(lp355
I0
aI6
aI15
aI20
aI35
aI54
asI350
(lp356
I9
aI81
aI92
aI121
aI128
aI160
asI351
(lp357
I4
aI28
aI32
aI68
aI79
aI98
asI352
(lp358
I7
aI21
aI29
aI31
aI36
aI39
asI353
(lp359
I7
aI21
aI29
aI31
aI39
aI43
asI354
(lp360
I5
aI18
aI24
aI50
aI72
aI98
asI355
(lp361
I10
aI17
aI23
aI26
aI67
aI74
asI356
(lp362
I5
aI30
aI42
aI50
aI72
aI76
asI357
(lp363
I7
aI21
aI39
aI43
aI61
aI81
asI358
(lp364
I5
aI18
aI24
aI50
aI72
aI76
asI359
(lp365
I9
aI81
aI92
aI121
aI128
aI160
asI360
(lp366
I8
aI56
aI66
aI69
aI95
aI110
asI361
(lp367
I25
aI34
aI44
aI88
aI116
aI209
asI362
(lp368
I5
aI30
aI42
aI50
aI72
aI76
asI363
(lp369
I1
aI6
aI35
aI54
aI64
aI77
asI364
(lp370
I3
aI30
aI41
aI42
aI47
aI84
asI365
(lp371
I8
aI33
aI54
aI56
aI73
aI82
asI366
(lp372
I4
aI5
aI18
aI24
aI28
aI32
asI367
(lp373
I7
aI9
aI31
aI39
aI40
aI43
asI368
(lp374
I0
aI6
aI27
aI34
aI62
aI63
asI369
(lp375
I21
aI29
aI36
aI39
aI61
aI83
asI370
(lp376
I8
aI35
aI54
aI58
aI64
aI82
asI371
(lp377
I1
aI62
aI68
aI77
aI79
aI113
asI372
(lp378
I7
aI9
aI31
aI40
aI45
aI49
asI373
(lp379
I55
aI58
aI65
aI85
aI87
aI89
asI374
(lp380
I17
aI74
aI78
aI80
aI94
aI103
asI375
(lp381
I36
aI46
aI52
aI75
aI188
aI194
asI376
(lp382
I7
aI31
aI40
aI45
aI46
aI49
asI377
(lp383
I9
aI40
aI45
aI49
aI74
aI121
asI378
(lp384
I2
aI22
aI26
aI33
aI56
aI66
asI379
(lp385
I10
aI17
aI23
aI60
aI74
aI80
asI380
(lp386
I11
aI13
aI47
aI51
aI71
aI111
asI381
(lp387
I17
aI78
aI80
aI103
aI126
aI149
asI382
(lp388
I10
aI17
aI45
aI74
aI78
aI80
asI383
(lp389
I14
aI37
aI59
aI86
aI88
aI108
asI384
(lp390
I8
aI54
aI56
aI73
aI82
aI87
asI385
(lp391
I81
aI92
aI121
aI128
aI160
aI170
asI386
(lp392
I7
aI21
aI29
aI31
aI39
aI43
asI387
(lp393
I11
aI13
aI47
aI51
aI71
aI111
asI388
(lp394
I17
aI67
aI78
aI80
aI103
aI126
asI389
(lp395
I10
aI12
aI19
aI23
aI26
aI60
asI390
(lp396
I11
aI13
aI51
aI71
aI111
aI112
asI391
(lp397
I10
aI12
aI19
aI23
aI26
aI60
asI392
(lp398
I25
aI44
aI53
aI57
aI70
aI225
aI477
asI393
(lp399
I10
aI12
aI19
aI23
aI60
aI69
asI394
(lp400
I17
aI67
aI74
aI78
aI80
aI103
asI395
(lp401
I7
aI21
aI29
aI31
aI36
aI39
asI396
(lp402
I8
aI35
aI54
aI56
aI58
aI65
asI397
(lp403
I7
aI9
aI31
aI40
aI45
aI49
asI398
(lp404
I7
aI21
aI29
aI31
aI36
aI39
asI399
(lp405
I39
aI43
aI61
aI83
aI145
aI206
asI400
(lp406
I25
aI44
aI53
aI57
aI59
aI70
asI401
(lp407
I8
aI26
aI33
aI56
aI66
aI73
asI402
(lp408
I12
aI19
aI75
aI192
aI194
aI195
asI403
(lp409
I8
aI54
aI56
aI69
aI85
aI95
asI404
(lp410
I7
aI21
aI39
aI43
aI61
aI92
asI405
(lp411
I40
aI45
aI49
aI74
aI78
aI80
asI406
(lp412
I7
aI9
aI31
aI40
aI45
aI46
asI407
(lp413
I14
aI27
aI34
aI37
aI59
aI62
asI408
(lp414
I9
aI40
aI81
aI92
aI121
aI128
asI409
(lp415
I5
aI18
aI24
aI50
aI72
aI76
asI410
(lp416
I21
aI39
aI43
aI61
aI83
aI145
asI411
(lp417
I7
aI9
aI31
aI40
aI45
aI46
asI412
(lp418
I0
aI6
aI15
aI20
aI35
aI38
asI413
(lp419
I1
aI6
aI62
aI77
aI100
aI123
asI414
(lp420
I25
aI44
aI53
aI57
aI70
aI108
asI415
(lp421
I0
aI1
aI6
aI15
aI35
aI62
asI416
(lp422
I81
aI92
aI121
aI128
aI160
aI170
asI417
(lp423
I10
aI17
aI74
aI78
aI80
aI94
asI418
(lp424
I10
aI12
aI19
aI23
aI60
aI66
asI419
(lp425
I12
aI19
aI75
aI192
aI194
aI195
asI420
(lp426
I8
aI54
aI56
aI73
aI82
aI85
asI421
(lp427
I9
aI81
aI92
aI121
aI128
aI170
asI422
(lp428
I1
aI4
aI62
aI64
aI68
aI77
asI423
(lp429
I0
aI6
aI15
aI20
aI35
aI38
asI424
(lp430
I3
aI13
aI47
aI51
aI102
aI115
asI425
(lp431
I3
aI30
aI41
aI42
aI47
aI84
asI426
(lp432
I8
aI55
aI58
aI65
aI85
aI93
asI427
(lp433
I8
aI56
aI65
aI69
aI85
aI95
asI428
(lp434
I2
aI17
aI22
aI33
aI67
aI120
asI429
(lp435
I0
aI6
aI20
aI35
aI54
aI63
asI430
(lp436
I3
aI13
aI30
aI41
aI47
aI51
asI431
(lp437
I8
aI55
aI58
aI65
aI85
aI93
asI432
(lp438
I7
aI21
aI29
aI36
aI39
aI43
asI433
(lp439
I7
aI9
aI31
aI40
aI45
aI46
asI434
(lp440
I34
aI88
aI146
aI209
aI220
aI236
asI435
(lp441
I21
aI29
aI36
aI52
aI139
aI148
asI436
(lp442
I16
aI48
aI55
aI58
aI64
aI65
asI437
(lp443
I2
aI17
aI67
aI120
aI126
aI127
asI438
(lp444
I14
aI27
aI37
aI59
aI79
aI86
asI439
(lp445
I3
aI47
aI51
aI76
aI102
aI115
asI440
(lp446
I39
aI43
aI61
aI83
aI145
aI177
asI441
(lp447
I25
aI44
aI53
aI57
aI70
aI225
asI442
(lp448
I25
aI44
aI53
aI57
aI70
aI108
asI443
(lp449
I0
aI1
aI6
aI35
aI54
aI63
asI444
(lp450
I3
aI30
aI41
aI42
aI47
aI76
asI445
(lp451
I0
aI6
aI15
aI63
aI90
aI100
asI446
(lp452
I7
aI21
aI29
aI31
aI36
aI39
asI447
(lp453
I1
aI27
aI62
aI68
aI79
aI100
asI448
(lp454
I16
aI48
aI50
aI58
aI101
asI449
(lp455
I1
aI6
aI35
aI62
aI64
aI77
asI450
(lp456
I2
aI15
aI20
aI22
aI38
aI54
asI451
(lp457
I25
aI37
aI44
aI59
aI70
aI86
asI452
(lp458
I1
aI6
aI35
aI62
aI64
aI77
asI453
(lp459
I4
aI16
aI18
aI28
aI32
aI48
asI454
(lp460
I7
aI10
aI31
aI45
aI46
aI49
asI455
(lp461
I0
aI2
aI15
aI20
aI22
aI38
asI456
(lp462
I1
aI16
aI35
aI48
aI55
aI58
asI457
(lp463
I3
aI30
aI41
aI42
aI47
aI76
asI458
(lp464
I25
aI44
aI53
aI57
aI70
aI88
asI459
(lp465
I12
aI19
aI23
aI26
aI33
aI56
asI460
(lp466
I3
aI11
aI13
aI41
aI47
aI51
asI461
(lp467
I5
aI18
aI24
aI50
aI72
aI76
asI462
(lp468
I25
aI44
aI53
aI57
aI70
aI225
aI477
asI463
(lp469
I11
aI13
aI47
aI51
aI71
aI111
asI464
(lp470
I0
aI2
aI15
aI20
aI22
aI38
asI465
(lp471
I10
aI12
aI19
aI23
aI60
aI75
asI466
(lp472
I5
aI18
aI24
aI28
aI32
aI48
asI467
(lp473
I19
aI69
aI95
aI153
aI199
aI227
asI468
(lp474
I10
aI12
aI19
aI23
aI26
aI60
asI469
(lp475
I3
aI5
aI30
aI41
aI42
aI72
asI470
(lp476
I25
aI44
aI53
aI57
aI70
aI225
aI477
asI471
(lp477
I8
aI35
aI54
aI55
aI58
aI64
asI472
(lp478
I3
aI47
aI51
aI102
aI115
aI124
asI473
(lp479
I30
aI41
aI42
aI50
aI72
aI84
asI474
(lp480
I12
aI19
aI60
aI69
aI75
aI95
asI475
(lp481
I11
aI13
aI47
aI51
aI71
aI111
asI476
(lp482
I3
aI11
aI13
aI41
aI42
aI47
asI477
(lp483
I57
aI247
aI328
aI392
aI462
aI470
asI478
(lp484
I25
aI44
aI53
aI57
aI70
aI88
asI479
(lp485
I55
aI58
aI65
aI85
aI89
aI93
asI480
(lp486
I25
aI34
aI44
aI88
aI116
aI209
asI481
(lp487
I7
aI9
aI31
aI40
aI49
aI81
asI482
(lp488
I8
aI54
aI56
aI69
aI73
aI85
asI483
(lp489
I30
aI41
aI42
aI72
aI84
aI106
asI484
(lp490
I25
aI37
aI44
aI59
aI70
aI86
asI485
(lp491
I8
aI26
aI33
aI56
aI66
aI67
asI486
(lp492
I69
aI95
aI153
aI237
aI244
aI288
asI487
(lp493
I0
aI2
aI15
aI20
aI22
aI38
asI488
(lp494
I1
aI4
aI35
aI62
aI64
aI77
asI489
(lp495
I3
aI30
aI41
aI42
aI47
aI51
asI490
(lp496
I25
aI44
aI53
aI57
aI70
aI116
asI491
(lp497
I14
aI27
aI37
aI59
aI79
aI86
asI492
(lp498
I1
aI6
aI35
aI54
aI64
aI77
asI493
(lp499
I0
aI2
aI15
aI20
aI22
aI38
asI494
(lp500
I11
aI13
aI47
aI51
aI71
aI111
asI495
(lp501
I12
aI19
aI60
aI75
aI153
aI192
asI496
(lp502
I9
aI31
aI40
aI45
aI49
aI74
asI497
(lp503
I25
aI44
aI53
aI57
aI70
aI88
asI498
(lp504
I9
aI40
aI49
aI81
aI121
aI142
asI499
(lp505
I7
aI21
aI29
aI31
aI39
aI43
asI500
(lp506
I7
aI9
aI31
aI39
aI40
aI43
asI501
(lp507
I8
aI56
aI65
aI85
aI93
aI95
asI502
(lp508
I10
aI12
aI23
aI26
aI60
aI66
asI503
(lp509
I39
aI43
aI61
aI83
aI145
aI177
asI504
(lp510
I10
aI12
aI19
aI23
aI26
aI60
asI505
(lp511
I8
aI26
aI33
aI54
aI56
aI73
asI506
(lp512
I40
aI45
aI49
aI74
aI78
aI80
asI507
(lp513
I37
aI44
aI59
aI86
aI88
aI108
asI508
(lp514
I1
aI4
aI62
aI68
aI79
aI109
asI509
(lp515
I16
aI18
aI24
aI48
aI50
aI72
asI510
(lp516
I16
aI48
aI58
aI98
aI101
aI104
asI511
(lp517
I25
aI44
aI53
aI57
aI70
aI225
asI512
(lp518
I14
aI27
aI37
aI59
aI86
aI88
asI513
(lp519
I1
aI4
aI62
aI64
aI68
aI77
asI514
(lp520
I8
aI26
aI33
aI56
aI66
aI69
asI515
(lp521
I26
aI33
aI56
aI66
aI67
aI73
asI516
(lp522
I40
aI74
aI78
aI80
aI103
aI135
asI517
(lp523
I21
aI39
aI43
aI61
aI83
aI145
asI518
(lp524
I5
aI18
aI24
aI32
aI50
aI72
asI519
(lp525
I29
aI36
aI46
aI52
aI139
aI148
asI520
(lp526
I8
aI35
aI54
aI58
aI64
aI82
asI521
(lp527
I7
aI9
aI31
aI40
aI45
aI49
asI522
(lp528
I3
aI11
aI13
aI47
aI51
aI102
asI523
(lp529
I7
aI9
aI21
aI31
aI39
aI40
asI524
(lp530
I14
aI27
aI37
aI59
aI79
aI86
asI525
(lp531
I8
aI55
aI56
aI58
aI65
aI85
asI526
(lp532
I8
aI56
aI65
aI69
aI85
aI95
asI527
(lp533
I10
aI12
aI23
aI26
aI33
aI60
asI528
(lp534
I17
aI67
aI78
aI103
aI126
aI127
asI529
(lp535
I4
aI18
aI24
aI28
aI32
aI48
asI530
(lp536
I25
aI44
aI53
aI57
aI70
aI108
asI531
(lp537
I14
aI27
aI68
aI79
aI113
aI123
asI532
(lp538
I2
aI17
aI26
aI33
aI67
aI120
asI533
(lp539
I3
aI11
aI13
aI41
aI47
aI51
asI534
(lp540
I3
aI11
aI13
aI47
aI51
aI71
asI535
(lp541
I0
aI2
aI15
aI20
aI22
aI38
asI536
(lp542
I7
aI9
aI31
aI39
aI40
aI43
asI537
(lp543
I7
aI9
aI31
aI40
aI45
aI49
asI538
(lp544
I3
aI13
aI30
aI41
aI42
aI47
asI539
(lp545
I2
aI20
aI22
aI33
aI38
aI54
asI540
(lp546
I8
aI26
aI33
aI56
aI66
aI67
asI541
(lp547
I25
aI34
aI44
aI88
aI209
aI220
asI542
(lp548
I7
aI21
aI29
aI36
aI39
aI43
asI543
(lp549
I14
aI27
aI62
aI68
aI79
aI113
asI544
(lp550
I1
aI6
aI35
aI62
aI64
aI77
asI545
(lp551
I3
aI30
aI41
aI42
aI47
aI51
asI546
(lp552
I3
aI30
aI41
aI42
aI84
aI106
asI547
(lp553
I25
aI44
aI53
aI57
aI70
aI88
asI548
(lp554
I25
aI34
aI44
aI70
aI88
aI116
asI549
(lp555
I5
aI18
aI24
aI48
aI50
aI72
asI550
(lp556
I1
aI4
aI16
aI28
aI48
aI64
asI551
(lp557
I9
aI40
aI49
aI121
aI135
aI136
asI552
(lp558
I25
aI37
aI44
aI53
aI59
aI70
asI553
(lp559
I30
aI41
aI42
aI84
aI106
aI122
asI554
(lp560
I4
aI16
aI18
aI28
aI32
aI48
asI555
(lp561
I17
aI26
aI33
aI67
aI80
aI120
asI556
(lp562
I16
aI48
aI50
aI98
aI101
aI104
asI557
(lp563
I1
aI16
aI48
aI58
aI64
aI77
asI558
(lp564
I8
aI35
aI54
aI55
aI58
aI64
asI559
(lp565
I7
aI9
aI31
aI40
aI45
aI46
asI560
(lp566
I14
aI27
aI34
aI37
aI59
aI86
asI561
(lp567
I3
aI5
aI30
aI72
aI76
aI102
asI562
(lp568
I39
aI43
aI61
aI92
aI145
aI206
asI563
(lp569
I12
aI23
aI26
aI33
aI56
aI60
asI564
(lp570
I81
aI92
aI121
aI128
aI160
aI161
asI565
(lp571
I8
aI35
aI54
aI56
aI73
aI82
asI566
(lp572
I3
aI11
aI13
aI47
aI51
aI102
asI567
(lp573
I8
aI23
aI26
aI33
aI56
aI66
asI568
(lp574
I11
aI13
aI51
aI71
aI111
aI112
asI569
(lp575
I3
aI11
aI13
aI47
aI51
aI71
asI570
(lp576
I7
aI21
aI29
aI31
aI39
aI43
asI571
(lp577
I7
aI9
aI31
aI40
aI45
aI49
asI572
(lp578
I14
aI27
aI34
aI37
aI59
aI86
asI573
(lp579
I7
aI21
aI29
aI31
aI36
aI39
asI574
(lp580
I8
aI26
aI33
aI56
aI66
aI69
asI575
(lp581
I7
aI9
aI31
aI40
aI45
aI46
asI576
(lp582
I8
aI35
aI54
aI58
aI64
aI73
asI577
(lp583
I3
aI47
aI51
aI102
aI115
aI124
asI578
(lp584
I2
aI17
aI22
aI33
aI38
aI67
asI579
(lp585
I7
aI9
aI31
aI40
aI45
aI49
asI580
(lp586
I3
aI11
aI13
aI47
aI51
aI71
asI581
(lp587
I25
aI44
aI53
aI57
aI70
aI225
asI582
(lp588
I30
aI41
aI42
aI50
aI72
aI106
asI583
(lp589
I25
aI44
aI53
aI57
aI70
aI116
asI584
(lp590
I7
aI9
aI31
aI40
aI49
aI81
asI585
(lp591
I5
aI18
aI24
aI50
aI72
aI119
asI586
(lp592
I25
aI44
aI53
aI57
aI70
aI225
asI587
(lp593
I0
aI1
aI6
aI35
aI62
aI63
asI588
(lp594
I10
aI12
aI19
aI23
aI26
aI60
asI589
(lp595
I14
aI27
aI34
aI37
aI62
aI86
asI590
(lp596
I3
aI30
aI72
aI76
aI102
aI119
asI591
(lp597
I16
aI48
aI55
aI58
aI64
aI65
asI592
(lp598
I1
aI4
aI28
aI62
aI68
aI79
asI593
(lp599
I25
aI44
aI53
aI57
aI70
aI225
asI594
(lp600
I14
aI27
aI37
aI59
aI62
aI79
asI595
(lp601
I14
aI27
aI34
aI37
aI59
aI86
asI596
(lp602
I5
aI30
aI41
aI42
aI50
aI72
asI597
(lp603
I10
aI45
aI46
aI60
aI74
aI80
asI598
(lp604
I74
aI78
aI80
aI103
aI135
aI136
asI599
(lp605
I7
aI9
aI31
aI40
aI45
aI49
asI600
(lp606
I12
aI19
aI23
aI26
aI60
aI66
asI601
(lp607
I14
aI27
aI37
aI62
aI79
aI86
asI602
(lp608
I14
aI27
aI37
aI59
aI79
aI86
asI603
(lp609
I12
aI19
aI60
aI75
aI192
aI195
asI604
(lp610
I25
aI44
aI53
aI57
aI70
aI116
asI605
(lp611
I81
aI92
aI121
aI128
aI160
aI161
asI606
(lp612
I4
aI28
aI32
aI68
aI98
aI101
asI607
(lp613
I4
aI28
aI32
aI68
aI98
aI101
asI608
(lp614
I30
aI41
aI42
aI72
aI84
aI106
asI609
(lp615
I1
aI4
aI62
aI68
aI77
aI104
asI610
(lp616
I81
aI92
aI121
aI128
aI160
aI161
asI611
(lp617
I10
aI12
aI19
aI60
aI75
aI192
asI612
(lp618
I3
aI30
aI41
aI42
aI47
aI84
asI613
(lp619
I8
aI55
aI58
aI65
aI85
aI87
asI614
(lp620
I1
aI6
aI35
aI62
aI64
aI68
asI615
(lp621
I8
aI54
aI56
aI65
aI73
aI82
asI616
(lp622
I8
aI26
aI33
aI56
aI66
aI69
asI617
(lp623
I14
aI27
aI34
aI37
aI59
aI86
asI618
(lp624
I3
aI30
aI41
aI42
aI47
aI72
asI619
(lp625
I10
aI12
aI19
aI23
aI26
aI60
asI620
(lp626
I25
aI44
aI53
aI57
aI70
aI225
asI621
(lp627
I7
aI9
aI39
aI43
aI81
aI92
asI622
(lp628
I8
aI35
aI54
aI55
aI58
aI64
asI623
(lp629
I25
aI44
aI53
aI57
aI70
aI116
asI624
(lp630
I14
aI27
aI34
aI37
aI59
aI86
asI625
(lp631
I14
aI27
aI62
aI68
aI79
aI113
asI626
(lp632
I8
aI35
aI54
aI58
aI64
aI73
asI627
(lp633
I8
aI26
aI33
aI56
aI66
aI69
asI628
(lp634
I1
aI16
aI35
aI48
aI55
aI58
asI629
(lp635
I0
aI6
aI15
aI20
aI38
aI63
asI630
(lp636
I25
aI44
aI53
aI57
aI70
aI225
asI631
(lp637
I10
aI12
aI23
aI26
aI33
aI60
asI632
(lp638
I2
aI17
aI22
aI26
aI33
aI56
asI633
(lp639
I7
aI9
aI31
aI40
aI45
aI49
asI634
(lp640
I1
aI16
aI35
aI54
aI55
aI58
asI635
(lp641
I81
aI92
aI128
aI170
aI172
aI206
asI636
(lp642
I8
aI26
aI33
aI56
aI66
aI67
asI637
(lp643
I81
aI92
aI128
aI170
aI172
aI175
asI638
(lp644
I8
aI54
aI55
aI58
aI65
aI85
asI639
(lp645
I25
aI44
aI53
aI57
aI70
aI116
asI640
(lp646
I25
aI44
aI53
aI57
aI70
aI225
asI641
(lp647
I8
aI54
aI56
aI73
aI82
aI87
asI642
(lp648
I14
aI27
aI34
aI37
aI59
aI86
asI643
(lp649
I10
aI12
aI17
aI23
aI26
aI33
asI644
(lp650
I2
aI17
aI22
aI26
aI33
aI56
asI645
(lp651
I68
aI79
aI109
aI113
aI123
aI125
asI646
(lp652
I10
aI12
aI19
aI23
aI60
aI75
asI647
(lp653
I3
aI5
aI30
aI41
aI42
aI72
asI648
(lp654
I3
aI30
aI41
aI42
aI72
aI76
asI649
(lp655
I11
aI13
aI51
aI71
aI111
aI112
asI650
(lp656
I1
aI4
aI16
aI28
aI48
aI64
asI651
(lp657
I25
aI53
aI57
aI70
aI225
aI234
asI652
(lp658
I25
aI34
aI37
aI44
aI59
aI86
asI653
(lp659
I30
aI41
aI42
aI72
aI84
aI106
asI654
(lp660
I3
aI30
aI41
aI42
aI47
aI84
asI655
(lp661
I30
aI41
aI42
aI72
aI76
aI84
asI656
(lp662
I39
aI43
aI61
aI83
aI145
aI206
asI657
(lp663
I8
aI54
aI55
aI58
aI65
aI85
asI658
(lp664
I12
aI19
aI60
aI69
aI75
aI95
asI659
(lp665
I25
aI44
aI53
aI57
aI70
aI234
asI660
(lp666
I8
aI55
aI58
aI64
aI65
aI85
asI661
(lp667
I7
aI21
aI29
aI39
aI43
aI61
asI662
(lp668
I8
aI35
aI54
aI56
aI73
aI82
asI663
(lp669
I0
aI6
aI15
aI20
aI35
aI38
asI664
(lp670
I8
aI54
aI56
aI58
aI65
aI73
asI665
(lp671
I1
aI4
aI16
aI48
aI58
aI64
asI666
(lp672
I14
aI27
aI68
aI79
aI113
aI123
asI667
(lp673
I5
aI30
aI42
aI50
aI72
aI106
asI668
(lp674
I7
aI9
aI31
aI40
aI45
aI46
asI669
(lp675
I7
aI10
aI31
aI45
aI46
aI52
asI670
(lp676
I81
aI128
aI170
aI172
aI206
aI232
asI671
(lp677
I3
aI11
aI13
aI47
aI51
aI71
asI672
(lp678
I5
aI16
aI18
aI24
aI28
aI48
asI673
(lp679
I1
aI35
aI54
aI55
aI58
aI64
asI674
(lp680
I10
aI12
aI23
aI46
aI60
aI75
asI675
(lp681
I12
aI19
aI66
aI69
aI95
aI153
asI676
(lp682
I9
aI40
aI74
aI78
aI103
aI135
asI677
(lp683
I25
aI44
aI57
aI70
aI234
aI236
asI678
(lp684
I81
aI92
aI128
aI172
aI206
aI232
asI679
(lp685
I14
aI37
aI44
aI59
aI86
aI88
asI680
(lp686
I6
aI27
aI62
aI100
aI123
aI131
asI681
(lp687
I40
aI45
aI49
aI74
aI78
aI80
asI682
(lp688
I7
aI9
aI31
aI39
aI40
aI45
asI683
(lp689
I7
aI21
aI29
aI31
aI36
aI39
asI684
(lp690
I8
aI35
aI54
aI58
aI64
aI77
asI685
(lp691
I10
aI17
aI23
aI26
aI33
aI66
asI686
(lp692
I21
aI39
aI43
aI61
aI83
aI145
asI687
(lp693
I1
aI6
aI35
aI54
aI64
aI77
asI688
(lp694
I14
aI27
aI34
aI37
aI59
aI86
asI689
(lp695
I0
aI2
aI15
aI20
aI22
aI38
asI690
(lp696
I27
aI34
aI37
aI44
aI59
aI86
asI691
(lp697
I3
aI11
aI13
aI47
aI51
aI71
asI692
(lp698
I0
aI1
aI6
aI35
aI62
aI63
asI693
(lp699
I7
aI9
aI31
aI40
aI45
aI49
asI694
(lp700
I25
aI44
aI57
aI70
aI234
aI247
asI695
(lp701
I21
aI29
aI39
aI43
aI61
aI83
asI696
(lp702
I7
aI21
aI29
aI31
aI36
aI39
asI697
(lp703
I8
aI56
aI69
aI85
aI95
aI110
asI698
(lp704
I30
aI41
aI42
aI72
aI84
aI106
asI699
(lp705
I2
aI20
aI22
aI38
aI67
aI117
asI700
(lp706
I5
aI30
aI41
aI42
aI50
aI72
asI701
(lp707
I2
aI17
aI67
aI120
aI126
aI127
asI702
(lp708
I17
aI23
aI26
aI33
aI66
aI67
asI703
(lp709
I0
aI6
aI15
aI20
aI38
aI63
asI704
(lp710
I0
aI1
aI6
aI35
aI62
aI63
asI705
(lp711
I30
aI41
aI42
aI72
aI84
aI106
asI706
(lp712
I0
aI1
aI6
aI27
aI62
aI63
asI707
(lp713
I81
aI92
aI121
aI128
aI160
aI161
asI708
(lp714
I16
aI48
aI55
aI58
aI64
aI65
asI709
(lp715
I3
aI47
aI51
aI76
aI102
aI115
asI710
(lp716
I39
aI43
aI61
aI81
aI92
aI160
asI711
(lp717
I16
aI48
aI58
aI98
aI101
aI104
asI712
(lp718
I30
aI42
aI50
aI72
aI106
aI133
asI713
(lp719
I14
aI27
aI34
aI37
aI59
aI62
asI714
(lp720
I10
aI23
aI45
aI46
aI60
aI74
asI715
(lp721
I3
aI11
aI13
aI47
aI51
aI71
asI716
(lp722
I10
aI12
aI19
aI23
aI60
aI75
asI717
(lp723
I9
aI31
aI40
aI45
aI49
aI81
asI718
(lp724
I0
aI1
aI6
aI35
aI54
aI64
asI719
(lp725
I11
aI13
aI47
aI51
aI71
aI111
asI720
(lp726
I2
aI17
aI22
aI33
aI67
aI120
asI721
(lp727
I7
aI21
aI29
aI31
aI36
aI39
asI722
(lp728
I10
aI12
aI19
aI23
aI26
aI60
asI723
(lp729
I81
aI128
aI170
aI172
aI206
aI232
asI724
(lp730
I12
aI19
aI75
aI192
aI194
aI195
asI725
(lp731
I25
aI44
aI53
aI57
aI70
aI88
asI726
(lp732
I2
aI15
aI20
aI22
aI38
aI73
asI727
(lp733
I3
aI30
aI41
aI42
aI47
aI76
asI728
(lp734
I21
aI61
aI83
aI145
aI159
aI177
asI729
(lp735
I6
aI35
aI54
aI64
aI73
aI77
asI730
(lp736
I16
aI48
aI98
aI101
aI104
aI107
asI731
(lp737
I1
aI4
aI62
aI68
aI79
aI109
asI732
(lp738
I1
aI4
aI16
aI48
aI62
aI64
asI733
(lp739
I17
aI23
aI26
aI33
aI66
aI67
asI734
(lp740
I4
aI28
aI32
aI68
aI79
aI98
asI735
(lp741
I12
aI52
aI75
aI192
aI194
aI195
asI736
(lp742
I21
aI39
aI43
aI61
aI83
aI145
asI737
(lp743
I3
aI11
aI13
aI47
aI51
aI71
asI738
(lp744
I8
aI69
aI95
aI110
aI118
aI167
asI739
(lp745
I8
aI26
aI33
aI56
aI66
aI69
asI740
(lp746
I3
aI11
aI13
aI47
aI51
aI71
asI741
(lp747
I25
aI44
aI53
aI57
aI70
aI116
asI742
(lp748
I20
aI35
aI38
aI54
aI73
aI82
asI743
(lp749
I10
aI12
aI19
aI60
aI75
aI153
asI744
(lp750
I25
aI44
aI53
aI57
aI70
aI108
asI745
(lp751
I12
aI19
aI26
aI56
aI60
aI66
asI746
(lp752
I2
aI15
aI20
aI22
aI38
aI73
asI747
(lp753
I5
aI18
aI24
aI50
aI72
aI98
asI748
(lp754
I0
aI6
aI15
aI20
aI35
aI54
asI749
(lp755
I10
aI17
aI23
aI74
aI80
aI94
asI750
(lp756
I2
aI17
aI67
aI120
aI126
aI127
asI751
(lp757
I3
aI30
aI41
aI42
aI47
aI76
asI752
(lp758
I2
aI15
aI20
aI22
aI38
aI73
asI753
(lp759
I4
aI18
aI28
aI32
aI68
aI98
asI754
(lp760
I16
aI48
aI55
aI58
aI64
aI77
asI755
(lp761
I12
aI19
aI26
aI60
aI66
aI69
asI756
(lp762
I7
aI9
aI31
aI40
aI49
aI81
asI757
(lp763
I0
aI6
aI15
aI20
aI63
aI90
asI758
(lp764
I16
aI54
aI55
aI58
aI64
aI65
asI759
(lp765
I16
aI48
aI58
aI64
aI98
aI101
asI760
(lp766
I8
aI26
aI56
aI66
aI69
aI95
asI761
(lp767
I1
aI6
aI35
aI54
aI64
aI77
asI762
(lp768
I10
aI12
aI23
aI46
aI60
aI74
asI763
(lp769
I9
aI40
aI49
aI78
aI103
aI121
asI764
(lp770
I3
aI11
aI13
aI47
aI51
aI71
asI765
(lp771
I2
aI17
aI22
aI26
aI33
aI66
asI766
(lp772
I25
aI44
aI53
aI57
aI70
aI225
asI767
(lp773
I7
aI10
aI31
aI45
aI46
aI49
asI768
(lp774
I0
aI15
aI20
aI22
aI38
aI63
asI769
(lp775
I14
aI27
aI37
aI59
aI86
aI88
asI770
(lp776
I1
aI6
aI35
aI62
aI64
aI77
asI771
(lp777
I1
aI6
aI35
aI62
aI64
aI77
asI772
(lp778
I8
aI26
aI33
aI54
aI56
aI66
asI773
(lp779
I10
aI12
aI19
aI23
aI60
aI75
asI774
(lp780
I34
aI37
aI44
aI88
aI116
aI146
asI775
(lp781
I7
aI9
aI31
aI40
aI45
aI46
asI776
(lp782
I8
aI69
aI95
aI110
aI169
aI237
asI777
(lp783
I8
aI35
aI54
aI55
aI58
aI64
asI778
(lp784
I14
aI27
aI37
aI59
aI86
aI88
asI779
(lp785
I3
aI11
aI13
aI41
aI47
aI51
asI780
(lp786
I7
aI9
aI31
aI40
aI45
aI46
asI781
(lp787
I17
aI67
aI74
aI78
aI80
aI94
asI782
(lp788
I16
aI48
aI55
aI58
aI64
aI77
asI783
(lp789
I8
aI54
aI55
aI58
aI64
aI65
asI784
(lp790
I8
aI35
aI54
aI56
aI73
aI82
asI785
(lp791
I2
aI15
aI20
aI22
aI38
aI73
asI786
(lp792
I1
aI4
aI62
aI64
aI68
aI77
asI787
(lp793
I11
aI13
aI47
aI51
aI71
aI111
asI788
(lp794
I3
aI11
aI13
aI47
aI51
aI71
asI789
(lp795
I2
aI17
aI22
aI26
aI33
aI67
asI790
(lp796
I16
aI48
aI50
aI98
aI101
aI107
asI791
(lp797
I0
aI1
aI6
aI35
aI54
aI63
asI792
(lp798
I11
aI13
aI47
aI51
aI71
aI111
asI793
(lp799
I8
aI35
aI54
aI56
aI73
aI82
asI794
(lp800
I1
aI4
aI35
aI62
aI64
aI77
asI795
(lp801
I39
aI43
aI61
aI81
aI92
aI160
asI796
(lp802
I7
aI21
aI29
aI31
aI39
aI43
asI797
(lp803
I1
aI4
aI16
aI48
aI62
aI64
asI798
(lp804
I5
aI30
aI41
aI42
aI50
aI72
asI799
(lp805
I30
aI41
aI42
aI72
aI84
aI106
asI800
(lp806
I10
aI45
aI74
aI78
aI80
aI94
asI801
(lp807
I7
aI31
aI40
aI45
aI46
aI49
asI802
(lp808
I16
aI48
aI55
aI58
aI64
aI65
asI803
(lp809
I7
aI9
aI31
aI40
aI49
aI81
asI804
(lp810
I0
aI1
aI6
aI27
aI62
aI100
asI805
(lp811
I21
aI29
aI36
aI46
aI52
aI139
asI806
(lp812
I10
aI12
aI19
aI23
aI26
aI60
asI807
(lp813
I10
aI45
aI46
aI74
aI80
aI94
asI808
(lp814
I3
aI30
aI41
aI42
aI47
aI84
asI809
(lp815
I62
aI68
aI79
aI109
aI113
aI123
asI810
(lp816
I7
aI21
aI29
aI31
aI39
aI43
asI811
(lp817
I4
aI16
aI28
aI48
aI64
aI98
asI812
(lp818
I0
aI2
aI15
aI20
aI22
aI38
asI813
(lp819
I9
aI81
aI92
aI121
aI128
aI170
asI814
(lp820
I10
aI12
aI45
aI46
aI52
aI60
asI815
(lp821
I16
aI48
aI55
aI58
aI65
aI85
asI816
(lp822
I11
aI13
aI51
aI71
aI111
aI112
asI817
(lp823
I14
aI27
aI34
aI37
aI59
aI62
asI818
(lp824
I2
aI17
aI67
aI120
aI126
aI127
asI819
(lp825
I20
aI22
aI35
aI38
aI54
aI56
asI820
(lp826
I0
aI6
aI15
aI20
aI35
aI63
asI821
(lp827
I2
aI20
aI22
aI33
aI38
aI56
asI822
(lp828
I0
aI6
aI15
aI20
aI35
aI38
asI823
(lp829
I25
aI44
aI53
aI57
aI70
aI225
asI824
(lp830
I34
aI88
aI100
aI146
aI180
aI209
asI825
(lp831
I5
aI18
aI24
aI50
aI72
aI98
asI826
(lp832
I7
aI9
aI31
aI40
aI45
aI46
asI827
(lp833
I8
aI54
aI56
aI73
aI82
aI87
asI828
(lp834
I7
aI9
aI31
aI40
aI45
aI49
asI829
(lp835
I11
aI13
aI47
aI51
aI71
aI111
asI830
(lp836
I7
aI9
aI31
aI40
aI45
aI49
asI831
(lp837
I7
aI9
aI31
aI40
aI45
aI49
asI832
(lp838
I7
aI9
aI31
aI40
aI45
aI46
asI833
(lp839
I21
aI29
aI36
aI61
aI83
aI145
asI834
(lp840
I25
aI44
aI53
aI57
aI70
aI108
asI835
(lp841
I25
aI44
aI53
aI57
aI70
aI88
asI836
(lp842
I5
aI16
aI18
aI24
aI28
aI48
asI837
(lp843
I39
aI43
aI61
aI83
aI145
aI159
asI838
(lp844
I2
aI20
aI22
aI38
aI117
aI120
asI839
(lp845
I5
aI24
aI30
aI50
aI72
aI76
asI840
(lp846
I0
aI1
aI6
aI35
aI54
aI63
asI841
(lp847
I11
aI13
aI47
aI51
aI71
aI111
asI842
(lp848
I2
aI20
aI22
aI33
aI38
aI67
asI843
(lp849
I34
aI37
aI88
aI146
aI209
aI220
asI844
(lp850
I14
aI27
aI37
aI62
aI79
aI86
asI845
(lp851
I25
aI44
aI53
aI57
aI70
aI225
asI846
(lp852
I61
aI81
aI92
aI172
aI206
aI213
asI847
(lp853
I1
aI35
aI54
aI58
aI64
aI77
asI848
(lp854
I10
aI23
aI45
aI60
aI74
aI75
asI849
(lp855
I12
aI19
aI23
aI26
aI33
aI56
asI850
(lp856
I3
aI30
aI41
aI42
aI47
aI76
asI851
(lp857
I7
aI21
aI29
aI31
aI36
aI39
asI852
(lp858
I4
aI28
aI32
aI62
aI68
aI79
asI853
(lp859
I7
aI9
aI31
aI40
aI49
aI81
asI854
(lp860
I1
aI6
aI35
aI62
aI64
aI77
asI855
(lp861
I1
aI4
aI16
aI28
aI48
aI64
asI856
(lp862
I10
aI12
aI19
aI23
aI60
aI75
asI857
(lp863
I0
aI6
aI35
aI54
aI64
aI73
asI858
(lp864
I21
aI29
aI36
aI46
aI52
aI139
asI859
(lp865
I1
aI27
aI62
aI68
aI79
aI100
asI860
(lp866
I1
aI6
aI35
aI62
aI64
aI77
asI861
(lp867
I7
aI21
aI29
aI31
aI36
aI45
asI862
(lp868
I8
aI56
aI69
aI95
aI110
aI118
asI863
(lp869
I3
aI11
aI13
aI47
aI51
aI71
asI864
(lp870
I10
aI17
aI23
aI45
aI74
aI80
asI865
(lp871
I81
aI92
aI128
aI160
aI172
aI175
asI866
(lp872
I10
aI23
aI45
aI74
aI80
aI94
asI867
(lp873
I7
aI9
aI31
aI39
aI43
aI61
asI868
(lp874
I2
aI17
aI26
aI33
aI67
aI120
asI869
(lp875
I30
aI41
aI42
aI50
aI72
aI84
asI870
(lp876
I0
aI1
aI6
aI35
aI62
aI63
asI871
(lp877
I1
aI16
aI35
aI48
aI55
aI58
asI872
(lp878
I81
aI92
aI172
aI206
aI213
aI232
asI873
(lp879
I4
aI28
aI32
aI68
aI98
aI101
asI874
(lp880
I3
aI5
aI30
aI41
aI42
aI72
asI875
(lp881
I11
aI13
aI47
aI51
aI71
aI111
asI876
(lp882
I5
aI24
aI30
aI50
aI72
aI76
asI877
(lp883
I17
aI26
aI33
aI67
aI80
aI120
asI878
(lp884
I25
aI44
aI53
aI57
aI70
aI225
asI879
(lp885
I25
aI34
aI37
aI44
aI59
aI86
asI880
(lp886
I27
aI34
aI37
aI88
aI100
aI123
asI881
(lp887
I21
aI29
aI36
aI39
aI43
aI52
asI882
(lp888
I21
aI29
aI39
aI43
aI61
aI83
asI883
(lp889
I25
aI44
aI209
aI220
aI234
aI236
asI884
(lp890
I1
aI6
aI27
aI62
aI100
aI113
asI885
(lp891
I5
aI18
aI24
aI50
aI72
aI76
asI886
(lp892
I8
aI35
aI54
aI56
aI73
aI82
asI887
(lp893
I14
aI27
aI62
aI68
aI79
aI100
asI888
(lp894
I7
aI21
aI29
aI31
aI36
aI39
asI889
(lp895
I10
aI17
aI23
aI26
aI33
aI66
asI890
(lp896
I30
aI41
aI42
aI72
aI84
aI106
asI891
(lp897
I1
aI6
aI35
aI54
aI58
aI64
asI892
(lp898
I11
aI13
aI51
aI71
aI111
aI112
asI893
(lp899
I7
aI9
aI31
aI40
aI45
aI46
asI894
(lp900
I7
aI10
aI31
aI45
aI46
aI52
asI895
(lp901
I12
aI19
aI23
aI60
aI66
aI69
asI896
(lp902
I8
aI26
aI33
aI56
aI66
aI67
asI897
(lp903
I45
aI74
aI78
aI80
aI94
aI103
asI898
(lp904
I2
aI17
aI22
aI38
aI67
aI117
asI899
(lp905
I19
aI66
aI69
aI95
aI153
aI199
asI900
(lp906
I16
aI55
aI58
aI64
aI65
aI85
asI901
(lp907
I1
aI4
aI28
aI32
aI48
aI68
asI902
(lp908
I9
aI40
aI49
aI121
aI136
aI142
asI903
(lp909
I14
aI27
aI34
aI37
aI59
aI86
asI904
(lp910
I14
aI25
aI34
aI37
aI44
aI59
asI905
(lp911
I55
aI58
aI64
aI65
aI85
aI87
asI906
(lp912
I3
aI30
aI41
aI42
aI72
aI84
asI907
(lp913
I14
aI37
aI59
aI86
aI88
aI108
asI908
(lp914
I4
aI18
aI24
aI28
aI32
aI48
asI909
(lp915
I4
aI28
aI32
aI48
aI68
aI98
asI910
(lp916
I2
aI17
aI22
aI67
aI120
aI126
asI911
(lp917
I25
aI44
aI53
aI57
aI70
aI108
asI912
(lp918
I3
aI30
aI41
aI42
aI47
aI72
asI913
(lp919
I2
aI17
aI26
aI33
aI66
aI67
asI914
(lp920
I0
aI1
aI6
aI35
aI62
aI63
asI915
(lp921
I14
aI27
aI37
aI59
aI86
aI88
asI916
(lp922
I3
aI30
aI41
aI42
aI72
aI76
asI917
(lp923
I5
aI30
aI72
aI76
aI102
aI119
asI918
(lp924
I3
aI30
aI41
aI42
aI47
aI76
asI919
(lp925
I2
aI17
aI22
aI26
aI33
aI56
asI920
(lp926
I25
aI44
aI53
aI57
aI70
aI88
asI921
(lp927
I11
aI13
aI51
aI71
aI111
aI112
asI922
(lp928
I16
aI55
aI58
aI64
aI65
aI85
asI923
(lp929
I1
aI4
aI62
aI64
aI68
aI77
asI924
(lp930
I30
aI41
aI42
aI72
aI84
aI106
asI925
(lp931
I7
aI9
aI31
aI40
aI45
aI49
asI926
(lp932
I40
aI45
aI49
aI74
aI78
aI80
asI927
(lp933
I3
aI11
aI13
aI47
aI51
aI71
asI928
(lp934
I0
aI6
aI15
aI20
aI38
aI63
asI929
(lp935
I16
aI48
aI50
aI72
aI101
aI133
asI930
(lp936
I0
aI1
aI6
aI27
aI62
aI63
asI931
(lp937
I14
aI27
aI34
aI37
aI59
aI86
asI932
(lp938
I8
aI22
aI26
aI33
aI56
aI66
asI933
(lp939
I25
aI44
aI53
aI57
aI70
aI225
asI934
(lp940
I3
aI47
aI51
aI102
aI115
aI124
asI935
(lp941
I10
aI17
aI23
aI26
aI33
aI60
asI936
(lp942
I2
aI15
aI20
aI22
aI38
aI90
asI937
(lp943
I0
aI1
aI6
aI35
aI62
aI63
asI938
(lp944
I1
aI4
aI16
aI48
aI64
aI68
asI939
(lp945
I11
aI13
aI51
aI71
aI111
aI112
asI940
(lp946
I3
aI11
aI13
aI47
aI51
aI71
asI941
(lp947
I21
aI39
aI43
aI61
aI83
aI145
asI942
(lp948
I27
aI34
aI37
aI59
aI86
aI88
asI943
(lp949
I0
aI1
aI6
aI35
aI62
aI63
asI944
(lp950
I1
aI4
aI62
aI64
aI68
aI77
asI945
(lp951
I0
aI2
aI15
aI20
aI22
aI38
asI946
(lp952
I1
aI6
aI35
aI54
aI62
aI64
asI947
(lp953
I2
aI20
aI22
aI33
aI38
aI67
asI948
(lp954
I3
aI5
aI30
aI41
aI42
aI72
asI949
(lp955
I25
aI44
aI53
aI57
aI70
aI108
asI950
(lp956
I7
aI10
aI31
aI45
aI46
aI49
asI951
(lp957
I2
aI22
aI26
aI33
aI38
aI67
asI952
(lp958
I3
aI30
aI41
aI42
aI47
aI51
asI953
(lp959
I4
aI62
aI68
aI79
aI109
aI113
asI954
(lp960
I9
aI40
aI49
aI81
aI121
aI128
asI955
(lp961
I3
aI5
aI30
aI41
aI42
aI72
asI956
(lp962
I7
aI21
aI29
aI36
aI39
aI43
asI957
(lp963
I10
aI12
aI19
aI23
aI60
aI75
asI958
(lp964
I3
aI30
aI41
aI42
aI47
aI72
asI959
(lp965
I14
aI27
aI37
aI59
aI62
aI79
asI960
(lp966
I8
aI54
aI56
aI73
aI82
aI85
asI961
(lp967
I9
aI31
aI40
aI45
aI49
aI74
asI962
(lp968
I25
aI44
aI53
aI57
aI70
aI108
asI963
(lp969
I7
aI9
aI31
aI39
aI40
aI43
asI964
(lp970
I10
aI12
aI19
aI23
aI26
aI60
asI965
(lp971
I3
aI30
aI41
aI42
aI47
aI84
asI966
(lp972
I14
aI27
aI34
aI37
aI59
aI86
asI967
(lp973
I10
aI31
aI40
aI45
aI46
aI49
asI968
(lp974
I2
aI15
aI20
aI22
aI38
aI73
asI969
(lp975
I16
aI48
aI55
aI58
aI64
aI65
asI970
(lp976
I14
aI27
aI37
aI59
aI79
aI86
asI971
(lp977
I9
aI40
aI45
aI49
aI74
aI78
asI972
(lp978
I21
aI29
aI36
aI39
aI43
aI52
asI973
(lp979
I5
aI30
aI41
aI42
aI50
aI72
asI974
(lp980
I0
aI6
aI15
aI20
aI35
aI54
asI975
(lp981
I0
aI6
aI15
aI20
aI63
aI90
asI976
(lp982
I16
aI48
aI55
aI58
aI64
aI65
asI977
(lp983
I25
aI44
aI53
aI57
aI70
aI88
asI978
(lp984
I3
aI30
aI41
aI42
aI47
aI84
asI979
(lp985
I7
aI21
aI29
aI31
aI36
aI39
asI980
(lp986
I7
aI9
aI31
aI40
aI45
aI46
asI981
(lp987
I1
aI6
aI35
aI54
aI58
aI64
asI982
(lp988
I3
aI30
aI72
aI76
aI102
aI119
asI983
(lp989
I3
aI30
aI41
aI42
aI47
aI51
asI984
(lp990
I10
aI12
aI19
aI23
aI26
aI60
asI985
(lp991
I10
aI17
aI23
aI26
aI67
aI74
asI986
(lp992
I13
aI51
aI144
aI185
aI191
aI229
asI987
(lp993
I14
aI27
aI34
aI37
aI59
aI86
asI988
(lp994
I5
aI24
aI50
aI72
aI76
aI119
asI989
(lp995
I5
aI24
aI50
aI72
aI76
aI119
asI990
(lp996
I14
aI27
aI34
aI37
aI59
aI62
asI991
(lp997
I5
aI16
aI18
aI24
aI48
aI50
asI992
(lp998
I7
aI21
aI29
aI31
aI36
aI39
asI993
(lp999
I0
aI6
aI15
aI20
aI35
aI63
asI994
(lp1000
I3
aI11
aI13
aI47
aI51
aI71
asI995
(lp1001
I8
aI35
aI54
aI55
aI58
aI64
asI996
(lp1002
I8
aI55
aI58
aI65
aI85
aI89
asI997
(lp1003
I1
aI6
aI62
aI68
aI77
aI123
asI998
(lp1004
I23
aI26
aI33
aI56
aI66
aI67
asI999
(lp1005
I8
aI33
aI56
aI66
aI69
aI73
assS'vertices'
p1006
(lp1007
cnumpy.core.multiarray
_reconstruct
p1008
(cnumpy
ndarray
p1009
(I0
tS'b'
tRp1010
(I1
(I2
tcnumpy
dtype
p1011
(S'f8'
I0
I1
tRp1012
(I3
S'<'
NNNI-1
I-1
I0
tbI00
S'\x10\xa5\x88h\x12\x022@\xa2_{1\xa7\xc50\xc0'
tbag1008
(g1009
(I0
tS'b'
tRp1013
(I1
(I2
tg1012
I00
S'\xa0\xb0}\xd9\xce\x87\x1b@\xbc;\x8bZ&k9\xc0'
tbag1008
(g1009
(I0
tS'b'
tRp1014
(I1
(I2
tg1012
I00
S'\x14\xd7\xe9\xe0\xdfj1@`!\x07ae\x01\xf5\xbf'
tbag1008
(g1009
(I0
tS'b'
tRp1015
(I1
(I2
tg1012
I00
S'nS\x83\xd4\tXA\xc0\xbe\x8ay\xfdMkA\xc0'
tbag1008
(g1009
(I0
tS'b'
tRp1016
(I1
(I2
tg1012
I00
S'\x00\xd71\xb5\x15\x16\xda?\xba\xc1\xbb\xa3\x13RB\xc0'
tbag1008
(g1009
(I0
tS'b'
tRp1017
(I1
(I2
tg1012
I00
S'\xc0\x15Ny,$1\xc0\xceU\xfe\xfd\x84OC\xc0'
tbag1008
(g1009
(I0
tS'b'
tRp1018
(I1
(I2
tg1012
I00
S'\xd8\x9a>F#\xa1(@\x90vA\x95\xd5\x1c4\xc0'
tbag1008
(g1009
(I0
tS'b'
tRp1019
(I1
(I2
tg1012
I00
S'\xe0\xf9\x10"\x83t\x14@\xf6<<\xd1\xcb#A@'
tbag1008
(g1009
(I0
tS'b'
tRp1020
(I1
(I2
tg1012
I00
S'@+\xe9\xb1\xdb\xbf\xec\xbf(h\xc3\xc5\xe8i\x19\xc0'
tbag1008
(g1009
(I0
tS'b'
tRp1021
(I1
(I2
tg1012
I00
S'0\xa4\t\xdfH\xa3+@<\x95\xc5\xaf\x9d\x8a@@'
tbag1008
(g1009
(I0
tS'b'
tRp1022
(I1
(I2
tg1012
I00
S'\x80\xf3hn~\x87\x01@\xe4\x89*Q\x9a\x910@'
tbag1008
(g1009
(I0
tS'b'
tRp1023
(I1
(I2
tg1012
I00
S'\xcf\x0c\xdb\xd8\xdc\xd5F\xc0\xf4\n;\xbb\x91\xc3=\xc0'
tbag1008
(g1009
(I0
tS'b'
tRp1024
(I1
(I2
tg1012
I00
S'h\x0fgG\xb8\x83\x13\xc0\x08$\x0bD\x03\xda+@'
tbag1008
(g1009
(I0
tS'b'
tRp1025
(I1
(I2
tg1012
I00
S'\xfe\x95D\x14@\x03F\xc0\xe6Qa\xa6Wx>\xc0'
tbag1008
(g1009
(I0
tS'b'
tRp1026
(I1
(I2
tg1012
I00
S'0\xadP3U\xc76@D\x1d\xe8aL\xf5B\xc0'
tbag1008
(g1009
(I0
tS'b'
tRp1027
(I1
(I2
tg1012
I00
S"@\xe1\x91\x86\x08K3@ $'\xfdQb(\xc0"
tbag1008
(g1009
(I0
tS'b'
tRp1028
(I1
(I2
tg1012
I00
S'\xd0\x08\x8d\x1fnb\x1b\xc0;\xff+\xd3\xb8r:\xc0'
tbag1008
(g1009
(I0
tS'b'
tRp1029
(I1
(I2
tg1012
I00
S'0\x02\xe6 \xe8S*@\xa0\xb9\xf2\x12\xd6H#@'
tbag1008
(g1009
(I0
tS'b'
tRp1030
(I1
(I2
tg1012
I00
S'\x14A\xf5\xff#\xcd#\xc0$\xba6\r^aC\xc0'
tbag1008
(g1009
(I0
tS'b'
tRp1031
(I1
(I2
tg1012
I00
S'\xbc\xb7-\x1f\xbaf \xc08\xa8\x9c?\x93\xe8(@'
tbag1008
(g1009
(I0
tS'b'
tRp1032
(I1
(I2
tg1012
I00
S'\xd0\xe0\xa6\x8dZ\x851@,\x1b0%\xc1p"\xc0'
tbag1008
(g1009
(I0
tS'b'
tRp1033
(I1
(I2
tg1012
I00
S'0\xab_\xdc\x7f#\x0b\xc0\xc8\xe5\xed\xe7\xbb\x19C@'
tbag1008
(g1009
(I0
tS'b'
tRp1034
(I1
(I2
tg1012
I00
S'\xb4\x91\xa8\xf3;n0@\x00\xc4\x9a\xc8e\xe1\x0e\xc0'
tbag1008
(g1009
(I0
tS'b'
tRp1035
(I1
(I2
tg1012
I00
S"\xc0\xbe\xbaP\x90{\x04@\xf0\x0c\xb3z\xa5\xac'@"
tbag1008
(g1009
(I0
tS'b'
tRp1036
(I1
(I2
tg1012
I00
S'\x0c]\xa7\x1c\r\xfe)\xc0\xfdmc\xb2\xc8\xd9C\xc0'
tbag1008
(g1009
(I0
tS'b'
tRp1037
(I1
(I2
tg1012
I00
S'\x90\xf8\xea\xb5m\xe3D@\x0b\x89|L\x85\xc6@\xc0'
tbag1008
(g1009
(I0
tS'b'
tRp1038
(I1
(I2
tg1012
I00
S'8\x07^\x1b\xb6\xff\x10@\x88\xe1,\xcb0Y\x16@'
tbag1008
(g1009
(I0
tS'b'
tRp1039
(I1
(I2
tg1012
I00
S"\xe4e\xdb\xebGD5@\x19\x1e\xe8'\xef+@\xc0"
tbag1008
(g1009
(I0
tS'b'
tRp1040
(I1
(I2
tg1012
I00
S'\xc0Q\xf7\x83m\xc0\x00\xc0\x94\xc5R\x824_C\xc0'
tbag1008
(g1009
(I0
tS'b'
tRp1041
(I1
(I2
tg1012
I00
S'(!\xd7\x14 \x02\x15\xc0\x00\x0cO\xce\xf9\xe1A@'
tbag1008
(g1009
(I0
tS'b'
tRp1042
(I1
(I2
tg1012
I00
S'\xbe\xacC{\xbfm;\xc0\xf8\x0b\xe9\xc9\xedj>\xc0'
tbag1008
(g1009
(I0
tS'b'
tRp1043
(I1
(I2
tg1012
I00
S'H;x\\V\xd9\x16@\xe8\x86\\FUM@@'
tbag1008
(g1009
(I0
tS'b'
tRp1044
(I1
(I2
tg1012
I00
S'\xb0B\xc2zq]\x06\xc0\x83\x07\xbdz\xa7\xfdC\xc0'
tbag1008
(g1009
(I0
tS'b'
tRp1045
(I1
(I2
tg1012
I00
S'\xb0\xf7=\x1c\xc5\xb8\x1b@0\x94k\xc9\xdcM\x04@'
tbag1008
(g1009
(I0
tS'b'
tRp1046
(I1
(I2
tg1012
I00
S'\xe0\x83\x02\xa4\xda^;@\x1c\x82\x06e\xe2\xb7:\xc0'
tbag1008
(g1009
(I0
tS'b'
tRp1047
(I1
(I2
tg1012
I00
S'x\x1bt=uV\x1b@\xd2E\xcc\x14\xae\x192\xc0'
tbag1008
(g1009
(I0
tS'b'
tRp1048
(I1
(I2
tg1012
I00
S'\xa0+\xd4p\xe4|\x1e\xc0|\xa8\xae\r\xb68A@'
tbag1008
(g1009
(I0
tS'b'
tRp1049
(I1
(I2
tg1012
I00
S'\x18\xc6Q&\xdb\x1c9@\xfc\xe8\xf6\x10g`A\xc0'
tbag1008
(g1009
(I0
tS'b'
tRp1050
(I1
(I2
tg1012
I00
S'\xe8\xdbF\x97\xd0\xd51@`\xd7\xf2\xc99h\x1a\xc0'
tbag1008
(g1009
(I0
tS'b'
tRp1051
(I1
(I2
tg1012
I00
S'\x80\xa0Z\xb5\xa8\xc2\xd1?\xf6\x9d\xc9\xa3\xceGD@'
tbag1008
(g1009
(I0
tS'b'
tRp1052
(I1
(I2
tg1012
I00
S'D\x1e\xe1\xbcX\xaa)@\x102h\xdd\x14N?@'
tbag1008
(g1009
(I0
tS'b'
tRp1053
(I1
(I2
tg1012
I00
S'\xfb9\xac\x9cz\x9e<\xc0t\x1bY\x06-\xac<\xc0'
tbag1008
(g1009
(I0
tS'b'
tRp1054
(I1
(I2
tg1012
I00
S"\x1a\xcd4%O\x86;\xc0\xcaK\xe4x'\x02=\xc0"
tbag1008
(g1009
(I0
tS'b'
tRp1055
(I1
(I2
tg1012
I00
S'\xc0\xe43M\x08\xc4\xee?\xfcCS\xe2\x15\x9dD@'
tbag1008
(g1009
(I0
tS'b'
tRp1056
(I1
(I2
tg1012
I00
S'\xb2\x99\xfd\x11-3D@\xda\x18{ZQ\xa9@\xc0'
tbag1008
(g1009
(I0
tS'b'
tRp1057
(I1
(I2
tg1012
I00
S'\x98\xd5\x7f\x9b8G\x1e@\x104\xa8\xbe$\xae;@'
tbag1008
(g1009
(I0
tS'b'
tRp1058
(I1
(I2
tg1012
I00
S'\xc0\xfd\xc5F\x1cw\xed?|\x0c\x88\x03\x0c~<@'
tbag1008
(g1009
(I0
tS'b'
tRp1059
(I1
(I2
tg1012
I00
S"C\x0c?\xc6\xff\xdcB\xc0M1'\x17(\xe3@\xc0"
tbag1008
(g1009
(I0
tS'b'
tRp1060
(I1
(I2
tg1012
I00
S'\xc0\xf8\x17\xd9\x96X\x1c\xc0\xfa\xc0\xc4\xc4cs<\xc0'
tbag1008
(g1009
(I0
tS'b'
tRp1061
(I1
(I2
tg1012
I00
S' \xaf\x89\x1f\x9c\x8c&@P&\xe2\xe2UG?@'
tbag1008
(g1009
(I0
tS'b'
tRp1062
(I1
(I2
tg1012
I00
S'\xac\xad\xc5\x19\x97\x93.\xc0g\x05[ v+A\xc0'
tbag1008
(g1009
(I0
tS'b'
tRp1063
(I1
(I2
tg1012
I00
S'\x12\xdd\xa4K"FE\xc0x\xf8\x18A\xccp@\xc0'
tbag1008
(g1009
(I0
tS'b'
tRp1064
(I1
(I2
tg1012
I00
S'@\x8e\xf6\xf5]\x94\x0e\xc0\xfc~\xa3r\x0eN>@'
tbag1008
(g1009
(I0
tS'b'
tRp1065
(I1
(I2
tg1012
I00
S'\xde\x15\x19\xc1>3F@\xa7-\x80!\xdaEB\xc0'
tbag1008
(g1009
(I0
tS'b'
tRp1066
(I1
(I2
tg1012
I00
S'\x885c\xb5=\x11\x11@\x9c>@\xb64\xef(\xc0'
tbag1008
(g1009
(I0
tS'b'
tRp1067
(I1
(I2
tg1012
I00
S'\x1c\x86\xa0m\x85] \xc0\xd2\xbe"q\x90o0\xc0'
tbag1008
(g1009
(I0
tS'b'
tRp1068
(I1
(I2
tg1012
I00
S"`K`'\x80\x9d\xf9?\xb0\xe4U\xd9\xe0\xa5\n\xc0"
tbag1008
(g1009
(I0
tS'b'
tRp1069
(I1
(I2
tg1012
I00
S'\xd8sO(\\\x88F@\xfd\xf14\x18\xca\x89A\xc0'
tbag1008
(g1009
(I0
tS'b'
tRp1070
(I1
(I2
tg1012
I00
S'\x18E\x85\xb3W\xc6\x10\xc0\xf2i\xc2\xe8+\xa22\xc0'
tbag1008
(g1009
(I0
tS'b'
tRp1071
(I1
(I2
tg1012
I00
S'\x00\xad\x1f+\x9c.:@\xb1\xef\xc8\x03\xd7\xe5B\xc0'
tbag1008
(g1009
(I0
tS'b'
tRp1072
(I1
(I2
tg1012
I00
S'\xa0\xe3j\x01\xe1\x83\xf9\xbfH\xc2k\x85?D+@'
tbag1008
(g1009
(I0
tS'b'
tRp1073
(I1
(I2
tg1012
I00
S'@s\xbd\x97\xacF\xe4\xbf\xd0\x97\x02\xac\xc2\xa9E@'
tbag1008
(g1009
(I0
tS'b'
tRp1074
(I1
(I2
tg1012
I00
S'\x18\xf3`\xd4\x11\x83(@\xfawGW\xcc\xd3<\xc0'
tbag1008
(g1009
(I0
tS'b'
tRp1075
(I1
(I2
tg1012
I00
S"\xc4'M\xc9\x15\x7f2@\xc2\xd9\xa1\xc8\x10\xc00\xc0"
tbag1008
(g1009
(I0
tS'b'
tRp1076
(I1
(I2
tg1012
I00
S'\x005\xc3\xb0\xbc\xe6\xea?\x9f\x1c\x8e;\xc6f5\xc0'
tbag1008
(g1009
(I0
tS'b'
tRp1077
(I1
(I2
tg1012
I00
S'\x90\x9d`/\xbd\xfe\x1e\xc0d\x04\x9a)\xad\xdf+\xc0'
tbag1008
(g1009
(I0
tS'b'
tRp1078
(I1
(I2
tg1012
I00
S'\xe0_\xf1\x11\xcd~\x01@\xf0\xdf\x9c\xd0\xcb\x19\x17@'
tbag1008
(g1009
(I0
tS'b'
tRp1079
(I1
(I2
tg1012
I00
S"\xb4\x17\xdfc\xba\x0c'@\x90Vc-N\t\x18@"
tbag1008
(g1009
(I0
tS'b'
tRp1080
(I1
(I2
tg1012
I00
S'\x90\xbe\xe1\x8b\xab\x10\x1a@"G\xa6\xb8G\xb0B\xc0'
tbag1008
(g1009
(I0
tS'b'
tRp1081
(I1
(I2
tg1012
I00
S'\x90\xbap\x9eXG\x11\xc0\x80\xa0\xfbX\xc6\xf2\x0f@'
tbag1008
(g1009
(I0
tS'b'
tRp1082
(I1
(I2
tg1012
I00
S'\xa0\x92\x9b\xf36\xabE@\xd4\r\xea\xd0\x0c\xc4A\xc0'
tbag1008
(g1009
(I0
tS'b'
tRp1083
(I1
(I2
tg1012
I00
S'\x9c\x069\xa8\x8b\xeeG\xc0\xbd\xb6z\xcab\xcb<\xc0'
tbag1008
(g1009
(I0
tS'b'
tRp1084
(I1
(I2
tg1012
I00
S'\xf4\xa7~\xc5\xa0\xfb3\xc05\xd7g\x80\xf8\xc2@\xc0'
tbag1008
(g1009
(I0
tS'b'
tRp1085
(I1
(I2
tg1012
I00
S'\xa8\xc6Pb\xd2F!@8\x8d\xa1\x80\xec\x9d\x16\xc0'
tbag1008
(g1009
(I0
tS'b'
tRp1086
(I1
(I2
tg1012
I00
S'\xf8\xa5\x16\xc8R\xc5#@4\x94\xc8\x11\xf8\x835@'
tbag1008
(g1009
(I0
tS'b'
tRp1087
(I1
(I2
tg1012
I00
S'X|\xd2W\xf0\xce\x14\xc0p\xa2\xc4\xa0o\xc7.@'
tbag1008
(g1009
(I0
tS'b'
tRp1088
(I1
(I2
tg1012
I00
S'"\x06q\xedF\xd2:\xc0G\xf1\xb9aM\xf8C\xc0'
tbag1008
(g1009
(I0
tS'b'
tRp1089
(I1
(I2
tg1012
I00
S'\x90j\x0c\xf8\xdax\x16@$,S$\xf0\xd97\xc0'
tbag1008
(g1009
(I0
tS'b'
tRp1090
(I1
(I2
tg1012
I00
S'8D\xf1\xea\xa0\x9f3@\xa8_!\x9b\xf7-3@'
tbag1008
(g1009
(I0
tS'b'
tRp1091
(I1
(I2
tg1012
I00
S'\xdcE\xbe\x9d"=*@`\x170\xf3\x85\xbcC\xc0'
tbag1008
(g1009
(I0
tS'b'
tRp1092
(I1
(I2
tg1012
I00
S'@\xb5\xb4]\x92\xab$@h\x7f\x83m\xaa\xa31@'
tbag1008
(g1009
(I0
tS'b'
tRp1093
(I1
(I2
tg1012
I00
S'\xc0|!\xcc\x85!+@n\xf4\xfb\xc9:\xd1E@'
tbag1008
(g1009
(I0
tS'b'
tRp1094
(I1
(I2
tg1012
I00
S'@.(\xea\xffY @\xe0\xa7\x00\x92\x90|&\xc0'
tbag1008
(g1009
(I0
tS'b'
tRp1095
(I1
(I2
tg1012
I00
S'\x00\x11\x0e\xe0\xef\x9a\x1b\xc0X\xe1\xe6\\\x8c\xdbG@'
tbag1008
(g1009
(I0
tS'b'
tRp1096
(I1
(I2
tg1012
I00
S'\xce\xcf[\x83\xa9\xfb=\xc05\xc7\xab?i\t:\xc0'
tbag1008
(g1009
(I0
tS'b'
tRp1097
(I1
(I2
tg1012
I00
S'X\xda\xcb\x1ff\xf4\x17\xc0\xb8L\xbe\xb5\xead+\xc0'
tbag1008
(g1009
(I0
tS'b'
tRp1098
(I1
(I2
tg1012
I00
S'\x98\x11\xc8\x87\x80\x879@Bg\xf0U.\xdbB\xc0'
tbag1008
(g1009
(I0
tS'b'
tRp1099
(I1
(I2
tg1012
I00
S'@\xe5\x03\xb4\x0c\xf2\xf7?\n\xdb\xe5\xdb+\xb90\xc0'
tbag1008
(g1009
(I0
tS'b'
tRp1100
(I1
(I2
tg1012
I00
S'L|\xdb\xf0/\xf0=@\x1e\xbe\x8b\x99\xfcv@\xc0'
tbag1008
(g1009
(I0
tS'b'
tRp1101
(I1
(I2
tg1012
I00
S'@\xd3\xd4\xc5r\x85\xe9\xbf\xe5ju\xc6>\xd92\xc0'
tbag1008
(g1009
(I0
tS'b'
tRp1102
(I1
(I2
tg1012
I00
S'\xf8\xa1+f[\xe4/@ >\x88\x1b\xcc\x93)\xc0'
tbag1008
(g1009
(I0
tS'b'
tRp1103
(I1
(I2
tg1012
I00
S'\x10\xdf\tv\xea\xc8\x12@\x90\xd3=\xbao\xe1/\xc0'
tbag1008
(g1009
(I0
tS'b'
tRp1104
(I1
(I2
tg1012
I00
S'\\Y>y\xc8H$@,\xf1\xf9\xb6\xa2\x01E@'
tbag1008
(g1009
(I0
tS'b'
tRp1105
(I1
(I2
tg1012
I00
S'@5\xfc\xf2\xb6-\x1f\xc0$.\xbc\x00\x9a\xe6.\xc0'
tbag1008
(g1009
(I0
tS'b'
tRp1106
(I1
(I2
tg1012
I00
S'\xc0\x8d\xbd=\x8c\x80\x17@\xdc\xccF\xadSB3@'
tbag1008
(g1009
(I0
tS'b'
tRp1107
(I1
(I2
tg1012
I00
S'`\xb8\x19:gF\xfd\xbf\x80\x08\xe5\xbd\xd5\x1f\x04@'
tbag1008
(g1009
(I0
tS'b'
tRp1108
(I1
(I2
tg1012
I00
S'\x101\xc4#\xcbZ\x1b@$")\xa9j\xa9 \xc0'
tbag1008
(g1009
(I0
tS'b'
tRp1109
(I1
(I2
tg1012
I00
S'\xf8\xa7\x07J88%@\x1c \xa0 \xad\xa8 \xc0'
tbag1008
(g1009
(I0
tS'b'
tRp1110
(I1
(I2
tg1012
I00
S'\x105$\xabD<\x14\xc07\xca\x9a\xf0\xb45A\xc0'
tbag1008
(g1009
(I0
tS'b'
tRp1111
(I1
(I2
tg1012
I00
S'@\x0b,\xda>\x18\x12@\x94\x19\xd1\x824\xee/\xc0'
tbag1008
(g1009
(I0
tS'b'
tRp1112
(I1
(I2
tg1012
I00
S'\x18\x88p\xbb\xfe;4@br2\x1c-\xa6;\xc0'
tbag1008
(g1009
(I0
tS'b'
tRp1113
(I1
(I2
tg1012
I00
S'P\n\x95\x11\x9f/\x17\xc0n9\x8e\x148\x14@\xc0'
tbag1008
(g1009
(I0
tS'b'
tRp1114
(I1
(I2
tg1012
I00
S"\x12^\xd5(\xc50A\xc0 \xdf'QJ(C\xc0"
tbag1008
(g1009
(I0
tS'b'
tRp1115
(I1
(I2
tg1012
I00
S'\x08\xc2\xe4\xf2\xa2\x103@t\x14a\xdc\xd3;2@'
tbag1008
(g1009
(I0
tS'b'
tRp1116
(I1
(I2
tg1012
I00
S'`X\xb3\x9c\xc0X\x00\xc0|X\x98V\xe1\x1f@\xc0'
tbag1008
(g1009
(I0
tS'b'
tRp1117
(I1
(I2
tg1012
I00
S'\\\xcfP\xab\xf9\xb82@\xf60\xd2\xa2C\xe00\xc0'
tbag1008
(g1009
(I0
tS'b'
tRp1118
(I1
(I2
tg1012
I00
S'\xf2\xcf\xd4b\xe1[:\xc03\x11\xaed\xf4\xd4:\xc0'
tbag1008
(g1009
(I0
tS'b'
tRp1119
(I1
(I2
tg1012
I00
S'\x10\xc2\x9f\x7fV\xba\x10\xc0tI\x82\x10\xd4\n5\xc0'
tbag1008
(g1009
(I0
tS'b'
tRp1120
(I1
(I2
tg1012
I00
S'\xc2\xf5n!s\xcd@@J(\xbc7r\x9aC\xc0'
tbag1008
(g1009
(I0
tS'b'
tRp1121
(I1
(I2
tg1012
I00
S'\xc0Mq\xec\xf7v\t@\xca\xcf\x1bu\xc1<C\xc0'
tbag1008
(g1009
(I0
tS'b'
tRp1122
(I1
(I2
tg1012
I00
S'0\xa5\xf2\xee\x15;\x12\xc0\x8c\xf4\xa5\xbb\xf7\xf9$\xc0'
tbag1008
(g1009
(I0
tS'b'
tRp1123
(I1
(I2
tg1012
I00
S'\x81\xbf#\x13\xe9\x0bG\xc0\xae\rL\x96\x0f-=\xc0'
tbag1008
(g1009
(I0
tS'b'
tRp1124
(I1
(I2
tg1012
I00
S'\x01\x19\xa8g\xaccH\xc0j\xd2\x84<l:;\xc0'
tbag1008
(g1009
(I0
tS'b'
tRp1125
(I1
(I2
tg1012
I00
S'\x88r\x1a\xfb{\xdf,@\x86\xb1\x04\xad\xc24C\xc0'
tbag1008
(g1009
(I0
tS'b'
tRp1126
(I1
(I2
tg1012
I00
S'\xa0\xa5\xba\xdf;\xf5\x17\xc0.\xb8\xdf\x99\xa6\x7f4\xc0'
tbag1008
(g1009
(I0
tS'b'
tRp1127
(I1
(I2
tg1012
I00
S'M\r\x19\xfe\xb7\x07D\xc0N\xcdO5\x1ah@\xc0'
tbag1008
(g1009
(I0
tS'b'
tRp1128
(I1
(I2
tg1012
I00
S't\x81\x0c_\xc0\xadA@"\xee\xbbq\xe9*B\xc0'
tbag1008
(g1009
(I0
tS'b'
tRp1129
(I1
(I2
tg1012
I00
S"\x04\tD\x1fY\xe9'@\xe0WL\x96'\xfd\x1a\xc0"
tbag1008
(g1009
(I0
tS'b'
tRp1130
(I1
(I2
tg1012
I00
S"P\xdd\xb3\xaa\x0f\xd3\x17\xc0\xc0!\xb7C\x14\xe1'\xc0"
tbag1008
(g1009
(I0
tS'b'
tRp1131
(I1
(I2
tg1012
I00
S'\\\xfdP\xc2\xaeQ2\xc0\x90?G(\xbd\xd9B\xc0'
tbag1008
(g1009
(I0
tS'b'
tRp1132
(I1
(I2
tg1012
I00
S'\xa8\r\x9f\xbd\xbf\x03)@\x80_\xf2\xc5\xffd\xd5\xbf'
tbag1008
(g1009
(I0
tS'b'
tRp1133
(I1
(I2
tg1012
I00
S"\xd0m\\\x16'D+@\x0c\xd1A6\x93\x1bB@"
tbag1008
(g1009
(I0
tS'b'
tRp1134
(I1
(I2
tg1012
I00
S'.\x12`\xbajMA\xc0\xe9\x85\x01|\xd1\x94:\xc0'
tbag1008
(g1009
(I0
tS'b'
tRp1135
(I1
(I2
tg1012
I00
S'8\xc1U\x18\xb8\xf3/@,\x8990Zt>\xc0'
tbag1008
(g1009
(I0
tS'b'
tRp1136
(I1
(I2
tg1012
I00
S'{\x81]\x1bb\xb4@\xc0\x91\xb1\xc9\xf0Pi@\xc0'
tbag1008
(g1009
(I0
tS'b'
tRp1137
(I1
(I2
tg1012
I00
S'\xb0\xf4\x8f\xc9\x0b\x15\x0c@\xe4\xf1\rV\xc9\xc6A\xc0'
tbag1008
(g1009
(I0
tS'b'
tRp1138
(I1
(I2
tg1012
I00
S'\x94\x13\x7f\xe2W\xec+@\xecq@\xb0IX$@'
tbag1008
(g1009
(I0
tS'b'
tRp1139
(I1
(I2
tg1012
I00
S'\x88|\x1d\xcc\'\x90.@\x80\x1c\x87=\xf3"\x0e@'
tbag1008
(g1009
(I0
tS'b'
tRp1140
(I1
(I2
tg1012
I00
S'\xfcOG8\xaf\xf82@\xd2\x135\x12\x8a\x0eG@'
tbag1008
(g1009
(I0
tS'b'
tRp1141
(I1
(I2
tg1012
I00
S'@\xcb\x1e\xfb\x14\xef\x17@\x80\xd6A\n\x1a\xc1\xf6\xbf'
tbag1008
(g1009
(I0
tS'b'
tRp1142
(I1
(I2
tg1012
I00
S't\xfe\xf8\xb1[b!@\xa0\xef\x909wh\x0e@'
tbag1008
(g1009
(I0
tS'b'
tRp1143
(I1
(I2
tg1012
I00
S'\x08\x84,m~y\x1c@\xa1w\xa9\xab\xf8\x05?\xc0'
tbag1008
(g1009
(I0
tS'b'
tRp1144
(I1
(I2
tg1012
I00
S'\x98\x91?\xbf\xb90>\xc0\x12\xd2T\xf5|s9\xc0'
tbag1008
(g1009
(I0
tS'b'
tRp1145
(I1
(I2
tg1012
I00
S'\xe4\xf3j\x82(b)\xc0\x8fh\x92E\x168?\xc0'
tbag1008
(g1009
(I0
tS'b'
tRp1146
(I1
(I2
tg1012
I00
S'\xd0\xacZ\xb7\xec\xb23@\x90v\xb3.\xd4\xad\x08\xc0'
tbag1008
(g1009
(I0
tS'b'
tRp1147
(I1
(I2
tg1012
I00
S'\xb8\xb5\xf7{\xfd\xda,@`\xa0\xbcg\x1as8@'
tbag1008
(g1009
(I0
tS'b'
tRp1148
(I1
(I2
tg1012
I00
S'd\x89\xefA\x14 0@\xd4(\x89\x180x8@'
tbag1008
(g1009
(I0
tS'b'
tRp1149
(I1
(I2
tg1012
I00
S'$y\xc1,\xdb\xc4"@\xa1.\x86\x1b\r\x8fA\xc0'
tbag1008
(g1009
(I0
tS'b'
tRp1150
(I1
(I2
tg1012
I00
S't\xf73\x7f\x1f:1@\x00\x06\xf4\xb6k4\xc8\xbf'
tbag1008
(g1009
(I0
tS'b'
tRp1151
(I1
(I2
tg1012
I00
S'`/\xc7\x9e\xb7\x08\xfb?\xc6=\xa1\x19Dz@@'
tbag1008
(g1009
(I0
tS'b'
tRp1152
(I1
(I2
tg1012
I00
S'\xbc\x9a{[\x8ao(@\xbcjKL\xf1\xa3+\xc0'
tbag1008
(g1009
(I0
tS'b'
tRp1153
(I1
(I2
tg1012
I00
S'\x19>\x1d\xe9.6B\xc0x\x9c\x06n\x0c\xd7@\xc0'
tbag1008
(g1009
(I0
tS'b'
tRp1154
(I1
(I2
tg1012
I00
S'X\x15\xb7\xaf\xd300@d\x04\x1c\x17:\x0e;@'
tbag1008
(g1009
(I0
tS'b'
tRp1155
(I1
(I2
tg1012
I00
S'P\xbdE\x99|\xdf @\x85\x11\x86\xd4\x83\x047\xc0'
tbag1008
(g1009
(I0
tS'b'
tRp1156
(I1
(I2
tg1012
I00
S'@l7\xcfCKE\xc0\xa2y$WNLB\xc0'
tbag1008
(g1009
(I0
tS'b'
tRp1157
(I1
(I2
tg1012
I00
S'\xb0\x18\xb62b\xf3\n\xc0\xe0\xc7\x85\xcc\xe6JF@'
tbag1008
(g1009
(I0
tS'b'
tRp1158
(I1
(I2
tg1012
I00
S'\xd0$b\xd8GX8@\xe8\xef\xdb\x8f\rG>\xc0'
tbag1008
(g1009
(I0
tS'b'
tRp1159
(I1
(I2
tg1012
I00
S'\xd8@\xbe\xb8{\xaf=\xc0x\x98B\xce\xd7\xbeC\xc0'
tbag1008
(g1009
(I0
tS'b'
tRp1160
(I1
(I2
tg1012
I00
S'\x00\x0e\x88\xdf\x9bS\xfc?\xd2K3\x15@]A@'
tbag1008
(g1009
(I0
tS'b'
tRp1161
(I1
(I2
tg1012
I00
S'\xf4\xcd\rXw\xd01@h\xb3\x10\xc2\r\xf44@'
tbag1008
(g1009
(I0
tS'b'
tRp1162
(I1
(I2
tg1012
I00
S'\xe8kF\x88\x12\xdeD\xc0\xe9\x1e\x1cD\x17\xf6:\xc0'
tbag1008
(g1009
(I0
tS'b'
tRp1163
(I1
(I2
tg1012
I00
S'\xc0\x80\x00\xf3\x8dR\xf4?\x91|?\xb3\xb2\x05?\xc0'
tbag1008
(g1009
(I0
tS'b'
tRp1164
(I1
(I2
tg1012
I00
S'\xb8\xc3\xd2\x1fi\xa1*@7S\xc8\xae\x8b\xa1?\xc0'
tbag1008
(g1009
(I0
tS'b'
tRp1165
(I1
(I2
tg1012
I00
S'\xc0\xaaF<D\xb2\t\xc0 -\xa5rS4\x1e@'
tbag1008
(g1009
(I0
tS'b'
tRp1166
(I1
(I2
tg1012
I00
S'$f\xd8=\x88\xebA@\xcd\xdeA\\Q\xe6C\xc0'
tbag1008
(g1009
(I0
tS'b'
tRp1167
(I1
(I2
tg1012
I00
S"\xcd'\x1d\xfdO\xcc;\xc0\x93z\x1cy\xa5\xaaC\xc0"
tbag1008
(g1009
(I0
tS'b'
tRp1168
(I1
(I2
tg1012
I00
S'\xa0L\x0e\xabk\x00\x14@\xe0\xedHth\xd4>@'
tbag1008
(g1009
(I0
tS'b'
tRp1169
(I1
(I2
tg1012
I00
S'`\xd3^\xf4G~D\xc0r,\x8d3\xc8\xe99\xc0'
tbag1008
(g1009
(I0
tS'b'
tRp1170
(I1
(I2
tg1012
I00
S'"k\xa0\xb3AG?\xc0So\xbd\xa5\xb6\xd89\xc0'
tbag1008
(g1009
(I0
tS'b'
tRp1171
(I1
(I2
tg1012
I00
S'\xa0\xc3z\xc9\x85\xcc#\xc0\x1c\xc3&T<\xf1C@'
tbag1008
(g1009
(I0
tS'b'
tRp1172
(I1
(I2
tg1012
I00
S'\x00\xadw\xd89\x1f\x1e@\n\xdd\x82\xbc"lC@'
tbag1008
(g1009
(I0
tS'b'
tRp1173
(I1
(I2
tg1012
I00
S'\xc8\xf3\x9dX\xd6\xa2\x1f@P\xacxWIOB@'
tbag1008
(g1009
(I0
tS'b'
tRp1174
(I1
(I2
tg1012
I00
S'\xf8\x87\xbf\xa7e\xcc3@\x08\xab\x98\xef\t\xafC\xc0'
tbag1008
(g1009
(I0
tS'b'
tRp1175
(I1
(I2
tg1012
I00
S'\x98DM\xe4\xb6\xbb\x19\xc0\xa6+\xba\xfa\xa3\xf5A@'
tbag1008
(g1009
(I0
tS'b'
tRp1176
(I1
(I2
tg1012
I00
S'H\x9f\xff\x1d\x12\xe3\x19\xc0zR\xf0\x9d\xf7yA@'
tbag1008
(g1009
(I0
tS'b'
tRp1177
(I1
(I2
tg1012
I00
S'\xac\x01\xea\x9eR\xcc/\xc04m\xe8\x0bY\xed@\xc0'
tbag1008
(g1009
(I0
tS'b'
tRp1178
(I1
(I2
tg1012
I00
S'\x00\xd3\xbc\xcd *\xfa?\x06\x05\x05\xa9\xea\xcd4\xc0'
tbag1008
(g1009
(I0
tS'b'
tRp1179
(I1
(I2
tg1012
I00
S'\x00\x9eD;&3\xca\xbf\xe8\xce\xe2\xb2\xf8\x05\x1f\xc0'
tbag1008
(g1009
(I0
tS'b'
tRp1180
(I1
(I2
tg1012
I00
S'0\x19\xff\xe3Er-@j\x8f}\xcc\xccc>\xc0'
tbag1008
(g1009
(I0
tS'b'
tRp1181
(I1
(I2
tg1012
I00
S'`}\xae\xbc\xe6\xaf\x15\xc0\xbc\xa5\x95\xfe\x8d\xed"\xc0'
tbag1008
(g1009
(I0
tS'b'
tRp1182
(I1
(I2
tg1012
I00
S'\xf4\x8dB\xafs\\3@\xae\xe8\xf6\x12\xf8:D@'
tbag1008
(g1009
(I0
tS'b'
tRp1183
(I1
(I2
tg1012
I00
S'\xb8\xfd\xc9\xf5\xdb\xe5\x1b@\xb8\xdb\xef\xc9\xed9\x13\xc0'
tbag1008
(g1009
(I0
tS'b'
tRp1184
(I1
(I2
tg1012
I00
S'\xe8\xf4\nv\xb6\x9f0@(\xad\xee\xc0\xe0\xb8G@'
tbag1008
(g1009
(I0
tS'b'
tRp1185
(I1
(I2
tg1012
I00
S'\xc8\x13\x8a\xf3z\r\x10\xc0d7\x17qG\xa9(\xc0'
tbag1008
(g1009
(I0
tS'b'
tRp1186
(I1
(I2
tg1012
I00
S"\xdc\x1c\xc5\x12M\xde%\xc0\x80\x9f\xff\x02'\xdd9\xc0"
tbag1008
(g1009
(I0
tS'b'
tRp1187
(I1
(I2
tg1012
I00
S'\xdc\xdc\xb2\x01\xf3P$@\xc8>\x0c\x88\x80\xcaC@'
tbag1008
(g1009
(I0
tS'b'
tRp1188
(I1
(I2
tg1012
I00
S'\xcf\xf3\xf9\x02N\x06?\xc01\x82/\x08\xcf{;\xc0'
tbag1008
(g1009
(I0
tS'b'
tRp1189
(I1
(I2
tg1012
I00
S'\x18Y\x1a4\x85o!\xc0j\x89iDD\x04F@'
tbag1008
(g1009
(I0
tS'b'
tRp1190
(I1
(I2
tg1012
I00
S'\xdc~\xb7\xafX\xe5=@\x95k&p\x02\xf9C\xc0'
tbag1008
(g1009
(I0
tS'b'
tRp1191
(I1
(I2
tg1012
I00
S'\xf0\x13m\xd6\x02\x96;\xc0\x89as\xa2\x07\xe6:\xc0'
tbag1008
(g1009
(I0
tS'b'
tRp1192
(I1
(I2
tg1012
I00
S'\x18\x83\xb2AC\x913@\xc2"\xab\xb8\xef\x959\xc0'
tbag1008
(g1009
(I0
tS'b'
tRp1193
(I1
(I2
tg1012
I00
S" O$y\x1d\x9a\x05@\x00\xba\xc3\xe9%y'@"
tbag1008
(g1009
(I0
tS'b'
tRp1194
(I1
(I2
tg1012
I00
S'\xe4\x12\n\x80\xb1\xca)@\x01\xff\xde\x14\x97\x1a8\xc0'
tbag1008
(g1009
(I0
tS'b'
tRp1195
(I1
(I2
tg1012
I00
S'\x84M=/\x87\xad,\xc0\x19+\x18\xa9\xa1wA\xc0'
tbag1008
(g1009
(I0
tS'b'
tRp1196
(I1
(I2
tg1012
I00
S'\x00z\x96\xd5w\xb3\x10\xc0\xd6*\x07\x81\xd2}0\xc0'
tbag1008
(g1009
(I0
tS'b'
tRp1197
(I1
(I2
tg1012
I00
S'V\x87\x10\xd7\x8e\x00F\xc0\xd1\xed\x1c\xe1>sA\xc0'
tbag1008
(g1009
(I0
tS'b'
tRp1198
(I1
(I2
tg1012
I00
S'p\xa1\xe8\x1al\xb56@\x98\xd4\x16q[8B\xc0'
tbag1008
(g1009
(I0
tS'b'
tRp1199
(I1
(I2
tg1012
I00
S'\xcf4\x82\x10\xa8\xe28\xc0G\xc5\x0b\xa9R\x199\xc0'
tbag1008
(g1009
(I0
tS'b'
tRp1200
(I1
(I2
tg1012
I00
S'\xa0VZ\xa5\xd8\x13\x0b\xc0\\\xd1Fd><@@'
tbag1008
(g1009
(I0
tS'b'
tRp1201
(I1
(I2
tg1012
I00
S"\xf8\xf9\xa6v\xf2\xd21@\x84\x97-\x05\x8b\x8f'\xc0"
tbag1008
(g1009
(I0
tS'b'
tRp1202
(I1
(I2
tg1012
I00
S'\xd4L\xf21,\x843@\xb0\xcd\xfe\x85\x17\xc8\x06@'
tbag1008
(g1009
(I0
tS'b'
tRp1203
(I1
(I2
tg1012
I00
S'\x9e\\\x90\x88\x93\x82H\xc0B\xee\xbb\x9f\x83\xf5B\xc0'
tbag1008
(g1009
(I0
tS'b'
tRp1204
(I1
(I2
tg1012
I00
S'@ td\xfa\xa3\x15\xc0\xac\x82=\xb9\xe9\xd5+@'
tbag1008
(g1009
(I0
tS'b'
tRp1205
(I1
(I2
tg1012
I00
S'\x98g\xefp,\x80.@\xc0P9\xedd\x807@'
tbag1008
(g1009
(I0
tS'b'
tRp1206
(I1
(I2
tg1012
I00
S' \x90\xc2\xe4\xfc\xdc\x12\xc0\xb8\x94\x03\xe1\x89\xa4;@'
tbag1008
(g1009
(I0
tS'b'
tRp1207
(I1
(I2
tg1012
I00
S'hH\x9a\xaaBo\x19\xc0<\xd7\xac\x97,|3@'
tbag1008
(g1009
(I0
tS'b'
tRp1208
(I1
(I2
tg1012
I00
S'$\x98\x04\xb0\xe8\xda!@\\\xb1q\x9czX1@'
tbag1008
(g1009
(I0
tS'b'
tRp1209
(I1
(I2
tg1012
I00
S"<\xd4\xeb@\xc0\x08'\xc0\xd9\xdbS\xde\xf8\xa8:\xc0"
tbag1008
(g1009
(I0
tS'b'
tRp1210
(I1
(I2
tg1012
I00
S'\xf4@,\xec\xfes#\xc0T\xf12h\xf5h2@'
tbag1008
(g1009
(I0
tS'b'
tRp1211
(I1
(I2
tg1012
I00
S'\xc0\xc3;\xb8\x00\xf7\t\xc0D\x98\x1cR\xd1\x18&@'
tbag1008
(g1009
(I0
tS'b'
tRp1212
(I1
(I2
tg1012
I00
S'\xc87\xe8\x85N\xe1\x13\xc0\xa0q\x955=\x8b8@'
tbag1008
(g1009
(I0
tS'b'
tRp1213
(I1
(I2
tg1012
I00
S'\xc0\r\x98\x85yk\xf8\xbf8\xd7\xa4\xdf@!+@'
tbag1008
(g1009
(I0
tS'b'
tRp1214
(I1
(I2
tg1012
I00
S'\x80+T\xb9<\xac\x18@\x00\x1cJ\xb7`\xe4$@'
tbag1008
(g1009
(I0
tS'b'
tRp1215
(I1
(I2
tg1012
I00
S'\x90\xd7\xbf\x7f\xb9\x93\x06@\x00\x00Q\xbd1\x88g?'
tbag1008
(g1009
(I0
tS'b'
tRp1216
(I1
(I2
tg1012
I00
S'\xe8\xa0\x81\xd0(d#@<[\xb9\xbd\x94X)\xc0'
tbag1008
(g1009
(I0
tS'b'
tRp1217
(I1
(I2
tg1012
I00
S'\xac\xca\xdc\xe3\x8e\xb03@\xc2\xcb\xa2Y\xb6\xe9@@'
tbag1008
(g1009
(I0
tS'b'
tRp1218
(I1
(I2
tg1012
I00
S'\x84D\x98*\xd4?$@\x88\xc0\xda\xea\x86\x16G@'
tbag1008
(g1009
(I0
tS'b'
tRp1219
(I1
(I2
tg1012
I00
S'\x98\xc3\xc8\x03mJ\x16@\x00\xad\xf96L\xfb\xd7?'
tbag1008
(g1009
(I0
tS'b'
tRp1220
(I1
(I2
tg1012
I00
S'|\xf1\x1a\x847P \xc0\xf0]\x11\xfcT\x15/@'
tbag1008
(g1009
(I0
tS'b'
tRp1221
(I1
(I2
tg1012
I00
S"\xe4\xaaJ\xe9d >@'\xb1\x11}\x17{9\xc0"
tbag1008
(g1009
(I0
tS'b'
tRp1222
(I1
(I2
tg1012
I00
S'Db\xc2%\x9e\xe73@x\x12\xe2\x10w\x0c9@'
tbag1008
(g1009
(I0
tS'b'
tRp1223
(I1
(I2
tg1012
I00
S'\xe8i\xa9\xa0$!\x1c\xc0\x01\xd0\x9a\x1a\xe1)9\xc0'
tbag1008
(g1009
(I0
tS'b'
tRp1224
(I1
(I2
tg1012
I00
S'\xc0\xde\xda\xf8\xcf\xbc\x10\xc0\xe0\x95\xe2e\xc7\x9c?@'
tbag1008
(g1009
(I0
tS'b'
tRp1225
(I1
(I2
tg1012
I00
S' \xdd7r6j\xf0?2I\xc9\x08#\xe9E@'
tbag1008
(g1009
(I0
tS'b'
tRp1226
(I1
(I2
tg1012
I00
S'\xa8\x88!m\x92\x1e0@P\xd2\xef\xa0\xbaC\x0c@'
tbag1008
(g1009
(I0
tS'b'
tRp1227
(I1
(I2
tg1012
I00
S'%\xee\xfd\x03\x1b\xd19\xc0\x04\xe7\xd1\xc5&\xf0=\xc0'
tbag1008
(g1009
(I0
tS'b'
tRp1228
(I1
(I2
tg1012
I00
S'0\x9c\xd2\x82\xcd}\x12\xc0\xef\xaeg\xf0\x85\xb8?\xc0'
tbag1008
(g1009
(I0
tS'b'
tRp1229
(I1
(I2
tg1012
I00
S'\xc0^P\xe3\x93\xcb\x07\xc0\xec/d\x1e\x88~)\xc0'
tbag1008
(g1009
(I0
tS'b'
tRp1230
(I1
(I2
tg1012
I00
S'\xc0\n\xe9TPo\xf2?\x7f\x05w\x12\x1247\xc0'
tbag1008
(g1009
(I0
tS'b'
tRp1231
(I1
(I2
tg1012
I00
S'L\xd4\xbc\xd2)\x0c)@T"Va\x17"5@'
tbag1008
(g1009
(I0
tS'b'
tRp1232
(I1
(I2
tg1012
I00
S'\xe0\xf4\xc0F\xac{?@\xa6\xf1CB]\xd1>\xc0'
tbag1008
(g1009
(I0
tS'b'
tRp1233
(I1
(I2
tg1012
I00
S'\xc0\x1d\xdb\x7f\xdf\x18\x02@p\x96\xec\xe8\x0e\xe0\x19\xc0'
tbag1008
(g1009
(I0
tS'b'
tRp1234
(I1
(I2
tg1012
I00
S'\x00F\x93\xeac\xf3\xd4?\x16\xc2"\xcc*\x04A\xc0'
tbag1008
(g1009
(I0
tS'b'
tRp1235
(I1
(I2
tg1012
I00
S'\x90:\x89[%\xdc)@)\\\x92b\x8b\r6\xc0'
tbag1008
(g1009
(I0
tS'b'
tRp1236
(I1
(I2
tg1012
I00
S'4C\xce7Y\x8f3@\xa0\xcf\xef\x91_\xcd>@'
tbag1008
(g1009
(I0
tS'b'
tRp1237
(I1
(I2
tg1012
I00
S'\x8c\xaeq\x9c\x07PF@"SE\xfb[\xb1B\xc0'
tbag1008
(g1009
(I0
tS'b'
tRp1238
(I1
(I2
tg1012
I00
S'p-\xa6\t\x0c\xdc @\xfc\xa1\x87~\xfd\x8d @'
tbag1008
(g1009
(I0
tS'b'
tRp1239
(I1
(I2
tg1012
I00
S'\xd0\xdd\\\t\xcc\xd7\x15\xc0\x04\xb1\x15!\xd9\xe6%@'
tbag1008
(g1009
(I0
tS'b'
tRp1240
(I1
(I2
tg1012
I00
S'0\xd0\\QF*\x07\xc0\\5\xe02\x1d\xcf3@'
tbag1008
(g1009
(I0
tS'b'
tRp1241
(I1
(I2
tg1012
I00
S'F\x14\xf1\xc1d\xaaE\xc0\xd2>\xff\xb5\x0cIA\xc0'
tbag1008
(g1009
(I0
tS'b'
tRp1242
(I1
(I2
tg1012
I00
S'\xf0\xa1\x1c\x1an\xf1\t@ X\xde#\xbei\t\xc0'
tbag1008
(g1009
(I0
tS'b'
tRp1243
(I1
(I2
tg1012
I00
S'`\x92\x9f\xc6\x81\x83\xf1\xbf\xb4<n y\xf0<@'
tbag1008
(g1009
(I0
tS'b'
tRp1244
(I1
(I2
tg1012
I00
S'\x1c\x07Rn\xf8\xed+@*\x936\xbe\x9e\xf9H@'
tbag1008
(g1009
(I0
tS'b'
tRp1245
(I1
(I2
tg1012
I00
S'\xea5`r)>1\xc0\x80\x94\xd3\x95\x9e\x9e;\xc0'
tbag1008
(g1009
(I0
tS'b'
tRp1246
(I1
(I2
tg1012
I00
S'\x04Lw\xbf#\x0eE@\xce\xfdi\x81\xd0\xc2@\xc0'
tbag1008
(g1009
(I0
tS'b'
tRp1247
(I1
(I2
tg1012
I00
S'\xd0\x15\x0f\xf0#\x80\x14\xc0\x94\x92I-\xbd\xe9&\xc0'
tbag1008
(g1009
(I0
tS'b'
tRp1248
(I1
(I2
tg1012
I00
S'R\xcb]\xb3:\xa9A@<\xec\x04\\\xb3\x1c<\xc0'
tbag1008
(g1009
(I0
tS'b'
tRp1249
(I1
(I2
tg1012
I00
S'\xf8<&\x11\r\x88\x1a\xc0\x00\xb9p\xe8\xaac\x1b@'
tbag1008
(g1009
(I0
tS'b'
tRp1250
(I1
(I2
tg1012
I00
S'\xfc\x90\xa0{\xafV4@\x02\x80\xaa\x0f\x0e\x8f=\xc0'
tbag1008
(g1009
(I0
tS'b'
tRp1251
(I1
(I2
tg1012
I00
S'\xa8\xf7\x18\xbf\x18a\x14\xc0\xe0\xaek\xb1\xa1G8@'
tbag1008
(g1009
(I0
tS'b'
tRp1252
(I1
(I2
tg1012
I00
S'\xd8\xdbv\x12(\xc1\x17\xc0\xdaj\xa1\xfd\xcd-0\xc0'
tbag1008
(g1009
(I0
tS'b'
tRp1253
(I1
(I2
tg1012
I00
S' \xa5f\x8e\xab|2@\x80?\xd8\xd8~<+@'
tbag1008
(g1009
(I0
tS'b'
tRp1254
(I1
(I2
tg1012
I00
S'\xf0\x85\x0f\x11\xf9\xac\x0e\xc0L\xda\xd0\x9d3T6@'
tbag1008
(g1009
(I0
tS'b'
tRp1255
(I1
(I2
tg1012
I00
S'\x90\xdb\x13\xbf\xca"\x01\xc0B\x86%\xc4\x1a\\C\xc0'
tbag1008
(g1009
(I0
tS'b'
tRp1256
(I1
(I2
tg1012
I00
S'\x00\xc1\xa1\xa4\xd9\x8d\x06\xc0\xc0\xb5\x96g\xc8u\x0f@'
tbag1008
(g1009
(I0
tS'b'
tRp1257
(I1
(I2
tg1012
I00
S'hA\xd78\x9bG#@\xf0\xa1\x00\x02\xd1\xd7;@'
tbag1008
(g1009
(I0
tS'b'
tRp1258
(I1
(I2
tg1012
I00
S'@\xff\xaf\x05\x16\xe3\n\xc0\x98\xa8\x98\xedB/:\xc0'
tbag1008
(g1009
(I0
tS'b'
tRp1259
(I1
(I2
tg1012
I00
S'\xee\xafx4\x1d\xacG@\x17\xea\x83\x93\x06\xf7@\xc0'
tbag1008
(g1009
(I0
tS'b'
tRp1260
(I1
(I2
tg1012
I00
S'\x98\x8c\xef\xee\t\xd42@<\xbf\xe6\x97W\xb7@\xc0'
tbag1008
(g1009
(I0
tS'b'
tRp1261
(I1
(I2
tg1012
I00
S'V\x03\x9b\xa3\x8aXB@\xb3Sfw\xb6\x07=\xc0'
tbag1008
(g1009
(I0
tS'b'
tRp1262
(I1
(I2
tg1012
I00
S'\x90"\xf1\xf0\xd0M2@j\x15\xb6]\x9f\xdcC@'
tbag1008
(g1009
(I0
tS'b'
tRp1263
(I1
(I2
tg1012
I00
S'P\xcel\x82\xe0\xc2\r\xc0\xa4\x16\xe4-x\xbaC\xc0'
tbag1008
(g1009
(I0
tS'b'
tRp1264
(I1
(I2
tg1012
I00
S'j\xe6\xdc\xc6\x18\xd4@\xc02\xa4*!bz;\xc0'
tbag1008
(g1009
(I0
tS'b'
tRp1265
(I1
(I2
tg1012
I00
S'Pw\xbdL\x0e\xce>@\xe4o5G\x04\xd5:\xc0'
tbag1008
(g1009
(I0
tS'b'
tRp1266
(I1
(I2
tg1012
I00
S'P\x125RX\xb40@\xba\xc8\xe6)V\x153\xc0'
tbag1008
(g1009
(I0
tS'b'
tRp1267
(I1
(I2
tg1012
I00
S'\xc5\x06\xb7\xffTa7\xc0\xff\xbcy$\xda\x14<\xc0'
tbag1008
(g1009
(I0
tS'b'
tRp1268
(I1
(I2
tg1012
I00
S'\xd2\x05\xb6\x19\xb5\x11C@]\xa4\x1c5\x1f\x92C\xc0'
tbag1008
(g1009
(I0
tS'b'
tRp1269
(I1
(I2
tg1012
I00
S'\xa8Bf \xd5\x1b\x15@ :\t3\xc7"-@'
tbag1008
(g1009
(I0
tS'b'
tRp1270
(I1
(I2
tg1012
I00
S'\x14\xb3\xe9\x0f\xf6\xc40@p\xd5\xf1\x1fD\x1c*\xc0'
tbag1008
(g1009
(I0
tS'b'
tRp1271
(I1
(I2
tg1012
I00
S'\x00\xd1\x916\xdfz\xc9?5\x8c\x1d\xc2\x98jB\xc0'
tbag1008
(g1009
(I0
tS'b'
tRp1272
(I1
(I2
tg1012
I00
S'\x88\x12|\xf4\x92\xb0-@l\xaf\x15,\x1a\\-\xc0'
tbag1008
(g1009
(I0
tS'b'
tRp1273
(I1
(I2
tg1012
I00
S'\xd02\xa7\xa2\xecT\x04@\x18nW\x82\xd1&\x11@'
tbag1008
(g1009
(I0
tS'b'
tRp1274
(I1
(I2
tg1012
I00
S'\x1e\x84+P\xfe\xebC\xc0s\x87\x87\xc9\xe7\xcb?\xc0'
tbag1008
(g1009
(I0
tS'b'
tRp1275
(I1
(I2
tg1012
I00
S'\xf0\x92\x0fT\x0ek/@l\xc2\xf2Z\xaaME@'
tbag1008
(g1009
(I0
tS'b'
tRp1276
(I1
(I2
tg1012
I00
S'\xb8{c\x8b\x0ek.@&+\xf85\xda\x8bB\xc0'
tbag1008
(g1009
(I0
tS'b'
tRp1277
(I1
(I2
tg1012
I00
S'\xd4\xabfh(\x8e3@J\xda,\xc0h"H@'
tbag1008
(g1009
(I0
tS'b'
tRp1278
(I1
(I2
tg1012
I00
S'\xfcj\x1d\x02ct3@E\xe7\xdc\x9f\xc4\xe3A\xc0'
tbag1008
(g1009
(I0
tS'b'
tRp1279
(I1
(I2
tg1012
I00
S']\xfeSF\t\x045\xc0.\x81\xacV\xa4QC\xc0'
tbag1008
(g1009
(I0
tS'b'
tRp1280
(I1
(I2
tg1012
I00
S' \x87L_\tH,@\xf0\xecP,\xb6s\x13@'
tbag1008
(g1009
(I0
tS'b'
tRp1281
(I1
(I2
tg1012
I00
S"|C'\xb6\x19K#\xc08[\xef\xb7\x8f\xa8,@"
tbag1008
(g1009
(I0
tS'b'
tRp1282
(I1
(I2
tg1012
I00
S'Nr:\xe64\xb3@@\x08X\xf0\x9e\xbdd?\xc0'
tbag1008
(g1009
(I0
tS'b'
tRp1283
(I1
(I2
tg1012
I00
S'\xd8\x06h\xa1\xf79\x16@\xa0\x13\x10$\xc9J;@'
tbag1008
(g1009
(I0
tS'b'
tRp1284
(I1
(I2
tg1012
I00
S'\xe0\xd5Lp\x82\x03\xf1\xbfX\xe8%\x05g\x136\xc0'
tbag1008
(g1009
(I0
tS'b'
tRp1285
(I1
(I2
tg1012
I00
S'\x80_C\xf0\xc0!\xf0?\x10"\x93\x84P\x83&@'
tbag1008
(g1009
(I0
tS'b'
tRp1286
(I1
(I2
tg1012
I00
S'\xbf`\xb6\x17\x98EA\xc0\xb4ni~\xe7\xf4:\xc0'
tbag1008
(g1009
(I0
tS'b'
tRp1287
(I1
(I2
tg1012
I00
S'\x98\xbb\xf4\xf25\xee)@X\xa0;2\x15\xdd/@'
tbag1008
(g1009
(I0
tS'b'
tRp1288
(I1
(I2
tg1012
I00
S'h\x03Z`\x8a\xe5"\xc0\x8cw\xba7lo=@'
tbag1008
(g1009
(I0
tS'b'
tRp1289
(I1
(I2
tg1012
I00
S'\xf4N\xfe0\xf8\xf0C\xc0k\x9b~\x1c\xc7x>\xc0'
tbag1008
(g1009
(I0
tS'b'
tRp1290
(I1
(I2
tg1012
I00
S'(\x9c\x91ia@\x1f\xc0\x84\x86\xc0\xa4\xf9\xc6:@'
tbag1008
(g1009
(I0
tS'b'
tRp1291
(I1
(I2
tg1012
I00
S'\x80j\xdcA\xc2/\xe1?(5zH\xe1\x967@'
tbag1008
(g1009
(I0
tS'b'
tRp1292
(I1
(I2
tg1012
I00
S'\x00\x18\xcaH\xc2\x1d\xd0\xbfi\xd3~B\xaa\xa2B\xc0'
tbag1008
(g1009
(I0
tS'b'
tRp1293
(I1
(I2
tg1012
I00
S'|Q\x1f\xe5\x98\xe6)@&\x1f\x17\xfb\xc5\x81B\xc0'
tbag1008
(g1009
(I0
tS'b'
tRp1294
(I1
(I2
tg1012
I00
S'`c\xf6\xb5Xr\x0c@\x0c\x1d\x9e:\x1c\xfaF@'
tbag1008
(g1009
(I0
tS'b'
tRp1295
(I1
(I2
tg1012
I00
S"@}\x85<\xf2\x99\x04\xc0h\x8c\x94\xec\x83c'@"
tbag1008
(g1009
(I0
tS'b'
tRp1296
(I1
(I2
tg1012
I00
S"\x80\xd0LV\x96t\xf7?`\xd5\xb6l+'@@"
tbag1008
(g1009
(I0
tS'b'
tRp1297
(I1
(I2
tg1012
I00
S'\xc0\x8f`\xac\xa4\x91\x1b\xc0\xe0\xdd\xade\xe3\x905\xc0'
tbag1008
(g1009
(I0
tS'b'
tRp1298
(I1
(I2
tg1012
I00
S'\xb4u\xb4\xd3\x1fs \xc0\xe0\xc7\xb4\x0b\xe9\xb16@'
tbag1008
(g1009
(I0
tS'b'
tRp1299
(I1
(I2
tg1012
I00
S'\xf84\xa44j\n:\xc0\x1f%J\xaf\xf6;?\xc0'
tbag1008
(g1009
(I0
tS'b'
tRp1300
(I1
(I2
tg1012
I00
S'\xe8\x8c\x01<,\x94\x17\xc0\xa0\xab\x8cH\x9au\x16@'
tbag1008
(g1009
(I0
tS'b'
tRp1301
(I1
(I2
tg1012
I00
S'p\x16\x88\x7f\xca\x08\x06\xc0\x92\x8a\x9cG\xed0C@'
tbag1008
(g1009
(I0
tS'b'
tRp1302
(I1
(I2
tg1012
I00
S'\x80\xb8\xc3\x8f\x9f$@@\x05\x18\xa7Vwi:\xc0'
tbag1008
(g1009
(I0
tS'b'
tRp1303
(I1
(I2
tg1012
I00
S"|\xa5'\x99\xdf\x9b%@\xfe\x94.\x84\xdcn@@"
tbag1008
(g1009
(I0
tS'b'
tRp1304
(I1
(I2
tg1012
I00
S'\xc4 /\xf4\x80j:\xc0\xe2\xb4\x1fl\xdeJ?\xc0'
tbag1008
(g1009
(I0
tS'b'
tRp1305
(I1
(I2
tg1012
I00
S'hB\xf8]#\xb9!@0\x06#\x0fAaC@'
tbag1008
(g1009
(I0
tS'b'
tRp1306
(I1
(I2
tg1012
I00
S'l\xf0\xf9\x1a\x8a\xd92@\x84\xef\xb0\xb3nmF@'
tbag1008
(g1009
(I0
tS'b'
tRp1307
(I1
(I2
tg1012
I00
S"\xa4Dm\xba\xf0\xa4'@\x00\x16~n8\xfd\xef\xbf"
tbag1008
(g1009
(I0
tS'b'
tRp1308
(I1
(I2
tg1012
I00
S'\xdc\xc8\x994\xad 2@tp\xd9\xbf\xe2\xdeC\xc0'
tbag1008
(g1009
(I0
tS'b'
tRp1309
(I1
(I2
tg1012
I00
S'\x80\x13\xe3i\xa9}\x1a\xc0.adi~\x90G@'
tbag1008
(g1009
(I0
tS'b'
tRp1310
(I1
(I2
tg1012
I00
S'\xc8?\xb2\xfaG\xc9\x1b@25j\xccv\xe1B\xc0'
tbag1008
(g1009
(I0
tS'b'
tRp1311
(I1
(I2
tg1012
I00
S'X4R\xe1q\xf9#@\xf0\xc1\xfc\xce\x08\r?@'
tbag1008
(g1009
(I0
tS'b'
tRp1312
(I1
(I2
tg1012
I00
S'h\xdc\x10,3\x12\x1a\xc0\xe8\n\xcad\x07\xe9C@'
tbag1008
(g1009
(I0
tS'b'
tRp1313
(I1
(I2
tg1012
I00
S'\xe4\xba\xd5\xc9\xd2\xe80@\x04\x92>\xe7\x83\xdf+\xc0'
tbag1008
(g1009
(I0
tS'b'
tRp1314
(I1
(I2
tg1012
I00
S'P|\xaa\x90\x0cK\x15@\xc4\xdc\x9fU\xe9\xbf;@'
tbag1008
(g1009
(I0
tS'b'
tRp1315
(I1
(I2
tg1012
I00
S'\x14`\x9fC\xfd\x84%@~\x13T\x8a\xf4\xb2C\xc0'
tbag1008
(g1009
(I0
tS'b'
tRp1316
(I1
(I2
tg1012
I00
S'\xf0D\x03W\xc2\xee\x18\xc0R\xc1}\x80M\x004\xc0'
tbag1008
(g1009
(I0
tS'b'
tRp1317
(I1
(I2
tg1012
I00
S'\xa0\xb5\xdb$H3\xfc?xi\x01\x87;]/@'
tbag1008
(g1009
(I0
tS'b'
tRp1318
(I1
(I2
tg1012
I00
S'x\xdb\x03a\x95\xf2 \xc0\xab=l\xd5\x90\x974\xc0'
tbag1008
(g1009
(I0
tS'b'
tRp1319
(I1
(I2
tg1012
I00
S'\x10J{\x8b\xfeNC\xc0\xa8\x0f\xaa7\xfa+>\xc0'
tbag1008
(g1009
(I0
tS'b'
tRp1320
(I1
(I2
tg1012
I00
S'0b\x12\xf3\x1e\xcb"\xc0z\xb4\xd9/\xe7\x03G@'
tbag1008
(g1009
(I0
tS'b'
tRp1321
(I1
(I2
tg1012
I00
S't\xb9\xd0A\xfdr1@\x80K\x05\xf7\x17\xb54\xc0'
tbag1008
(g1009
(I0
tS'b'
tRp1322
(I1
(I2
tg1012
I00
S'V\xce\xb7\x81&\xe9F@\xe7)\x12\xba\xb8\xcbA\xc0'
tbag1008
(g1009
(I0
tS'b'
tRp1323
(I1
(I2
tg1012
I00
S'P\xbc\x0b"\xd5R\x04@\x94\x05\x1f\xd7\x97\x08H@'
tbag1008
(g1009
(I0
tS'b'
tRp1324
(I1
(I2
tg1012
I00
S'\xdc\xdae\x1c4\x8e6\xc0Y\x8a\xd5\xef[j>\xc0'
tbag1008
(g1009
(I0
tS'b'
tRp1325
(I1
(I2
tg1012
I00
S'\xdfC\x0fj\x83\xa85\xc0\xd7\xe7P\xb1\xcd\x8a9\xc0'
tbag1008
(g1009
(I0
tS'b'
tRp1326
(I1
(I2
tg1012
I00
S'\xa8\x16\x9d\xf4<\xa0,@\xc0\xdd\x0ep\x02\xa4=@'
tbag1008
(g1009
(I0
tS'b'
tRp1327
(I1
(I2
tg1012
I00
S' \xa4\xb1\x9b\xc9\x9d\xf0?\x18\xabT!\xf8[%@'
tbag1008
(g1009
(I0
tS'b'
tRp1328
(I1
(I2
tg1012
I00
S',\xadLG\xaa\xdbB\xc0L\x18\x91\xd4\ry>\xc0'
tbag1008
(g1009
(I0
tS'b'
tRp1329
(I1
(I2
tg1012
I00
S'\x10\xb8\xe1\x05\xdd#\x00\xc0\x9cr\x08\x11K18@'
tbag1008
(g1009
(I0
tS'b'
tRp1330
(I1
(I2
tg1012
I00
S'\x10^\x1d\x11.\xff6@\xee\xdb^r\x9cx:\xc0'
tbag1008
(g1009
(I0
tS'b'
tRp1331
(I1
(I2
tg1012
I00
S'\x90\xef\xb6\xfaB\xd4\x1b\xc0\x98\x10?\x90\xa1#1@'
tbag1008
(g1009
(I0
tS'b'
tRp1332
(I1
(I2
tg1012
I00
S'\x84:Za\x96\xb3+@0\x92&c+Y;@'
tbag1008
(g1009
(I0
tS'b'
tRp1333
(I1
(I2
tg1012
I00
S'\xd0e\xd8\xcb\xd0\t\x0b@\xc0\xe6|i\x96\xdf9@'
tbag1008
(g1009
(I0
tS'b'
tRp1334
(I1
(I2
tg1012
I00
S" \xb2 V\x08\xac\x12\xc0\x0c\xde\xf9\x9d\xda '\xc0"
tbag1008
(g1009
(I0
tS'b'
tRp1335
(I1
(I2
tg1012
I00
S' \xa3\x06(\xde\x1f\x1a\xc0\xe6\x89\x12\xaf\t\x96C@'
tbag1008
(g1009
(I0
tS'b'
tRp1336
(I1
(I2
tg1012
I00
S'H\x81\xaf\xfa\xf5\x08\x1d@\xfc\xf3$\xd9\xd5\xb3C@'
tbag1008
(g1009
(I0
tS'b'
tRp1337
(I1
(I2
tg1012
I00
S'\xb09\x0e\xf1\x93\x91\x1c\xc00\xa2nr\xfba5@'
tbag1008
(g1009
(I0
tS'b'
tRp1338
(I1
(I2
tg1012
I00
S'`\x95H\x99\xc3\r\x1f@4\xeb\x88\x8d|\x89A@'
tbag1008
(g1009
(I0
tS'b'
tRp1339
(I1
(I2
tg1012
I00
S'|>\xadq+(1@PW=\x80\xf4y\x12\xc0'
tbag1008
(g1009
(I0
tS'b'
tRp1340
(I1
(I2
tg1012
I00
S' lf\xd3\xb4\xf5E@\x04\x92}x\x8e\xe2@\xc0'
tbag1008
(g1009
(I0
tS'b'
tRp1341
(I1
(I2
tg1012
I00
S'\\\xf8\xa9K\x0c\xd7(@\xd0\xfd\x14A1\xec\x19@'
tbag1008
(g1009
(I0
tS'b'
tRp1342
(I1
(I2
tg1012
I00
S'\x90\xfb\xb3Z0i\x11\xc0`s\xef\x89\x9c\xbe\x19@'
tbag1008
(g1009
(I0
tS'b'
tRp1343
(I1
(I2
tg1012
I00
S'\x98Q\xdf\xe0D\x83\x15\xc0p\xba\xb9\xa7\x7f",@'
tbag1008
(g1009
(I0
tS'b'
tRp1344
(I1
(I2
tg1012
I00
S'\xcc\xac\xd0\x8cR\x02A@M_\xee\xb5\xe1\xc4;\xc0'
tbag1008
(g1009
(I0
tS'b'
tRp1345
(I1
(I2
tg1012
I00
S'P\xc1\x87d\x19\xe4\r@\xe8B\xdb9m\x05!\xc0'
tbag1008
(g1009
(I0
tS'b'
tRp1346
(I1
(I2
tg1012
I00
S'\xf0\xe1\xd9\xc4"\xc9#\xc0\xb0??\xff\xebW\n\xc0'
tbag1008
(g1009
(I0
tS'b'
tRp1347
(I1
(I2
tg1012
I00
S'\x90\xc0\xd2\x0bU\xf9#\xc0\xa2F3e\xc0\xfc@\xc0'
tbag1008
(g1009
(I0
tS'b'
tRp1348
(I1
(I2
tg1012
I00
S'\xc0\xee\x1b\xb57\xda @\x189\x8b\xac\xce\xd8*\xc0'
tbag1008
(g1009
(I0
tS'b'
tRp1349
(I1
(I2
tg1012
I00
S'`\xc2\xd8\xf8\xaf\xe0$@\x17\xean\xe5\xcaU9\xc0'
tbag1008
(g1009
(I0
tS'b'
tRp1350
(I1
(I2
tg1012
I00
S'\x08\xf7E!N\x0e.@Tt\x8f\xb7|\x121@'
tbag1008
(g1009
(I0
tS'b'
tRp1351
(I1
(I2
tg1012
I00
S'\xb0\xbd\xe9k\xf2\x96<@\x1dy=v\x07\xf6=\xc0'
tbag1008
(g1009
(I0
tS'b'
tRp1352
(I1
(I2
tg1012
I00
S"\xe4\x1dY\xdc'\xb1 \xc0\x8e\x86\x9a\x8d\xd0\xecF@"
tbag1008
(g1009
(I0
tS'b'
tRp1353
(I1
(I2
tg1012
I00
S'\x88\xed\xb4\x1eX/\x13@\x18\xe4\x9b\xa8\xd6\xa3B\xc0'
tbag1008
(g1009
(I0
tS'b'
tRp1354
(I1
(I2
tg1012
I00
S'\x00\xe7\x83b\x8f6\x10@\xa4\xc3\x89\xc0i\x8d;@'
tbag1008
(g1009
(I0
tS'b'
tRp1355
(I1
(I2
tg1012
I00
S'\xa0\xfd\x00\xfe\x85\x0b @\x00kdF\x94\xb0\x06@'
tbag1008
(g1009
(I0
tS'b'
tRp1356
(I1
(I2
tg1012
I00
S'0-"K\xc6f\x12@\x00HJIxY\x00\xc0'
tbag1008
(g1009
(I0
tS'b'
tRp1357
(I1
(I2
tg1012
I00
S'\xe8\x11rB\xb0p-@<\x05<1E\xae4@'
tbag1008
(g1009
(I0
tS'b'
tRp1358
(I1
(I2
tg1012
I00
S'\xd0\xa1\xea\x1bH\x9f*@\xba<\xc3Gz\xac5\xc0'
tbag1008
(g1009
(I0
tS'b'
tRp1359
(I1
(I2
tg1012
I00
S'\x18\x8bBa\x1c\x10\x10@\xd8/\xb7\xddF\x91+@'
tbag1008
(g1009
(I0
tS'b'
tRp1360
(I1
(I2
tg1012
I00
S'\x92M\xa6wz\xa6B@\xcb\xc9\xa63\xbeAA\xc0'
tbag1008
(g1009
(I0
tS'b'
tRp1361
(I1
(I2
tg1012
I00
S'\xac8\xea\xf8\x9b\x07$@L\xdb*a\xb6\xe6)\xc0'
tbag1008
(g1009
(I0
tS'b'
tRp1362
(I1
(I2
tg1012
I00
S'$h\x1b\xcfm-1@PX\x94F`\x97D@'
tbag1008
(g1009
(I0
tS'b'
tRp1363
(I1
(I2
tg1012
I00
S'\xf0\x84\x89\xc7H\xad\x11@t\xef\xe0\x0b\x19\x81B\xc0'
tbag1008
(g1009
(I0
tS'b'
tRp1364
(I1
(I2
tg1012
I00
S'\x80\xfd\xf3\xf4\x11\xbe\xf3?\x84\xf2\xc6\xf9-\xdf@@'
tbag1008
(g1009
(I0
tS'b'
tRp1365
(I1
(I2
tg1012
I00
S'\xd0x\xe8\x8b\xa4\xa3\x03@\x82\x8e\xe0\x833\xbeB@'
tbag1008
(g1009
(I0
tS'b'
tRp1366
(I1
(I2
tg1012
I00
S'P\x1e\x90\xa4|\x18,\xc0z\x12\x81\x08\x9d\xb9B\xc0'
tbag1008
(g1009
(I0
tS'b'
tRp1367
(I1
(I2
tg1012
I00
S'\x98\xd3&{;~#@\xf4\xe3\xfb\x10\xfe\xf1(@'
tbag1008
(g1009
(I0
tS'b'
tRp1368
(I1
(I2
tg1012
I00
S'\xdc\x8f\x1ee(n7\xc0\x90\x19z\xe7B\xb0B\xc0'
tbag1008
(g1009
(I0
tS'b'
tRp1369
(I1
(I2
tg1012
I00
S'h\xaa\x97\xfa~\xe9\x10@F3\r\x8b\xc0hE@'
tbag1008
(g1009
(I0
tS'b'
tRp1370
(I1
(I2
tg1012
I00
S'@wR),x3\xc0 \xc7\x13\xf6\x0f\xe3C\xc0'
tbag1008
(g1009
(I0
tS'b'
tRp1371
(I1
(I2
tg1012
I00
S'`\xca\xe3\xccJ\xc8.@\xe09\xd3\t\xd1\x87D@'
tbag1008
(g1009
(I0
tS'b'
tRp1372
(I1
(I2
tg1012
I00
S'`\x82\xffk\x1d\xaf\x10\xc0\x80\x80`\xf8c\x0f\xf9\xbf'
tbag1008
(g1009
(I0
tS'b'
tRp1373
(I1
(I2
tg1012
I00
S'\x18\xc1\xb8\xeb{/A@\xb0q\xb6,$\xe1<\xc0'
tbag1008
(g1009
(I0
tS'b'
tRp1374
(I1
(I2
tg1012
I00
S'ev\x05A\xe397\xc02-\x9e\xbdi\xb3B\xc0'
tbag1008
(g1009
(I0
tS'b'
tRp1375
(I1
(I2
tg1012
I00
S'\x10\xee\x9dC\xbb\xfa\x1e@xW>\xf7\x96\xe7/\xc0'
tbag1008
(g1009
(I0
tS'b'
tRp1376
(I1
(I2
tg1012
I00
S'\xac\x82\xb7i\x98>A\xc0%\xee\x18i\xc5h9\xc0'
tbag1008
(g1009
(I0
tS'b'
tRp1377
(I1
(I2
tg1012
I00
S'\xe0P\xa4\xb7@Z\n@\xe04W\x11\tc\x18\xc0'
tbag1008
(g1009
(I0
tS'b'
tRp1378
(I1
(I2
tg1012
I00
S'\xe0x\x0bC\xe7p"\xc0$\xe2\x1dv\xaeBB\xc0'
tbag1008
(g1009
(I0
tS'b'
tRp1379
(I1
(I2
tg1012
I00
S'\xe0m\xfc\xc7\xa6\xfc\x1b@\x8e\xe8B{]eC@'
tbag1008
(g1009
(I0
tS'b'
tRp1380
(I1
(I2
tg1012
I00
S'x*\x9dK*\xe61@\x85\xce"\x84\xee\xaf:\xc0'
tbag1008
(g1009
(I0
tS'b'
tRp1381
(I1
(I2
tg1012
I00
S'\x98\xfas\xce\x98\xf4"\xc0\xa6\xf2\xf9$\x02!D@'
tbag1008
(g1009
(I0
tS'b'
tRp1382
(I1
(I2
tg1012
I00
S'\xe0{\r;\xbe\t\x04@p\t,\x9d\x84$+\xc0'
tbag1008
(g1009
(I0
tS'b'
tRp1383
(I1
(I2
tg1012
I00
S'(x\xd6\xe1\x11\x1c"@\xe7se\n\x7f\\>\xc0'
tbag1008
(g1009
(I0
tS'b'
tRp1384
(I1
(I2
tg1012
I00
S'\x9cM\x0fk7\x96)@(VY\x92\xa0\xb4?@'
tbag1008
(g1009
(I0
tS'b'
tRp1385
(I1
(I2
tg1012
I00
S'<\xe87Zr  \xc0\x10\x9eUZ\xc8L,\xc0'
tbag1008
(g1009
(I0
tS'b'
tRp1386
(I1
(I2
tg1012
I00
S'\xd8\xb7e\x95g\x81-@\x80?\xd1\xfe]\xd52@'
tbag1008
(g1009
(I0
tS'b'
tRp1387
(I1
(I2
tg1012
I00
S'0\xa4M\x9fG\xba\x17\xc0,q\xc3\xe4\xab\xaa8@'
tbag1008
(g1009
(I0
tS'b'
tRp1388
(I1
(I2
tg1012
I00
S'\xb0\\\xb08\x01\x16\x1b@\xa8\xcaC\xdd\xa8\xce9@'
tbag1008
(g1009
(I0
tS'b'
tRp1389
(I1
(I2
tg1012
I00
S' \xe4\xb4\xea7\xc2.@\xac|pu\x93\x02=@'
tbag1008
(g1009
(I0
tS'b'
tRp1390
(I1
(I2
tg1012
I00
S'(\xf1%\x8dA#"@\x00|/\xf6k\xc0\xd4\xbf'
tbag1008
(g1009
(I0
tS'b'
tRp1391
(I1
(I2
tg1012
I00
S'8\xc9P\xddO}\x1b@\x98|\xd2{\x83\xf10@'
tbag1008
(g1009
(I0
tS'b'
tRp1392
(I1
(I2
tg1012
I00
S':\xa7|\xc3\xb8\xf0E\xc0\xcf\xf9\x98\xdd\xa91;\xc0'
tbag1008
(g1009
(I0
tS'b'
tRp1393
(I1
(I2
tg1012
I00
S'h)\xf7f-\xcb2@\x90Q\x11G\xdd[,@'
tbag1008
(g1009
(I0
tS'b'
tRp1394
(I1
(I2
tg1012
I00
S'\x10\xe4\x82\xf7\xaf\xdc%@l\xbbYpO\x832@'
tbag1008
(g1009
(I0
tS'b'
tRp1395
(I1
(I2
tg1012
I00
S'd\x94\xdb\x84e8>@\xcf\x02\xa2(\x9a\x96C\xc0'
tbag1008
(g1009
(I0
tS'b'
tRp1396
(I1
(I2
tg1012
I00
S'@EgZ \xdf\x05@`\x00\x0c\x93Q\x91\x1d\xc0'
tbag1008
(g1009
(I0
tS'b'
tRp1397
(I1
(I2
tg1012
I00
S'\xd8\x8f7{\x1f\xac(@\xfc\x07\xa7\x97j\xebF@'
tbag1008
(g1009
(I0
tS'b'
tRp1398
(I1
(I2
tg1012
I00
S'p]\x86\xd2\xbb\xfa\x08@D\xcf\x06t\xe7\xdfC@'
tbag1008
(g1009
(I0
tS'b'
tRp1399
(I1
(I2
tg1012
I00
S'\x04!\x80U\xc1QF\xc0\xf6p\xaf\xa9_\x87B\xc0'
tbag1008
(g1009
(I0
tS'b'
tRp1400
(I1
(I2
tg1012
I00
S'\xfc<O44c0@\xb4M\xa7\xf1\x16\xcb(@'
tbag1008
(g1009
(I0
tS'b'
tRp1401
(I1
(I2
tg1012
I00
S'\x00\x02\x81\xfa\xd2\x0e\xcc\xbf\xc0$1\x15#\x9b,@'
tbag1008
(g1009
(I0
tS'b'
tRp1402
(I1
(I2
tg1012
I00
S'\xb4\x95\xdcN\x89\xeeG\xc0\x1a \x16\x96\xe5\xcf>\xc0'
tbag1008
(g1009
(I0
tS'b'
tRp1403
(I1
(I2
tg1012
I00
S'`\\\xcf\xdc\xab\x17\x03\xc04\x8a\xe2\xec\xf5\xc9)@'
tbag1008
(g1009
(I0
tS'b'
tRp1404
(I1
(I2
tg1012
I00
S'\xc6:}N\x8f&H@t\xed\n\xa1\xf9\x9a@\xc0'
tbag1008
(g1009
(I0
tS'b'
tRp1405
(I1
(I2
tg1012
I00
S'\x88\xe4\x1b\xf0\x07\x0f\x1a\xc0\xc8_\xe0o\x10\xcd(@'
tbag1008
(g1009
(I0
tS'b'
tRp1406
(I1
(I2
tg1012
I00
S'@G\x1a<\xcd\xba.@h\x91\xde\xbd[\x03,@'
tbag1008
(g1009
(I0
tS'b'
tRp1407
(I1
(I2
tg1012
I00
S'\x0073\xcb*5\xc2\xbf\xb6:\x00\x15\x00$C@'
tbag1008
(g1009
(I0
tS'b'
tRp1408
(I1
(I2
tg1012
I00
S'`2\xdaN\xefX\xfc?\xc01\x00C\xd6\x12&\xc0'
tbag1008
(g1009
(I0
tS'b'
tRp1409
(I1
(I2
tg1012
I00
S'T\x0b\xf8!\xd5\xb1%@8\x00\xca\xe7\x95\xdb:@'
tbag1008
(g1009
(I0
tS'b'
tRp1410
(I1
(I2
tg1012
I00
S'\x00\xc1>\x16!\xe8\xc5\xbf\xc4\xcc6\xc8\x084?@'
tbag1008
(g1009
(I0
tS'b'
tRp1411
(I1
(I2
tg1012
I00
S'@\xce\xb3\xbfT\x8e\xe4?\x0c~\xcf\xeb\xde3H@'
tbag1008
(g1009
(I0
tS'b'
tRp1412
(I1
(I2
tg1012
I00
S'\xce\xa4\xab\xc9\xeb\xa0A@\xc9\xba\xf6\xd8$\xaeA\xc0'
tbag1008
(g1009
(I0
tS'b'
tRp1413
(I1
(I2
tg1012
I00
S'H\x8e\xd5\xa5q\xd9\x11@0\x86[\xd5W?\x00\xc0'
tbag1008
(g1009
(I0
tS'b'
tRp1414
(I1
(I2
tg1012
I00
S'\x0c\xbb\xdfT\xbe0#\xc08\x97\xeb\xa9Y\x155@'
tbag1008
(g1009
(I0
tS'b'
tRp1415
(I1
(I2
tg1012
I00
S'`^i\x12\xe95\xf6\xbf\xa0>a\xaf\x12\xdb\x14\xc0'
tbag1008
(g1009
(I0
tS'b'
tRp1416
(I1
(I2
tg1012
I00
S'\x00\xc9t\xf2\xc4~\x02@\\i\xe4\xd6\x86\xa7E@'
tbag1008
(g1009
(I0
tS'b'
tRp1417
(I1
(I2
tg1012
I00
S'\x98T\x84\x164a)@\xcc\xaa\xe1\xa5\x9c\xbe6@'
tbag1008
(g1009
(I0
tS'b'
tRp1418
(I1
(I2
tg1012
I00
S'|\xa9\n\x88a\xf4 @\xec\x90l\xbf.\xcb?@'
tbag1008
(g1009
(I0
tS'b'
tRp1419
(I1
(I2
tg1012
I00
S'|\x0b\xd4\xb7\x81\x9a5@\xd271*\x98\x0e=\xc0'
tbag1008
(g1009
(I0
tS'b'
tRp1420
(I1
(I2
tg1012
I00
S'\xc4\x9b\x00\x93T\x110@pho\xef\x003D@'
tbag1008
(g1009
(I0
tS'b'
tRp1421
(I1
(I2
tg1012
I00
S'\x9e\tC\xc1+\xe51\xc0\xfcOb\xc1\x9afC\xc0'
tbag1008
(g1009
(I0
tS'b'
tRp1422
(I1
(I2
tg1012
I00
S'0\xbc!T\x19\xea\x01\xc0\x18\x189\xf8\x06\xe5F@'
tbag1008
(g1009
(I0
tS'b'
tRp1423
(I1
(I2
tg1012
I00
S'd\x95Z\x87\x8a\xda#@\xfc+\xe9)\x98\xbb:@'
tbag1008
(g1009
(I0
tS'b'
tRp1424
(I1
(I2
tg1012
I00
S'\xc0\xe5\x8a\xcd\xce<+@,\\Ou\xf7}+\xc0'
tbag1008
(g1009
(I0
tS'b'
tRp1425
(I1
(I2
tg1012
I00
S'H\xf3\xbe\x12~\x98*@\x95-;\x1e\xbb\xd19\xc0'
tbag1008
(g1009
(I0
tS'b'
tRp1426
(I1
(I2
tg1012
I00
S"\xee)'\x8d:\xe1C@P\x1cE\xd8\x05vA\xc0"
tbag1008
(g1009
(I0
tS'b'
tRp1427
(I1
(I2
tg1012
I00
S'h.\xec\xe9l\xcb*@\xdaK\xab:\xd5\x943\xc0'
tbag1008
(g1009
(I0
tS'b'
tRp1428
(I1
(I2
tg1012
I00
S'p#\xe7\xc5$\xf6-@\xb2\xebD\xa9\x1a\xa3F@'
tbag1008
(g1009
(I0
tS'b'
tRp1429
(I1
(I2
tg1012
I00
S'$\xe0\x95\xb6\x88\xed%@\x18\x152\x84jc1@'
tbag1008
(g1009
(I0
tS'b'
tRp1430
(I1
(I2
tg1012
I00
S'\x00S\x02\xa8$i\xef?\x80\xdd_\xce<\xe2.@'
tbag1008
(g1009
(I0
tS'b'
tRp1431
(I1
(I2
tg1012
I00
S'\x0c\x02+\xa4?\xa6"\xc0\x9c1\xf9,U\x1f4@'
tbag1008
(g1009
(I0
tS'b'
tRp1432
(I1
(I2
tg1012
I00
S'\x00h"\xec\xcfB\x97\xbf\x10+\xc8\xcb\xf2\xca\x1c\xc0'
tbag1008
(g1009
(I0
tS'b'
tRp1433
(I1
(I2
tg1012
I00
S'\xb0\xc3\xa4\xedB\xb22@\xb0q2\xcb(\xc6D@'
tbag1008
(g1009
(I0
tS'b'
tRp1434
(I1
(I2
tg1012
I00
S'\xf81/\xf3\x12\x8f\x18@D#\x1aX\xc7\x8c<\xc0'
tbag1008
(g1009
(I0
tS'b'
tRp1435
(I1
(I2
tg1012
I00
S'\x8c\\:\xc2Ay+@\xc4K\xaat T.\xc0'
tbag1008
(g1009
(I0
tS'b'
tRp1436
(I1
(I2
tg1012
I00
S'Yn\xc9\xe4\xdd]C\xc0\xd6\x89\x7f F=C\xc0'
tbag1008
(g1009
(I0
tS'b'
tRp1437
(I1
(I2
tg1012
I00
S'Mrj\x14\x80\x7f@\xc0\xf8\xdd@\x0c\xb0\xa9<\xc0'
tbag1008
(g1009
(I0
tS'b'
tRp1438
(I1
(I2
tg1012
I00
S"X\xabn\xf2v;\x1a\xc0@\xd5\xe3'\x12\x8a#\xc0"
tbag1008
(g1009
(I0
tS'b'
tRp1439
(I1
(I2
tg1012
I00
S'(\x02\xb1r\xa4\xb2\x14\xc0\x98p\xf8\xd9\x96\xb3\x16\xc0'
tbag1008
(g1009
(I0
tS'b'
tRp1440
(I1
(I2
tg1012
I00
S'\xc0\xe6\xc4\x05\xf0V0@\xd0{:|\x95\x11\x16@'
tbag1008
(g1009
(I0
tS'b'
tRp1441
(I1
(I2
tg1012
I00
S'\xd05:q\xac\x07"@\x94\x01\x12\xa6\xa8R,\xc0'
tbag1008
(g1009
(I0
tS'b'
tRp1442
(I1
(I2
tg1012
I00
S'\xa9\x8ejv\x1c\xf0A\xc0\x12\xb8\x93\xe7\x97\xbeA\xc0'
tbag1008
(g1009
(I0
tS'b'
tRp1443
(I1
(I2
tg1012
I00
S"\xdc\x91\xd0\xf9\xd0\xc2 \xc0\xf4n\xaf\xf1T:'\xc0"
tbag1008
(g1009
(I0
tS'b'
tRp1444
(I1
(I2
tg1012
I00
S'\xb8\x02\x17\xdd\xff\x82\x12\xc0$\xe4\x94}{iA@'
tbag1008
(g1009
(I0
tS'b'
tRp1445
(I1
(I2
tg1012
I00
S'x\xe8\xfb\xdb&\xd9\x16@\xd8\xcd\xb9\xf8\xfc\x9e<@'
tbag1008
(g1009
(I0
tS'b'
tRp1446
(I1
(I2
tg1012
I00
S't\x06\xd1v\xce\xfc?@\xb8\xd2\x07\xaf\xa1\x9e:\xc0'
tbag1008
(g1009
(I0
tS'b'
tRp1447
(I1
(I2
tg1012
I00
S'L\x00\xe2\xb7\xee0 \xc0\x08!q\xd3\xf2\xf2@@'
tbag1008
(g1009
(I0
tS'b'
tRp1448
(I1
(I2
tg1012
I00
S"\xb0K\xac\xc6'\xd8\x0f\xc0a\x9f\xb4\x89\x94\xf35\xc0"
tbag1008
(g1009
(I0
tS'b'
tRp1449
(I1
(I2
tg1012
I00
S'd\xaa\x7fo\xd7\xcd2@\xc8\xad\xf0\xde~\x90\x1a@'
tbag1008
(g1009
(I0
tS'b'
tRp1450
(I1
(I2
tg1012
I00
S'\x80\xeb\x8c\xa9M\x102@f~t\xd8\xd4\nC\xc0'
tbag1008
(g1009
(I0
tS'b'
tRp1451
(I1
(I2
tg1012
I00
S'1!-!A\x90A\xc0*\x17\xff/\x91 C\xc0'
tbag1008
(g1009
(I0
tS'b'
tRp1452
(I1
(I2
tg1012
I00
S'\xf0\xa7sG\xfb\xa4\x00\xc0\xd8\x98\x01\xeb\xaa3H@'
tbag1008
(g1009
(I0
tS'b'
tRp1453
(I1
(I2
tg1012
I00
S"L\x14F\xc0S'H@$\x02\xed\x02\x15QB\xc0"
tbag1008
(g1009
(I0
tS'b'
tRp1454
(I1
(I2
tg1012
I00
S'\xb0\xf4\xeb\xcdz\x1fE@\xe8\x0cs7-\x17C\xc0'
tbag1008
(g1009
(I0
tS'b'
tRp1455
(I1
(I2
tg1012
I00
S' \x17m\xd7\xb9i"@\xb4\xbc\x0e\x1c\x8e\xe3/\xc0'
tbag1008
(g1009
(I0
tS'b'
tRp1456
(I1
(I2
tg1012
I00
S'h\x97\x8b\x01\x9f\xfb=\xc0x\xc2\x1a^U\xf1A\xc0'
tbag1008
(g1009
(I0
tS'b'
tRp1457
(I1
(I2
tg1012
I00
S'\xc4|~\xa1\xfb\x011@T\x00M\xd7Xi3\xc0'
tbag1008
(g1009
(I0
tS'b'
tRp1458
(I1
(I2
tg1012
I00
S'\xf0\x8c\xa6\xddh\xa7\x10\xc0\\\x84\xc3\xe5\xc1k@@'
tbag1008
(g1009
(I0
tS'b'
tRp1459
(I1
(I2
tg1012
I00
S'\x88b/\x025^+@\xa80\x1a\r\xc6\x1d@\xc0'
tbag1008
(g1009
(I0
tS'b'
tRp1460
(I1
(I2
tg1012
I00
S'<r\xa8\x8a\x1eX%\xc0\xf4`/\x977\xd09\xc0'
tbag1008
(g1009
(I0
tS'b'
tRp1461
(I1
(I2
tg1012
I00
S'\xc8[\xae\x08\x00\x93\x13@\x07\x8a\x19\xab\xe2\xeb6\xc0'
tbag1008
(g1009
(I0
tS'b'
tRp1462
(I1
(I2
tg1012
I00
S'\xb0\x1e\xb2\xc4\x04a%@\xc0\xf7\x15!\xa9\xce\x1f\xc0'
tbag1008
(g1009
(I0
tS'b'
tRp1463
(I1
(I2
tg1012
I00
S'\x9c\xf5\xe4\xffh\x07A@\x1e^\xea\x9e^qB\xc0'
tbag1008
(g1009
(I0
tS'b'
tRp1464
(I1
(I2
tg1012
I00
S'\x10\xc2Q\x90\xacA\x19@\x88\x9f1\xd8Ld7\xc0'
tbag1008
(g1009
(I0
tS'b'
tRp1465
(I1
(I2
tg1012
I00
S'\xa8rnwNI\x14\xc0\xf8\xeb5F\xda\xa1@\xc0'
tbag1008
(g1009
(I0
tS'b'
tRp1466
(I1
(I2
tg1012
I00
S'\x00<\x83\x00\xf6\x02\r@l(\xd1\xaf\x10\xda8@'
tbag1008
(g1009
(I0
tS'b'
tRp1467
(I1
(I2
tg1012
I00
S'\xb8\xf4\xbc\xc6\x9aA2@\xb0\x7fz\xd1m\x80\x1d\xc0'
tbag1008
(g1009
(I0
tS'b'
tRp1468
(I1
(I2
tg1012
I00
S'\x00\xbbzQ\xb7I\xd7\xbf\xeat\xf6]\xb5\xb45\xc0'
tbag1008
(g1009
(I0
tS'b'
tRp1469
(I1
(I2
tg1012
I00
S'Dy_\x9e]\xfa>\xc0.\x89\xf3ojT?\xc0'
tbag1008
(g1009
(I0
tS'b'
tRp1470
(I1
(I2
tg1012
I00
S'<\xb0\xf3\x870WC@H\xed&2\x1b\xfa<\xc0'
tbag1008
(g1009
(I0
tS'b'
tRp1471
(I1
(I2
tg1012
I00
S'\x10N\x8a\x08a\x03\x01\xc0\x80\xfe6\xef\xbb/\x12@'
tbag1008
(g1009
(I0
tS'b'
tRp1472
(I1
(I2
tg1012
I00
S'\x04\xa8\x94\xcb\x04\xd6B\xc0\xacq\xa1wT\xad9\xc0'
tbag1008
(g1009
(I0
tS'b'
tRp1473
(I1
(I2
tg1012
I00
S'X\xa7W\xc0mj2\xc0\x88\x97\x9c\x80\xac\xadC\xc0'
tbag1008
(g1009
(I0
tS'b'
tRp1474
(I1
(I2
tg1012
I00
S'\x14\x8e\x99\xd4\xf2\x9aF@\x10%\x15Z.\x85>\xc0'
tbag1008
(g1009
(I0
tS'b'
tRp1475
(I1
(I2
tg1012
I00
S'!;\xb2\xb5\x89YF\xc0#m\xf0I\xc1oB\xc0'
tbag1008
(g1009
(I0
tS'b'
tRp1476
(I1
(I2
tg1012
I00
S'\xd8\x1c)\x8ce\xed-@<\xb6a\xc0h\x0c!\xc0'
tbag1008
(g1009
(I0
tS'b'
tRp1477
(I1
(I2
tg1012
I00
S'`L\xa4_\x9d\xc5\x15\xc0h\xfcd\x97\xb4v0@'
tbag1008
(g1009
(I0
tS'b'
tRp1478
(I1
(I2
tg1012
I00
S'(\x19\xa4\xe4\x10\xde%\xc0f\xc3\x89\xacM\xf1A\xc0'
tbag1008
(g1009
(I0
tS'b'
tRp1479
(I1
(I2
tg1012
I00
S'\x10\xd8\x88-\xdb\x99\x1e\xc0\xe0=\x0e\xd6\xe8t\x07@'
tbag1008
(g1009
(I0
tS'b'
tRp1480
(I1
(I2
tg1012
I00
S'\x00\xf9\x98UH\xc9\xd9\xbf\xf85\xc4\xb4\xe1f%@'
tbag1008
(g1009
(I0
tS'b'
tRp1481
(I1
(I2
tg1012
I00
S'\x89-N\x86N\x809\xc0\xe8\x16Eb_\xd5@\xc0'
tbag1008
(g1009
(I0
tS'b'
tRp1482
(I1
(I2
tg1012
I00
S'\xba\xbd\xdb\xbd\xa3yF@\x8a\x93^\x05\n\x9c;\xc0'
tbag1008
(g1009
(I0
tS'b'
tRp1483
(I1
(I2
tg1012
I00
S'\xc0L\x8fz\x9d\x15\xf8?\xecR\xa7\x83\xbd\xc0/\xc0'
tbag1008
(g1009
(I0
tS'b'
tRp1484
(I1
(I2
tg1012
I00
S"\xb4a\xdb<\xbd\x0eC\xc0j\xaa\xce'\x02KC\xc0"
tbag1008
(g1009
(I0
tS'b'
tRp1485
(I1
(I2
tg1012
I00
S'\xf6\xc5\x99\x0e\xf5\x136\xc0\xc121;\x80\xc1<\xc0'
tbag1008
(g1009
(I0
tS'b'
tRp1486
(I1
(I2
tg1012
I00
S'\x0c\xc5\xe1X\xab\xc1 \xc0\x04\xbdPb\xdf6"@'
tbag1008
(g1009
(I0
tS'b'
tRp1487
(I1
(I2
tg1012
I00
S"'\x85\xd2\xaf*\\F\xc0\x84\xa1\xede\xee\xfb@\xc0"
tbag1008
(g1009
(I0
tS'b'
tRp1488
(I1
(I2
tg1012
I00
S'\x88\x9b\xa0H\xb9|B\xc07d\xe4\x10\xfa\x8d:\xc0'
tbag1008
(g1009
(I0
tS'b'
tRp1489
(I1
(I2
tg1012
I00
S'zrM\xa6\x91nH@l\x89\xa6\n\xa2\xd89\xc0'
tbag1008
(g1009
(I0
tS'b'
tRp1490
(I1
(I2
tg1012
I00
S'\xd8\x7f\x94\x17\x02\x00C@\xd4\xf9G(\xbb\xf5A\xc0'
tbag1008
(g1009
(I0
tS'b'
tRp1491
(I1
(I2
tg1012
I00
S'\xd4\xa7Nk\x9b("\xc0\xb0\xe7\x0c\xb2\xa700\xc0'
tbag1008
(g1009
(I0
tS'b'
tRp1492
(I1
(I2
tg1012
I00
S"\xec\x8f\xd9\xc2\xb7\xa2A@/('\xc0\xa3T=\xc0"
tbag1008
(g1009
(I0
tS'b'
tRp1493
(I1
(I2
tg1012
I00
S'`T\xae\x98\xa87-@\x8a/\xe6ds\x17B@'
tbag1008
(g1009
(I0
tS'b'
tRp1494
(I1
(I2
tg1012
I00
S'\x00\x0f\xc6=d[\xef\xbf\xc0xSS\xdf\xe5\x14\xc0'
tbag1008
(g1009
(I0
tS'b'
tRp1495
(I1
(I2
tg1012
I00
S'\xe2\x06e\xea\x86\xfc5\xc0[^%\xa5\x7fZ9\xc0'
tbag1008
(g1009
(I0
tS'b'
tRp1496
(I1
(I2
tg1012
I00
S'\x86\x91\xd5N\x88\xff@@\xaf\xc2Y\x04\xfbNA\xc0'
tbag1008
(g1009
(I0
tS'b'
tRp1497
(I1
(I2
tg1012
I00
S'\x18 \xdb\x95\x8dz\x1a@\x00])\x02_I\xc9?'
tbag1008
(g1009
(I0
tS'b'
tRp1498
(I1
(I2
tg1012
I00
S'\x14e\x9dV\x9eZ#\xc0\x00\xaa\x82\xc8\xe3\xd0\xf0?'
tbag1008
(g1009
(I0
tS'b'
tRp1499
(I1
(I2
tg1012
I00
S'\x14\xa7ZC\xed\xbf1@(:G\xca7#\x1c\xc0'
tbag1008
(g1009
(I0
tS'b'
tRp1500
(I1
(I2
tg1012
I00
S'\xb0f\x85Y}\xd7\x0f@\xae~\xa0V:h;\xc0'
tbag1008
(g1009
(I0
tS'b'
tRp1501
(I1
(I2
tg1012
I00
S'\x16\xa1\xe1\xf8V\x92@\xc0LP9\xa2H\x0c@\xc0'
tbag1008
(g1009
(I0
tS'b'
tRp1502
(I1
(I2
tg1012
I00
S'\xc8<\xb2\xad\xba\x0fE@O\x950J.\xc8@\xc0'
tbag1008
(g1009
(I0
tS'b'
tRp1503
(I1
(I2
tg1012
I00
S'x\x13R=\x97\x8c5@PB\x90&\x17|C\xc0'
tbag1008
(g1009
(I0
tS'b'
tRp1504
(I1
(I2
tg1012
I00
S'\xc0\xbe\x03\x160B\x18@\x1a\x1cK\xc4\x13)1\xc0'
tbag1008
(g1009
(I0
tS'b'
tRp1505
(I1
(I2
tg1012
I00
S'\x80\x89T\xb6n\xfb3@\x10\xea\xac\xc8Y\xc6"\xc0'
tbag1008
(g1009
(I0
tS'b'
tRp1506
(I1
(I2
tg1012
I00
S'1-\xf2\x05\xe1\x9dF\xc0\xb8\xc6C\x80\xa3\xceB\xc0'
tbag1008
(g1009
(I0
tS'b'
tRp1507
(I1
(I2
tg1012
I00
S'\xd4(b\x17Sv"\xc0\xfc\x9c7\xf0\xdc\xcb+@'
tbag1008
(g1009
(I0
tS'b'
tRp1508
(I1
(I2
tg1012
I00
S'\x80Ao|\x80\xc1,@\xe8S\xe1\x0f<\x7f<@'
tbag1008
(g1009
(I0
tS'b'
tRp1509
(I1
(I2
tg1012
I00
S'\x08zZs \x0eC@\xe9\xfbo\xa5\xe2\x15A\xc0'
tbag1008
(g1009
(I0
tS'b'
tRp1510
(I1
(I2
tg1012
I00
S'\x8c\xf1\x056o\x953@\xdamx\xb8\xa3\xefA@'
tbag1008
(g1009
(I0
tS'b'
tRp1511
(I1
(I2
tg1012
I00
S'\x80\xf5k\x0eF\x01\r@\xa2\x91|S\xf4\xf0C@'
tbag1008
(g1009
(I0
tS'b'
tRp1512
(I1
(I2
tg1012
I00
S'X\xa2ER\xe5K\x14@2]\x17f}\x15@@'
tbag1008
(g1009
(I0
tS'b'
tRp1513
(I1
(I2
tg1012
I00
S'\xd0\xdc\x03`K\x01\x1c\xc00tGGk\x0e\x18\xc0'
tbag1008
(g1009
(I0
tS'b'
tRp1514
(I1
(I2
tg1012
I00
S'\x10\x80\xda\x14<\x06\x0b@l\xbab\xff\x7f\x90*@'
tbag1008
(g1009
(I0
tS'b'
tRp1515
(I1
(I2
tg1012
I00
S'\x80\x87$\xf1\x82\xfa\xe3\xbf\x90\xf4?;\xac\nH@'
tbag1008
(g1009
(I0
tS'b'
tRp1516
(I1
(I2
tg1012
I00
S'\xa0C\xf9\xa8\x19\xe4\xf3\xbfP/\xd53\xf6f(@'
tbag1008
(g1009
(I0
tS'b'
tRp1517
(I1
(I2
tg1012
I00
S'P\xf6\xba\x0eT\xa1\x17@\x80K\x9b\x9d\xb7\x1b\x0f\xc0'
tbag1008
(g1009
(I0
tS'b'
tRp1518
(I1
(I2
tg1012
I00
S'<\x1e\xc0\xa3|W&@$\xd3\xd7\x8bM;7@'
tbag1008
(g1009
(I0
tS'b'
tRp1519
(I1
(I2
tg1012
I00
S"\xe4\x04\xdeg\xc8q@@\xf6\xb3'\xfd<\xaaC\xc0"
tbag1008
(g1009
(I0
tS'b'
tRp1520
(I1
(I2
tg1012
I00
S'\x14\xc9\xb0\x12\xea\xb9 @d\xf4_\xc8\xf6\nA\xc0'
tbag1008
(g1009
(I0
tS'b'
tRp1521
(I1
(I2
tg1012
I00
S'h\xaf\x90\xad\xb2\x06(\xc0\xa9c\x84\r|\xda=\xc0'
tbag1008
(g1009
(I0
tS'b'
tRp1522
(I1
(I2
tg1012
I00
S'\x10\x1e\xe0u\xef\xf6\x1e\xc0\xd1\xd9\xc3\x14\xe1G;\xc0'
tbag1008
(g1009
(I0
tS'b'
tRp1523
(I1
(I2
tg1012
I00
S'DN\xc5\x1a\xf8{F@\xd6z#\x1bF\xda;\xc0'
tbag1008
(g1009
(I0
tS'b'
tRp1524
(I1
(I2
tg1012
I00
S'\xbc\x98\xf7\x8a\x92\xa7;@\t\x9b\xc5\xfd?(C\xc0'
tbag1008
(g1009
(I0
tS'b'
tRp1525
(I1
(I2
tg1012
I00
S"\xf0' \xcc}n\x10@;\xbc\x8a\tn\xc6<\xc0"
tbag1008
(g1009
(I0
tS'b'
tRp1526
(I1
(I2
tg1012
I00
S'\xe0\xd8\x1fZ\xaa\x80\xfe?\x00\x04=B\xa9"\xcf\xbf'
tbag1008
(g1009
(I0
tS'b'
tRp1527
(I1
(I2
tg1012
I00
S" \xc3\x8c\xeaq\xae\x1c@\xa0\xe1[\x96~'\xf0?"
tbag1008
(g1009
(I0
tS'b'
tRp1528
(I1
(I2
tg1012
I00
S'\x88-\x07i\xfa\xc80@`\x08r\xb7\xbaY6@'
tbag1008
(g1009
(I0
tS'b'
tRp1529
(I1
(I2
tg1012
I00
S'\xf0D^Gp{\x14\xc0|\x99K?\xdf\x89G@'
tbag1008
(g1009
(I0
tS'b'
tRp1530
(I1
(I2
tg1012
I00
S'\x80\xd6\xc8\xe8\xa6\x8a(\xc0i\xd7\xb7\xf6ITC\xc0'
tbag1008
(g1009
(I0
tS'b'
tRp1531
(I1
(I2
tg1012
I00
S'0R\x12Y\xa9=\x11\xc0 \xfe\xe7%H\xcc:@'
tbag1008
(g1009
(I0
tS'b'
tRp1532
(I1
(I2
tg1012
I00
S'\x90tA\xf1Ck\x06@\x04\x01\x07\xc4\x88U,\xc0'
tbag1008
(g1009
(I0
tS'b'
tRp1533
(I1
(I2
tg1012
I00
S'\x10\xa0jz\xc1\x08$@\xc2\x1f\xd1p>IB@'
tbag1008
(g1009
(I0
tS'b'
tRp1534
(I1
(I2
tg1012
I00
S'\xf2\xfb\x9b)FzC\xc0\x88\xc9\xaf\x99iVA\xc0'
tbag1008
(g1009
(I0
tS'b'
tRp1535
(I1
(I2
tg1012
I00
S'@\xf3w\x9f\xb4\xec\x14@rw\xfb\x02\xbb\xe3A@'
tbag1008
(g1009
(I0
tS'b'
tRp1536
(I1
(I2
tg1012
I00
S'd\x9d\xe0\xf6\xf8\x8d3@<\xc4K\x97\x0b6B\xc0'
tbag1008
(g1009
(I0
tS'b'
tRp1537
(I1
(I2
tg1012
I00
S'\xd0\\v\xfa\x8f\x0b\x19\xc0\xe0\x83\xa5\x18\x1e\xe6"\xc0'
tbag1008
(g1009
(I0
tS'b'
tRp1538
(I1
(I2
tg1012
I00
S'\xc8D\x8a\x95\x99\xf3\x1c\xc0\xe8f??\x1b\xbb\x13\xc0'
tbag1008
(g1009
(I0
tS'b'
tRp1539
(I1
(I2
tg1012
I00
S'\x00\xd2\xf5\x9a\x89\xf1\xcc? \x17\xed_!\xdc\x1b@'
tbag1008
(g1009
(I0
tS'b'
tRp1540
(I1
(I2
tg1012
I00
S'\x14\xc1\x92u\xad\x813@D\x18\xc2\xfc\xc4\x00#@'
tbag1008
(g1009
(I0
tS'b'
tRp1541
(I1
(I2
tg1012
I00
S'\xf8\x8fz\x97&3\x1b\xc0j\xe2\x8aD\xd8,C\xc0'
tbag1008
(g1009
(I0
tS'b'
tRp1542
(I1
(I2
tg1012
I00
S'\xc6\x87\xc3\xb7\x13\x1fD@I\xdc\xef\x10\x1f\xd2?\xc0'
tbag1008
(g1009
(I0
tS'b'
tRp1543
(I1
(I2
tg1012
I00
S'p\n\xe0\xec\xd6\xe0.@\xa1!HU\xd1wC\xc0'
tbag1008
(g1009
(I0
tS'b'
tRp1544
(I1
(I2
tg1012
I00
S'0&\x97\x131W,@\xa8/\xdd\xb4J\xa3\x1a@'
tbag1008
(g1009
(I0
tS'b'
tRp1545
(I1
(I2
tg1012
I00
S'\x82\x89\x1a\x94|;C\xc0?\xc6\x9d\xf9g\x9a;\xc0'
tbag1008
(g1009
(I0
tS'b'
tRp1546
(I1
(I2
tg1012
I00
S'D\x93\x9e\xaa,\x0cF\xc0\x95\x1ek\xab0\xccA\xc0'
tbag1008
(g1009
(I0
tS'b'
tRp1547
(I1
(I2
tg1012
I00
S'\xe8Z\xf9\xda\x1a\x87/@\x10-`\x10\xec\x14%\xc0'
tbag1008
(g1009
(I0
tS'b'
tRp1548
(I1
(I2
tg1012
I00
S'8o\xa8\xbdJ\xb5\x1c@Hds\x0b\x95\xb9B@'
tbag1008
(g1009
(I0
tS'b'
tRp1549
(I1
(I2
tg1012
I00
S'\xb8\x8a\xab\xcdC\x83)@\xf6\xcf\xc3\x03\xc7DA@'
tbag1008
(g1009
(I0
tS'b'
tRp1550
(I1
(I2
tg1012
I00
S'\x08\x94\x16]\x08\x07B\xc0\x07\xf7?\xf6\x93\xcf@\xc0'
tbag1008
(g1009
(I0
tS'b'
tRp1551
(I1
(I2
tg1012
I00
S'\xf0\xe13rgH%@\xb8N\xe6\xd1\xbc\xa6\x15\xc0'
tbag1008
(g1009
(I0
tS'b'
tRp1552
(I1
(I2
tg1012
I00
S'\xd0\x11@F)\x8d\x11@\xc0srP\x12\xd7\xf6?'
tbag1008
(g1009
(I0
tS'b'
tRp1553
(I1
(I2
tg1012
I00
S'\x94\xaa\xbb\x90\x8c4B@\x9a\x15\x84xCX:\xc0'
tbag1008
(g1009
(I0
tS'b'
tRp1554
(I1
(I2
tg1012
I00
S'\xa0 \xa2\x91\x97\xff\xf3\xbf4og\xe9\xc8\xf6C@'
tbag1008
(g1009
(I0
tS'b'
tRp1555
(I1
(I2
tg1012
I00
S'\xd82\x83\x00N\x14+@\x8e\xcd \xe2O\xebA\xc0'
tbag1008
(g1009
(I0
tS'b'
tRp1556
(I1
(I2
tg1012
I00
S'X\x92\xe6\x00\x04\xe2\x10@\x82q0\xd9C\xfd8\xc0'
tbag1008
(g1009
(I0
tS'b'
tRp1557
(I1
(I2
tg1012
I00
S'\xf8\x1b\xf4Q\xd7\x89@\xc0N\x8c\xbd\xd0\x04\xcdA\xc0'
tbag1008
(g1009
(I0
tS'b'
tRp1558
(I1
(I2
tg1012
I00
S'\xecs\xb7\xd7?;?\xc0\x96_y\xff\xbe\xdc9\xc0'
tbag1008
(g1009
(I0
tS'b'
tRp1559
(I1
(I2
tg1012
I00
S'\x94\x87\xab\xcf\x14\x8bB@\xa0Sh_Q\xd8?\xc0'
tbag1008
(g1009
(I0
tS'b'
tRp1560
(I1
(I2
tg1012
I00
S'J\xf1\x85\x8f>bB@)\x7fV\x99\xfd\xa9<\xc0'
tbag1008
(g1009
(I0
tS'b'
tRp1561
(I1
(I2
tg1012
I00
S'\xd4\xac@>\xb4a)\xc0\xbc\xe8\x07au\x1dB\xc0'
tbag1008
(g1009
(I0
tS'b'
tRp1562
(I1
(I2
tg1012
I00
S'\xa0<\xa6_\xf1\xa5\xf0\xbf\x0f\xab\xa2{\xef\xe1=\xc0'
tbag1008
(g1009
(I0
tS'b'
tRp1563
(I1
(I2
tg1012
I00
S'd\xe2;v\x15/2@\xe4\x04\x85\xbb[\xf4>@'
tbag1008
(g1009
(I0
tS'b'
tRp1564
(I1
(I2
tg1012
I00
S'\xbe\x81\x04\x03\x9biA@}\xc3n\x92@~B\xc0'
tbag1008
(g1009
(I0
tS'b'
tRp1565
(I1
(I2
tg1012
I00
S'\x0b\x1a\xc1\xeb!\x94;\xc0\xb2f\xeb\x91\x0c\xa6:\xc0'
tbag1008
(g1009
(I0
tS'b'
tRp1566
(I1
(I2
tg1012
I00
S'p\x08 q\xff\xb8\x14\xc0\xa6)t\xba|\x96@\xc0'
tbag1008
(g1009
(I0
tS'b'
tRp1567
(I1
(I2
tg1012
I00
S',\xdb\xdfmn\xb7(@4\xa8\xb8\xc1\x87G @'
tbag1008
(g1009
(I0
tS'b'
tRp1568
(I1
(I2
tg1012
I00
S'ts0\xba\xf2\xff"\xc0\x12\xa2\x82X\x82\xd3;\xc0'
tbag1008
(g1009
(I0
tS'b'
tRp1569
(I1
(I2
tg1012
I00
S'\xa0\x9f\x8c\xd8\xf4y\xfd\xbf\xa3\xd2)\xae\xa0U8\xc0'
tbag1008
(g1009
(I0
tS'b'
tRp1570
(I1
(I2
tg1012
I00
S'\xc0\xa4\x87\x17A\xc6\xee\xbf\x88\x02\x968Tv+\xc0'
tbag1008
(g1009
(I0
tS'b'
tRp1571
(I1
(I2
tg1012
I00
S'\xc0\xb80Q\x7fR$@\xb4\xc9\x08E\xd4\xd59@'
tbag1008
(g1009
(I0
tS'b'
tRp1572
(I1
(I2
tg1012
I00
S'd\xbc*\x86\x81t7@\xda\xe7\xa9\xb3{}A\xc0'
tbag1008
(g1009
(I0
tS'b'
tRp1573
(I1
(I2
tg1012
I00
S'\xd9a{a,[:\xc0|\x8bZ\xce\xed\xa6C\xc0'
tbag1008
(g1009
(I0
tS'b'
tRp1574
(I1
(I2
tg1012
I00
S'\x08tF\x8c\x03]\x12@2\x1b\xf1\xc1#\x8dH@'
tbag1008
(g1009
(I0
tS'b'
tRp1575
(I1
(I2
tg1012
I00
S'@0Q8{\x80\xf2?\x10\r\xb72\x95\xe0\x17@'
tbag1008
(g1009
(I0
tS'b'
tRp1576
(I1
(I2
tg1012
I00
S"D\x8c!nX\x96'@\xe0l\xdb+\\\xc0E@"
tbag1008
(g1009
(I0
tS'b'
tRp1577
(I1
(I2
tg1012
I00
S'\xf0j\xd0\xde\xf5\x93\x18@\xb8\xd6>\x1a!\xaa"\xc0'
tbag1008
(g1009
(I0
tS'b'
tRp1578
(I1
(I2
tg1012
I00
S'\xd2O\x9d\xf0\xc1\x12C\xc0\xcd\n\xcb\x1c_\xa9@\xc0'
tbag1008
(g1009
(I0
tS'b'
tRp1579
(I1
(I2
tg1012
I00
S'p\x92\x82\xdd\xbf\xeb\x0c@\x00\xeb\x86H\x18\xe8\x02@'
tbag1008
(g1009
(I0
tS'b'
tRp1580
(I1
(I2
tg1012
I00
S'u\xf1\xe9\x8f\x8buH\xc0\x8b!\xfb\xfag\xe7=\xc0'
tbag1008
(g1009
(I0
tS'b'
tRp1581
(I1
(I2
tg1012
I00
S'n\xcc\xa3\x81\xc5?E\xc0\xedhc]\x1d#@\xc0'
tbag1008
(g1009
(I0
tS'b'
tRp1582
(I1
(I2
tg1012
I00
S'\x80\xdcMk\x91\xab\x05@\x144|`\xee\xa1A@'
tbag1008
(g1009
(I0
tS'b'
tRp1583
(I1
(I2
tg1012
I00
S'\xf8(\xed2_\xcc(@\x88g\xa1\xf6\x1bA=@'
tbag1008
(g1009
(I0
tS'b'
tRp1584
(I1
(I2
tg1012
I00
S'|\x1a\x0bN\xf2<;@\xc8\x12\x96\x8cPi>\xc0'
tbag1008
(g1009
(I0
tS'b'
tRp1585
(I1
(I2
tg1012
I00
S'\x00\xfc\xb4IZ{\xd0\xbf\x8aq\xa9a$\xae@@'
tbag1008
(g1009
(I0
tS'b'
tRp1586
(I1
(I2
tg1012
I00
S'\x80f\xdd\xa7\x13X\xef? \xf6\x11\x8c/_\xf0\xbf'
tbag1008
(g1009
(I0
tS'b'
tRp1587
(I1
(I2
tg1012
I00
S'@@\xbc\xab\xce\x03$@\x8c\xb6\x14\xe5\xc0;:@'
tbag1008
(g1009
(I0
tS'b'
tRp1588
(I1
(I2
tg1012
I00
S'p\xc2\xe2\xa1X\x8a\x05@HD\x86\xc5\xad\x96*\xc0'
tbag1008
(g1009
(I0
tS'b'
tRp1589
(I1
(I2
tg1012
I00
S'A!\x80\xdf\t@C\xc0\xb5(~\xa9\x1b\xefC\xc0'
tbag1008
(g1009
(I0
tS'b'
tRp1590
(I1
(I2
tg1012
I00
S'pF\x16\x93\x83(-@\x90\xbb\x9b*\r\x17\x03@'
tbag1008
(g1009
(I0
tS'b'
tRp1591
(I1
(I2
tg1012
I00
S'4\xc2I\x88\x06Z*@\x0c\x00QZ\xf7F@@'
tbag1008
(g1009
(I0
tS'b'
tRp1592
(I1
(I2
tg1012
I00
S'\xce"\xac5\xc5\xddE\xc0\xcf\x0e\x84&\x1c\x80A\xc0'
tbag1008
(g1009
(I0
tS'b'
tRp1593
(I1
(I2
tg1012
I00
S'\x10V\xb9\xea\xd9\xcaG@\x8d\xf7\x91\xdd\xe4\xc4<\xc0'
tbag1008
(g1009
(I0
tS'b'
tRp1594
(I1
(I2
tg1012
I00
S'\xfa\xa4\xa0[.\xdf3\xc0\x91\xa6\x8c^%3<\xc0'
tbag1008
(g1009
(I0
tS'b'
tRp1595
(I1
(I2
tg1012
I00
S'\x88\xcdO-\x13\xe3D@\x1c\xd8\x92\xbe\xdf\x0b=\xc0'
tbag1008
(g1009
(I0
tS'b'
tRp1596
(I1
(I2
tg1012
I00
S"X:\xf5n\xa3\x88'@r!\xb9X\xb3!C@"
tbag1008
(g1009
(I0
tS'b'
tRp1597
(I1
(I2
tg1012
I00
S'Fr\xa9\xbb\xe4I0\xc0`\x05+*\xcb\xdc@\xc0'
tbag1008
(g1009
(I0
tS'b'
tRp1598
(I1
(I2
tg1012
I00
S'\x12\x16\xcf\xe6\xe8pH@\xe8\x10\xa2\x0fq\xf9B\xc0'
tbag1008
(g1009
(I0
tS'b'
tRp1599
(I1
(I2
tg1012
I00
S'\x98\x86\x96}\x0by+@\x8d-K\x1bx\xbd6\xc0'
tbag1008
(g1009
(I0
tS'b'
tRp1600
(I1
(I2
tg1012
I00
S'\x00CW\xfc\x05\x0b\xe8\xbf\xacex\x13\xb2\xe2%@'
tbag1008
(g1009
(I0
tS'b'
tRp1601
(I1
(I2
tg1012
I00
S'`\x9c\xbd\xac\xeej5@r\xc0tb\x06\xc4<\xc0'
tbag1008
(g1009
(I0
tS'b'
tRp1602
(I1
(I2
tg1012
I00
S'\x1e\x1e\xf2\xa1\x91\x84;\xc0]\xa4\xe5\xe3\x14\xb9C\xc0'
tbag1008
(g1009
(I0
tS'b'
tRp1603
(I1
(I2
tg1012
I00
S'\x94:\x05\xc1\x05\xf0 \xc0L[L\xd3\xd7K3\xc0'
tbag1008
(g1009
(I0
tS'b'
tRp1604
(I1
(I2
tg1012
I00
S'\xd8gz\xa7,\x88\x1a@D\xc9\xfc2\x04\x0cA\xc0'
tbag1008
(g1009
(I0
tS'b'
tRp1605
(I1
(I2
tg1012
I00
S'\x86\xe1\xaf\x82_kH@-\xb8Y\xf5H%B\xc0'
tbag1008
(g1009
(I0
tS'b'
tRp1606
(I1
(I2
tg1012
I00
S'\xc4,Zi\x15_1@ \xb0[\xd9 \x1cA\xc0'
tbag1008
(g1009
(I0
tS'b'
tRp1607
(I1
(I2
tg1012
I00
S'h\xbf\xb0\x9d+\xa68@ ?\xf4\x8a\xdcb?\xc0'
tbag1008
(g1009
(I0
tS'b'
tRp1608
(I1
(I2
tg1012
I00
S'l\xd1\xa2\x03U\x994\xc0\n&5\xf2\xf9I@\xc0'
tbag1008
(g1009
(I0
tS'b'
tRp1609
(I1
(I2
tg1012
I00
S'\xb0\xb8\xab>\xb0!\x04@|\x94\xb5\x7f\xbd.6@'
tbag1008
(g1009
(I0
tS'b'
tRp1610
(I1
(I2
tg1012
I00
S'PK\\n\xa2\xd72@h61\x1d\xc9W4@'
tbag1008
(g1009
(I0
tS'b'
tRp1611
(I1
(I2
tg1012
I00
S'p\xc5\xce\x04G\xef$@\xe0\x91ve\x19C@@'
tbag1008
(g1009
(I0
tS'b'
tRp1612
(I1
(I2
tg1012
I00
S'Pbz\xd5d\xe1\x01\xc0\x88\x13\xc5\x14\\\x86\x1a@'
tbag1008
(g1009
(I0
tS'b'
tRp1613
(I1
(I2
tg1012
I00
S'\xdc\x8e\xc1\xea\x8dg2@\xc0)\xa1\x87\xb0y?\xc0'
tbag1008
(g1009
(I0
tS'b'
tRp1614
(I1
(I2
tg1012
I00
S'\xa0\xff\xbe\xad\xee\x8e2@\xe0Nr]+\tC\xc0'
tbag1008
(g1009
(I0
tS'b'
tRp1615
(I1
(I2
tg1012
I00
S'\x00\xca\x8b\xf6\xe8\x1a#\xc0D\x8a((\xb7\x0c1@'
tbag1008
(g1009
(I0
tS'b'
tRp1616
(I1
(I2
tg1012
I00
S'\x1co;\xe3\xe2\xd7C@\xc7\xc5P\r)=<\xc0'
tbag1008
(g1009
(I0
tS'b'
tRp1617
(I1
(I2
tg1012
I00
S'\xb0Xi\x8a\x01\x97*@\xf0\x91|\x8d\xc7\xe8E@'
tbag1008
(g1009
(I0
tS'b'
tRp1618
(I1
(I2
tg1012
I00
S'@\x84x:\x03\x89\xff?\xea\xc2Je_\xc2B\xc0'
tbag1008
(g1009
(I0
tS'b'
tRp1619
(I1
(I2
tg1012
I00
S'@\x85M(\xc0\x93\xe8?\x11Q\xb1\x1c\xc0\xe2A\xc0'
tbag1008
(g1009
(I0
tS'b'
tRp1620
(I1
(I2
tg1012
I00
S'\xd4\xd1\xb3=z\x976\xc0\xf6k\xea0\xf5\x13;\xc0'
tbag1008
(g1009
(I0
tS'b'
tRp1621
(I1
(I2
tg1012
I00
S'p\xd7\x11\x15\xa6\xdc\x14@1\x12\xaa\x02 o?\xc0'
tbag1008
(g1009
(I0
tS'b'
tRp1622
(I1
(I2
tg1012
I00
S'\x10\x01++\x01\x99&@\x86\xc7\x0eL\x9aOF@'
tbag1008
(g1009
(I0
tS'b'
tRp1623
(I1
(I2
tg1012
I00
S'\x00v\xcd\x80a\x87\x15\xc0\x98\xee<\x0f4\x134@'
tbag1008
(g1009
(I0
tS'b'
tRp1624
(I1
(I2
tg1012
I00
S']\x1ae \x1ba?\xc0\x92\xd3\x8f\xb6\xf1\x92;\xc0'
tbag1008
(g1009
(I0
tS'b'
tRp1625
(I1
(I2
tg1012
I00
S"\x98\xbd\x121\xe97\x1a\xc0@g\xf6\xa5%T'\xc0"
tbag1008
(g1009
(I0
tS'b'
tRp1626
(I1
(I2
tg1012
I00
S'<(\xd9\x84\x0b\xa8 @\x03x+&\xfd\xb1;\xc0'
tbag1008
(g1009
(I0
tS'b'
tRp1627
(I1
(I2
tg1012
I00
S'\x00\x85\xc8D:\xf4\xd0\xbf\xd0\xea\xfaY\x0fv"\xc0'
tbag1008
(g1009
(I0
tS'b'
tRp1628
(I1
(I2
tg1012
I00
S'\xa0\xbc8\x8a\xf9\x01\xf3?p\xe67\xbd$\x8d\x02\xc0'
tbag1008
(g1009
(I0
tS'b'
tRp1629
(I1
(I2
tg1012
I00
S'8\xa1Gr\x97\xda<@7v\xc1\xbca\x17A\xc0'
tbag1008
(g1009
(I0
tS'b'
tRp1630
(I1
(I2
tg1012
I00
S'2\xe6\xf8\x1cx\t=\xc08\xe1\x19\xd1T\xb1@\xc0'
tbag1008
(g1009
(I0
tS'b'
tRp1631
(I1
(I2
tg1012
I00
S' Yi}\xd2!\x08\xc0\x0c\xe5\x89\x88p\xde$@'
tbag1008
(g1009
(I0
tS'b'
tRp1632
(I1
(I2
tg1012
I00
S'\xf2\x8e\xb5`\x8d\xf6G@\x8fA\x99\xe1\x05\xbcA\xc0'
tbag1008
(g1009
(I0
tS'b'
tRp1633
(I1
(I2
tg1012
I00
S'\x10\xb4j\x88\xcb\xb1#@\xc6\xa3\x08C#\x18E@'
tbag1008
(g1009
(I0
tS'b'
tRp1634
(I1
(I2
tg1012
I00
S'\xc0\xfa\xca\x97/\n\xe6?\xe0"\x18\x18[<.\xc0'
tbag1008
(g1009
(I0
tS'b'
tRp1635
(I1
(I2
tg1012
I00
S"J\x0b\xe1&P\xaaE@\xe4T>'s\xff@\xc0"
tbag1008
(g1009
(I0
tS'b'
tRp1636
(I1
(I2
tg1012
I00
S'd\xd1\x04\xb5\x86\x808@$\xf0\xb3\xb7\xa0\xc1<\xc0'
tbag1008
(g1009
(I0
tS'b'
tRp1637
(I1
(I2
tg1012
I00
S'\x884\xf4S\xb6B.@\x18\xcd\xf9.6YB\xc0'
tbag1008
(g1009
(I0
tS'b'
tRp1638
(I1
(I2
tg1012
I00
S'\x80.\x18\xbf\x87\xf4\x0c@\xd0\x94\x1b\n\x82\x94*\xc0'
tbag1008
(g1009
(I0
tS'b'
tRp1639
(I1
(I2
tg1012
I00
S'\xa0\x08\x1e\xa1e\x97\xfb\xbf\x00\xa02\x1bK\xc3\xd3?'
tbag1008
(g1009
(I0
tS'b'
tRp1640
(I1
(I2
tg1012
I00
S'`V\x00\xa6^\x10\xfa\xbf\xb4G\xb4\tI\xe95\xc0'
tbag1008
(g1009
(I0
tS'b'
tRp1641
(I1
(I2
tg1012
I00
S'<\xafA\xfd\x92\xed3@\xd0\x82\xa1\x07\x88\xc7+\xc0'
tbag1008
(g1009
(I0
tS'b'
tRp1642
(I1
(I2
tg1012
I00
S'$\x11d\x87 &F@\x82\x81\xb8N\xd9\xef;\xc0'
tbag1008
(g1009
(I0
tS'b'
tRp1643
(I1
(I2
tg1012
I00
S'`\xa8\xcf$lo\x04@\xec\xfdP^\x02\xed#@'
tbag1008
(g1009
(I0
tS'b'
tRp1644
(I1
(I2
tg1012
I00
S'\xfc\\a$\xd0\xf1$@\xc0g;\x92\x84\x97\xe2?'
tbag1008
(g1009
(I0
tS'b'
tRp1645
(I1
(I2
tg1012
I00
S'\xf4\xf4\x8c\xd9\xe8R*@D[>cY\xb0=@'
tbag1008
(g1009
(I0
tS'b'
tRp1646
(I1
(I2
tg1012
I00
S'`\xccfU\xee\xde\xf5\xbfDWg\n8\xfc3\xc0'
tbag1008
(g1009
(I0
tS'b'
tRp1647
(I1
(I2
tg1012
I00
S'\x88p\xdb&/5/@\x9c\xda\r\xb47XH@'
tbag1008
(g1009
(I0
tS'b'
tRp1648
(I1
(I2
tg1012
I00
S'H\xd5\xde\xa8\x01\xb2\x14@\x80h\xcd<\xd8\x9e\xf3\xbf'
tbag1008
(g1009
(I0
tS'b'
tRp1649
(I1
(I2
tg1012
I00
S'\xbc\xd7"h\x18;0@\xb6\x0f\xd3\xc3\xf1\xa4G@'
tbag1008
(g1009
(I0
tS'b'
tRp1650
(I1
(I2
tg1012
I00
S"\x10'&\x01\xc5\xf9\x15\xc00\xce\xa4\x981\r%\xc0"
tbag1008
(g1009
(I0
tS'b'
tRp1651
(I1
(I2
tg1012
I00
S'\xe6\xe4\x98\x90\xcf*F@\x94\xc6!\x06\xa6\xfcB\xc0'
tbag1008
(g1009
(I0
tS'b'
tRp1652
(I1
(I2
tg1012
I00
S'\xba2\\\xad"\x03G@\x93\x88\x17\x93\xf1\xb2<\xc0'
tbag1008
(g1009
(I0
tS'b'
tRp1653
(I1
(I2
tg1012
I00
S'@\xbf\\\xa3\x15{\r@\xd4\x81\x19\x19\x95Z \xc0'
tbag1008
(g1009
(I0
tS'b'
tRp1654
(I1
(I2
tg1012
I00
S'\xb0J!\xdf\xbc\x0b>@o\x8c\x05\x95z\x9aA\xc0'
tbag1008
(g1009
(I0
tS'b'
tRp1655
(I1
(I2
tg1012
I00
S'\x800\xee\x9d\xe8\xb5\x0e@P\xd4\xce \xb3\x10$@'
tbag1008
(g1009
(I0
tS'b'
tRp1656
(I1
(I2
tg1012
I00
S'\xa0\xfcm\nv\xd8!@\x80\x8fF\x89@\x82\xf3?'
tbag1008
(g1009
(I0
tS'b'
tRp1657
(I1
(I2
tg1012
I00
S"\x18\xe0\xfa\xa9\x9b\x8f'@l\xb9V88\xa3C\xc0"
tbag1008
(g1009
(I0
tS'b'
tRp1658
(I1
(I2
tg1012
I00
S'P\x14\xdf\xfc\x7fU\x07\xc0\x94)\x00\xaf.\x0c0@'
tbag1008
(g1009
(I0
tS'b'
tRp1659
(I1
(I2
tg1012
I00
S'\xa5\x94\xd6\xe1m\xfb9\xc0\xc8=\x82\xdf\xd2\xbbA\xc0'
tbag1008
(g1009
(I0
tS'b'
tRp1660
(I1
(I2
tg1012
I00
S"\xa3\x9e\xf7^\xe6\xa0;\xc0f'\xb2\xfe\xc58A\xc0"
tbag1008
(g1009
(I0
tS'b'
tRp1661
(I1
(I2
tg1012
I00
S'\xb1s\x83%\xdeaG\xc0\x94\x8dC\x18\xf8\x00<\xc0'
tbag1008
(g1009
(I0
tS'b'
tRp1662
(I1
(I2
tg1012
I00
S'\x00\xe7\xd3j\xa2\xd2\xe5?b\xb2\xd7@\xd0^>\xc0'
tbag1008
(g1009
(I0
tS'b'
tRp1663
(I1
(I2
tg1012
I00
S'\x98\x8cr\x85\xc4~H@z\xb6\xe4\xe0\xd0\xf7C\xc0'
tbag1008
(g1009
(I0
tS'b'
tRp1664
(I1
(I2
tg1012
I00
S'd\rI\xfd\xccA@@\xa2N\xf1\x14\xfc\x03A\xc0'
tbag1008
(g1009
(I0
tS'b'
tRp1665
(I1
(I2
tg1012
I00
S'x9p\x8e\xa1\xa3:\xc0\xe4\xdet^\xaa\xbc<\xc0'
tbag1008
(g1009
(I0
tS'b'
tRp1666
(I1
(I2
tg1012
I00
S'F\x18?\xb0\x1a\x93@\xc0\x8aF\xa0X\xf76=\xc0'
tbag1008
(g1009
(I0
tS'b'
tRp1667
(I1
(I2
tg1012
I00
S'\\Y4K\xa4\x0b9\xc0:\xbc\x90\xc8\xbc:?\xc0'
tbag1008
(g1009
(I0
tS'b'
tRp1668
(I1
(I2
tg1012
I00
S'\x00\xb1\xce~b\xd8\xeb?\xfe\xcd\xe6\x11i\xa4G@'
tbag1008
(g1009
(I0
tS'b'
tRp1669
(I1
(I2
tg1012
I00
S'X\xc5r\x91h\x95\x15\xc0\xd4\x99\x9a\xc0\xd4\xb9)\xc0'
tbag1008
(g1009
(I0
tS'b'
tRp1670
(I1
(I2
tg1012
I00
S',\xbc:\x9cYC \xc0\xb8*=.\xd3j\x1e@'
tbag1008
(g1009
(I0
tS'b'
tRp1671
(I1
(I2
tg1012
I00
S'\xbc\xdd\x92\xcb\xe8>E@\x8bV\x05wJ\xfb:\xc0'
tbag1008
(g1009
(I0
tS'b'
tRp1672
(I1
(I2
tg1012
I00
S'P\xffR\x956\xdf\x18\xc0D\x82\x8f\xe9)\xa5,\xc0'
tbag1008
(g1009
(I0
tS'b'
tRp1673
(I1
(I2
tg1012
I00
S'\x00\xfe\xc1\xe6\xefa\xb3?\xc0\x8c\xdf\xe0y\xffD@'
tbag1008
(g1009
(I0
tS'b'
tRp1674
(I1
(I2
tg1012
I00
S'\xd0\x18\xe7\xc2\xacb\x1a@\x04\xf0F\x9b\x00U \xc0'
tbag1008
(g1009
(I0
tS'b'
tRp1675
(I1
(I2
tg1012
I00
S'@m>\xf8\xbb\x140@\xec\xf5\xbd\xbd^w-\xc0'
tbag1008
(g1009
(I0
tS'b'
tRp1676
(I1
(I2
tg1012
I00
S'\x00\x1dLZs\x05\xc9\xbf\xd4i6\x16Hp#\xc0'
tbag1008
(g1009
(I0
tS'b'
tRp1677
(I1
(I2
tg1012
I00
S'p=&giU\x04\xc0p+\xdb\x9d\xecB;\xc0'
tbag1008
(g1009
(I0
tS'b'
tRp1678
(I1
(I2
tg1012
I00
S'\x807\x88\x89f\xb3.@\n\x0b\x94\xde\xfb\x90C\xc0'
tbag1008
(g1009
(I0
tS'b'
tRp1679
(I1
(I2
tg1012
I00
S'F\xd1E\t\x19\x9b1\xc0x\x10<\xbc9\x88=\xc0'
tbag1008
(g1009
(I0
tS'b'
tRp1680
(I1
(I2
tg1012
I00
S'h\xad\xe6\xa5\x07\xfb\x1b@pX\xaa\xd4%\xeb:@'
tbag1008
(g1009
(I0
tS'b'
tRp1681
(I1
(I2
tg1012
I00
S'\x90\xa1\x8aTm\x91\x03@\xcc\x14\xd3 }\x0f9@'
tbag1008
(g1009
(I0
tS'b'
tRp1682
(I1
(I2
tg1012
I00
S'T\xe8\x99\x92R\xbb0@"\x8c\xb7\x9a\xa0\xf0H@'
tbag1008
(g1009
(I0
tS'b'
tRp1683
(I1
(I2
tg1012
I00
S'\xaf\xbbK\x9a.SD\xc0\x80\x94\xca\xb4QV?\xc0'
tbag1008
(g1009
(I0
tS'b'
tRp1684
(I1
(I2
tg1012
I00
S'\xf0U^a8\x0b&\xc0\xd0\xc3\xec\x87\x01#A\xc0'
tbag1008
(g1009
(I0
tS'b'
tRp1685
(I1
(I2
tg1012
I00
S'\x00\x8c\xe8\xad\x8c\x93\xf4?\x8a\x1f\xa9\xd9\x06\x172\xc0'
tbag1008
(g1009
(I0
tS'b'
tRp1686
(I1
(I2
tg1012
I00
S'\x00\x9cg{\x0b+\xa3\xbf\x949\xe5\xbai\x0c3@'
tbag1008
(g1009
(I0
tS'b'
tRp1687
(I1
(I2
tg1012
I00
S'XS[\x00\xce\x89\x1d\xc0p|\xb4!Q\x91\x11@'
tbag1008
(g1009
(I0
tS'b'
tRp1688
(I1
(I2
tg1012
I00
S'\xa4\xf7[Fp\xe92@\x88\xf0\xdb\x9dB\x958@'
tbag1008
(g1009
(I0
tS'b'
tRp1689
(I1
(I2
tg1012
I00
S'\x8a\xc8xi\x1c\xecD@\xc0p\xaf\x0c\x82\xfb9\xc0'
tbag1008
(g1009
(I0
tS'b'
tRp1690
(I1
(I2
tg1012
I00
S"H\x97\x83Z'',@\xf6\xe9\xb4\xe5\t\xacH@"
tbag1008
(g1009
(I0
tS'b'
tRp1691
(I1
(I2
tg1012
I00
S'4\x9f\xe68\tQ@@\x97\xb0<\xd9\xab*C\xc0'
tbag1008
(g1009
(I0
tS'b'
tRp1692
(I1
(I2
tg1012
I00
S'\xdcM-:\x85\xaa0@\x18y\xbe`r1<\xc0'
tbag1008
(g1009
(I0
tS'b'
tRp1693
(I1
(I2
tg1012
I00
S"\xfc\xe1\x1f\xe1\x18Y0@4'\xa2\xb9\x8b47@"
tbag1008
(g1009
(I0
tS'b'
tRp1694
(I1
(I2
tg1012
I00
S'8\x95\xd4\x96=:\x13@\xf4\xaekYu\xc2?@'
tbag1008
(g1009
(I0
tS'b'
tRp1695
(I1
(I2
tg1012
I00
S'\x00J*e\x9d\xaf\xb3\xbf\x80\x92\x9c\xa1(|B@'
tbag1008
(g1009
(I0
tS'b'
tRp1696
(I1
(I2
tg1012
I00
S'p\xdeC\xde\x03\x7f\x0e@Lk\ni\xd98-\xc0'
tbag1008
(g1009
(I0
tS'b'
tRp1697
(I1
(I2
tg1012
I00
S't/J\xf0\xe5\x19 @\x0c!\x8d\xf4Q\xcb%@'
tbag1008
(g1009
(I0
tS'b'
tRp1698
(I1
(I2
tg1012
I00
S'`\xda\xfbz\x05\xf8\xf5\xbf\x14\xad\x99\x81\xcb,G@'
tbag1008
(g1009
(I0
tS'b'
tRp1699
(I1
(I2
tg1012
I00
S'\xd0\x05Y"\x13K\x17@b\x06\xd7=kh2\xc0'
tbag1008
(g1009
(I0
tS'b'
tRp1700
(I1
(I2
tg1012
I00
S'T\x9e<L\xa1\x9a=@\x8b\xc0\x16\xdf\xb8x@\xc0'
tbag1008
(g1009
(I0
tS'b'
tRp1701
(I1
(I2
tg1012
I00
S'H\xf5!\xbc\x92\xc6.@\x00\x8f\xad\xa1\xe0\xc8#\xc0'
tbag1008
(g1009
(I0
tS'b'
tRp1702
(I1
(I2
tg1012
I00
S'H_\xe5x\xdf\xf2>@\xfe>q\xc3\xf2\xfc>\xc0'
tbag1008
(g1009
(I0
tS'b'
tRp1703
(I1
(I2
tg1012
I00
S'\x92\xe2 s\xd7\xa2E\xc0\\\xb7\xceB\xdf\x10A\xc0'
tbag1008
(g1009
(I0
tS'b'
tRp1704
(I1
(I2
tg1012
I00
S'\x90\x19uaS#%@N\x0c\x95\xfa\xc3s6\xc0'
tbag1008
(g1009
(I0
tS'b'
tRp1705
(I1
(I2
tg1012
I00
S"h\x87\x03\x0f%\x17'@\xa2N\xb9\xd1\xadRB@"
tbag1008
(g1009
(I0
tS'b'
tRp1706
(I1
(I2
tg1012
I00
S'\xbe\xbf\xa9\x87\xfa\x9aF@W\xac \xf9\xb6r:\xc0'
tbag1008
(g1009
(I0
tS'b'
tRp1707
(I1
(I2
tg1012
I00
S'\x80^)_\xccs\xdf\xbf\xbc\x14\xad\xc1\xe0\x8bE@'
tbag1008
(g1009
(I0
tS'b'
tRp1708
(I1
(I2
tg1012
I00
S'\xe0S`0\xe8\x10\xf1\xbf\x00xf\x97\xd1\x04C@'
tbag1008
(g1009
(I0
tS'b'
tRp1709
(I1
(I2
tg1012
I00
S'`\xb5\xd9z\x06\xc1\x0b\xc0\xf06}Lt"\x10\xc0'
tbag1008
(g1009
(I0
tS'b'
tRp1710
(I1
(I2
tg1012
I00
S'q\xbd\x96Fy\xdf8\xc0]\x1e\xed\xf8\xfe\x959\xc0'
tbag1008
(g1009
(I0
tS'b'
tRp1711
(I1
(I2
tg1012
I00
S'\xd4\xdeK\xbb\xed\x0e2@\x80\xe4\xa4\xae\xe6_\xf6\xbf'
tbag1008
(g1009
(I0
tS'b'
tRp1712
(I1
(I2
tg1012
I00
S'\xa9e]\xe0\xc9\xce6\xc0\xa7\x7f\xd8mInA\xc0'
tbag1008
(g1009
(I0
tS'b'
tRp1713
(I1
(I2
tg1012
I00
S'\x88lco@\x7f3@\x08\x7f"\x1f\x85\x01\x18@'
tbag1008
(g1009
(I0
tS'b'
tRp1714
(I1
(I2
tg1012
I00
S'\xec\x99W7\x02`$@\xe0\xdf\xa5D\xea!#@'
tbag1008
(g1009
(I0
tS'b'
tRp1715
(I1
(I2
tg1012
I00
S'Tlj\x845\xff0@\xa8@\r\x9f`g-\xc0'
tbag1008
(g1009
(I0
tS'b'
tRp1716
(I1
(I2
tg1012
I00
S'P9\x8c\xb5\xfb\xfd%@$\xa5H^Jo6\xc0'
tbag1008
(g1009
(I0
tS'b'
tRp1717
(I1
(I2
tg1012
I00
S'\x92A\x15\x13(\xba8\xc0W\x81\xe4\x9b \xc6;\xc0'
tbag1008
(g1009
(I0
tS'b'
tRp1718
(I1
(I2
tg1012
I00
S'\x88\xe7\xc0\xacE\xad0@\xedl\xb7\xb1Ec9\xc0'
tbag1008
(g1009
(I0
tS'b'
tRp1719
(I1
(I2
tg1012
I00
S'\x00\xadW2\x13&,@\xfa\xec\xc3\xe5j\xecE@'
tbag1008
(g1009
(I0
tS'b'
tRp1720
(I1
(I2
tg1012
I00
S'h\xd4\x89\x11\xe2\xd9\x18\xc0\x14\xa6\xb1o}95\xc0'
tbag1008
(g1009
(I0
tS'b'
tRp1721
(I1
(I2
tg1012
I00
S'\x02\xc9v{DxA\xc0s\x1f]T\xed\x13C\xc0'
tbag1008
(g1009
(I0
tS'b'
tRp1722
(I1
(I2
tg1012
I00
S'0\xd2\x8e\x13\xac@\x1d@\x9c?\x96\x9f\xa7\x17F@'
tbag1008
(g1009
(I0
tS'b'
tRp1723
(I1
(I2
tg1012
I00
S' X\xf8\x07\xfa1\x1e\xc0\xfa\xce\x85\x01\x05\x8c;\xc0'
tbag1008
(g1009
(I0
tS'b'
tRp1724
(I1
(I2
tg1012
I00
S'D]\x04\xc4\xf0\x822\xc0JWR\xe4XK;\xc0'
tbag1008
(g1009
(I0
tS'b'
tRp1725
(I1
(I2
tg1012
I00
S'(4:\x0b\xc2\x874@\xf8\xb2\x1b\x13o7@\xc0'
tbag1008
(g1009
(I0
tS'b'
tRp1726
(I1
(I2
tg1012
I00
S'\xc8\xe5\x8a\x98\xab-\x13@\x9c\xec\x7f\x19Y\x035@'
tbag1008
(g1009
(I0
tS'b'
tRp1727
(I1
(I2
tg1012
I00
S'X|\x13N\xe3\xb7C\xc0\xe2j\x90/\xfe\xe7;\xc0'
tbag1008
(g1009
(I0
tS'b'
tRp1728
(I1
(I2
tg1012
I00
S'P\xfc}\xaa\xa8\x9c\x17\xc0\x8cy\xc4\x0f\x9a\x0f0@'
tbag1008
(g1009
(I0
tS'b'
tRp1729
(I1
(I2
tg1012
I00
S'(\xadq\xb98\x94.@\xbaC\xfb\x95\xd8\xfa@@'
tbag1008
(g1009
(I0
tS'b'
tRp1730
(I1
(I2
tg1012
I00
S'X/Q>\xd2\xec @b\x051\x9e\xc863\xc0'
tbag1008
(g1009
(I0
tS'b'
tRp1731
(I1
(I2
tg1012
I00
S'~W|\xe8f\xe6E\xc0h\x8fk\xe0IV>\xc0'
tbag1008
(g1009
(I0
tS'b'
tRp1732
(I1
(I2
tg1012
I00
S'\xd0Y\x01t]\xd0/@\xa0Lq\xff%\xe7\r@'
tbag1008
(g1009
(I0
tS'b'
tRp1733
(I1
(I2
tg1012
I00
S'\x00\x90\xb0\xc6Fv\xc2?\x12v\xe5\xef\xc7\x93@@'
tbag1008
(g1009
(I0
tS'b'
tRp1734
(I1
(I2
tg1012
I00
S'\xb05x\x92\xc9\xfc\x05\xc0\xb4\xb2J\xb1\xf2j&@'
tbag1008
(g1009
(I0
tS'b'
tRp1735
(I1
(I2
tg1012
I00
S'\xa0\xc9\x1a\x893\xfa2@\xfe\x86\x01:0\x89G@'
tbag1008
(g1009
(I0
tS'b'
tRp1736
(I1
(I2
tg1012
I00
S'T\xd7\x02\xffY6"\xc0\x14n-g7f5@'
tbag1008
(g1009
(I0
tS'b'
tRp1737
(I1
(I2
tg1012
I00
S'\x94[\x13|\xa0qB@E_L\xde-_C\xc0'
tbag1008
(g1009
(I0
tS'b'
tRp1738
(I1
(I2
tg1012
I00
S'\x88g\xe9\xeb\xd1[.@0\xbd1s}\x91\x1a\xc0'
tbag1008
(g1009
(I0
tS'b'
tRp1739
(I1
(I2
tg1012
I00
S'\x0ee\x8b\x97\xd6\xfc?\xc0P)\xb3U\x0c\x07B\xc0'
tbag1008
(g1009
(I0
tS'b'
tRp1740
(I1
(I2
tg1012
I00
S'\xa0#\x18#\xb6T!\xc0\xfc@/\x92\x87\xf4F@'
tbag1008
(g1009
(I0
tS'b'
tRp1741
(I1
(I2
tg1012
I00
S'\x00\xb0 \xc4\x12\xd0\x1d@X\xce%\x03\x86\xaf.\xc0'
tbag1008
(g1009
(I0
tS'b'
tRp1742
(I1
(I2
tg1012
I00
S'p\xe4u\x97/K\x1a\xc07\xef\xeez\xd6\x84<\xc0'
tbag1008
(g1009
(I0
tS'b'
tRp1743
(I1
(I2
tg1012
I00
S'\x1c,p\xcc\x8c\xfa @\x04\x80\xd6#\xed!A\xc0'
tbag1008
(g1009
(I0
tS'b'
tRp1744
(I1
(I2
tg1012
I00
S' \xed@\xc1\xc6\xec\x02@T\x1bQ$\x842<\xc0'
tbag1008
(g1009
(I0
tS'b'
tRp1745
(I1
(I2
tg1012
I00
S'\xf8\xa0\xfcI ."@\\\x11mu(R @'
tbag1008
(g1009
(I0
tS'b'
tRp1746
(I1
(I2
tg1012
I00
S'\xe0\xc5\xfde\xfd\xa5\x0b@O\x83PFS\x94B\xc0'
tbag1008
(g1009
(I0
tS'b'
tRp1747
(I1
(I2
tg1012
I00
S'L\x89\xfe<\xc7] \xc0,mm%\xbf\xe86@'
tbag1008
(g1009
(I0
tS'b'
tRp1748
(I1
(I2
tg1012
I00
S'\xe8\xad9\xaf7W\x11\xc0\x04/\x9f\xcdB\xe5G@'
tbag1008
(g1009
(I0
tS'b'
tRp1749
(I1
(I2
tg1012
I00
S'\xc3\xb7\x9b\xa4g_D\xc0\xef\x8dI!\x0c\xa9@\xc0'
tbag1008
(g1009
(I0
tS'b'
tRp1750
(I1
(I2
tg1012
I00
S'X~\x8b9f\xdc!\xc0\xe00W\x90v)\n\xc0'
tbag1008
(g1009
(I0
tS'b'
tRp1751
(I1
(I2
tg1012
I00
S'\xc0\xf8\xe0\xd2*:\xe6?\xb0\xa2\xec\xf4\xe9s\x08\xc0'
tbag1008
(g1009
(I0
tS'b'
tRp1752
(I1
(I2
tg1012
I00
S'\x06\x06\xfc\x91\xfd\xfdC\xc0\xb2\x9a\xee\x10\xc9\xeb@\xc0'
tbag1008
(g1009
(I0
tS'b'
tRp1753
(I1
(I2
tg1012
I00
S'\xca\x01\xdb:!WD@\x92a\xfdd\xaf\xa6?\xc0'
tbag1008
(g1009
(I0
tS'b'
tRp1754
(I1
(I2
tg1012
I00
S'X\xa8\xd5\xef\x1f\xb6!@\xa4\xfa\x0c\x0f\xf1"%\xc0'
tbag1008
(g1009
(I0
tS'b'
tRp1755
(I1
(I2
tg1012
I00
S'\xf8\xaf3\x152\xcb\x1d\xc0\x98\xb4\x8a\xf0\x16\xce-@'
tbag1008
(g1009
(I0
tS'b'
tRp1756
(I1
(I2
tg1012
I00
S'\x88\xef@&\xcb\xf2D@FM\x0c\xd5\xfe\tB\xc0'
tbag1008
(g1009
(I0
tS'b'
tRp1757
(I1
(I2
tg1012
I00
S'\x103\x94rN\x03\x12\xc0h&\x0c\x1a|\x0b\x12@'
tbag1008
(g1009
(I0
tS'b'
tRp1758
(I1
(I2
tg1012
I00
S'\xdc?@\xe49\x960@\x10>Z\x89M\x82\x10\xc0'
tbag1008
(g1009
(I0
tS'b'
tRp1759
(I1
(I2
tg1012
I00
S'\x04n+\xf6"\x1f*\xc0\x88)\x06.TgC\xc0'
tbag1008
(g1009
(I0
tS'b'
tRp1760
(I1
(I2
tg1012
I00
S'\xccf\xe5\xece\x87)@\xe2f\x8a\xac\xcfT0\xc0'
tbag1008
(g1009
(I0
tS'b'
tRp1761
(I1
(I2
tg1012
I00
S"\x10\xeb'\xc8e\xa6 @\x98X\xea\xfe{[1@"
tbag1008
(g1009
(I0
tS'b'
tRp1762
(I1
(I2
tg1012
I00
S'\xb4\x80\x9b\xaa\xf3\xef1@\xa8t\xe3\x1d\xd0W\x1f@'
tbag1008
(g1009
(I0
tS'b'
tRp1763
(I1
(I2
tg1012
I00
S'\x12K\x00\xcc\xbcH@\xc0\xa0\x1d\xd7\xfb\x08\xe7A\xc0'
tbag1008
(g1009
(I0
tS'b'
tRp1764
(I1
(I2
tg1012
I00
S'X@\xff%/\x94,@({\xa9\xa1\x03y\x1c\xc0'
tbag1008
(g1009
(I0
tS'b'
tRp1765
(I1
(I2
tg1012
I00
S'\x80\xed\xa6\x9dt\x9e\xf2\xbf\xcc<:\x7f\xd2\x9fC\xc0'
tbag1008
(g1009
(I0
tS'b'
tRp1766
(I1
(I2
tg1012
I00
S'`x\xf5\x07\xd7\xfc\x06\xc0\xceC\xa0\xa60\x027\xc0'
tbag1008
(g1009
(I0
tS'b'
tRp1767
(I1
(I2
tg1012
I00
S'\x08\xa3\xac\xd5\xb9^\x15\xc0\xd8u\xf1\x84.:\x14@'
tbag1008
(g1009
(I0
tS'b'
tRp1768
(I1
(I2
tg1012
I00
S'\xa0/&j\xa5\xd4(@:u\xfb\xb6-OC@'
tbag1008
(g1009
(I0
tS'b'
tRp1769
(I1
(I2
tg1012
I00
S'`p\x11D\xb3\x842@\xc8\x1f\x10g\xac\x9c0\xc0'
tbag1008
(g1009
(I0
tS'b'
tRp1770
(I1
(I2
tg1012
I00
S'\x90\x12\x8fl\x80\x00\x0e\xc0\xb4JI\xbbuB2\xc0'
tbag1008
(g1009
(I0
tS'b'
tRp1771
(I1
(I2
tg1012
I00
S'\xf8*;y\xb39\x17\xc0\xb0\xfaxd9$<\xc0'
tbag1008
(g1009
(I0
tS'b'
tRp1772
(I1
(I2
tg1012
I00
S'0#\xee\x16\x1aL\t\xc0\x00\xc9\xdfG\xbe.\xf1\xbf'
tbag1008
(g1009
(I0
tS'b'
tRp1773
(I1
(I2
tg1012
I00
S'X*7\x18\x90\x97\x1a@P\xa5\x1c\x97\x1d\xfa/\xc0'
tbag1008
(g1009
(I0
tS'b'
tRp1774
(I1
(I2
tg1012
I00
S'\x10\xcc\xc6\xbc]\x08\x06@\xe8F\xab\xec\xb0\xdf2@'
tbag1008
(g1009
(I0
tS'b'
tRp1775
(I1
(I2
tg1012
I00
S'd\x03\x19\xb8\xad\xa42@\xb4\xa7\\u\xc0$<@'
tbag1008
(g1009
(I0
tS'b'
tRp1776
(I1
(I2
tg1012
I00
S'x\x02\xa5 $\xf7E\xc0Zu\x89B\xf0\xc8@\xc0'
tbag1008
(g1009
(I0
tS'b'
tRp1777
(I1
(I2
tg1012
I00
S'\x88*u4\x1fY%@Pt\x94\xd4\xa1i\x08@'
tbag1008
(g1009
(I0
tS'b'
tRp1778
(I1
(I2
tg1012
I00
S'\xf2X\xd2\xce"\xd7G@\x18\xc3J\x96\x1a\x9bB\xc0'
tbag1008
(g1009
(I0
tS'b'
tRp1779
(I1
(I2
tg1012
I00
S'\x80\xcb2\x07\xc9\xe2\x14@\xbc\xd3\xfasA\x828@'
tbag1008
(g1009
(I0
tS'b'
tRp1780
(I1
(I2
tg1012
I00
S'8\x8f\x1d\x95()3@|\xf5\x13\xd3\xc1{&\xc0'
tbag1008
(g1009
(I0
tS'b'
tRp1781
(I1
(I2
tg1012
I00
S'\xe0n\xday`\x0e<@J\xdbR\x1d\xab\xecB\xc0'
tbag1008
(g1009
(I0
tS'b'
tRp1782
(I1
(I2
tg1012
I00
S'\xc0\x0f\xa9\xba\xbe\xf5 @\x1e}n28\x00:\xc0'
tbag1008
(g1009
(I0
tS'b'
tRp1783
(I1
(I2
tg1012
I00
S'p\t\x12!\x04\xc2\x0f@\x9c\xf7I\x9fj\x089\xc0'
tbag1008
(g1009
(I0
tS'b'
tRp1784
(I1
(I2
tg1012
I00
S'`D4f\xc2h\xfb?@6\xfcbll\x0c\xc0'
tbag1008
(g1009
(I0
tS'b'
tRp1785
(I1
(I2
tg1012
I00
S'\xf0E\x16\tp8\x1a\xc0\x00\xdeT\x97A\x82-@'
tbag1008
(g1009
(I0
tS'b'
tRp1786
(I1
(I2
tg1012
I00
S"\xdc\xb25'\xac\x16@@\xe7\x10\xfa\x7f\xba\xf8<\xc0"
tbag1008
(g1009
(I0
tS'b'
tRp1787
(I1
(I2
tg1012
I00
S"\xe8\xcb'\xa1Fi%@\x94\xb3\xe3x_\x8a>@"
tbag1008
(g1009
(I0
tS'b'
tRp1788
(I1
(I2
tg1012
I00
S'\x08\xe2\x1b\xb80\x11#\xc0`>\xc6\xe0m\xc6\x02\xc0'
tbag1008
(g1009
(I0
tS'b'
tRp1789
(I1
(I2
tg1012
I00
S'@@k\x7f\xed\xe9\xf1\xbf\x98\xea\x90a+\x1e+\xc0'
tbag1008
(g1009
(I0
tS'b'
tRp1790
(I1
(I2
tg1012
I00
S'8\xc1\x07\xef\x15[9@\x16\xc3Ez\xaa\x0cC\xc0'
tbag1008
(g1009
(I0
tS'b'
tRp1791
(I1
(I2
tg1012
I00
S'B\x0e\xea\xc2B\x07C\xc0\x03\xf1I\t\\,;\xc0'
tbag1008
(g1009
(I0
tS'b'
tRp1792
(I1
(I2
tg1012
I00
S'p>\xe8g\x0f\xf8\x1c@\xf4>\x06a\x97?@@'
tbag1008
(g1009
(I0
tS'b'
tRp1793
(I1
(I2
tg1012
I00
S'\xa0_\xaef\xd9|*@4\x95\x05S\xcb\xaf)@'
tbag1008
(g1009
(I0
tS'b'
tRp1794
(I1
(I2
tg1012
I00
S'\x80\x04^\xb4\xb6\xe4\x0e\xc0\xcc\xf4s\xca\x0cb8\xc0'
tbag1008
(g1009
(I0
tS'b'
tRp1795
(I1
(I2
tg1012
I00
S'h.\xfc\x9cH&\x11\xc0`\x8b\x12\x05\x17\xb4-\xc0'
tbag1008
(g1009
(I0
tS'b'
tRp1796
(I1
(I2
tg1012
I00
S'\x00\xf2\x80\xe0\xc1\xaa\x16@\x90\xd3\x9e|?\xf3$\xc0'
tbag1008
(g1009
(I0
tS'b'
tRp1797
(I1
(I2
tg1012
I00
S'\x0c\x8cr\xaeJ\x8a+@\xc0\xdba!\xf3\xf8\x13\xc0'
tbag1008
(g1009
(I0
tS'b'
tRp1798
(I1
(I2
tg1012
I00
S' \x1f\x80\x87\x0cq\x14@\x88\xd4\x829\x8b_=\xc0'
tbag1008
(g1009
(I0
tS'b'
tRp1799
(I1
(I2
tg1012
I00
S'\x93&\xd9\x0c\x9fcG\xc0Lt\x11\xaa\xc0\xc0A\xc0'
tbag1008
(g1009
(I0
tS'b'
tRp1800
(I1
(I2
tg1012
I00
S'\xf21~\xfd\x15)C\xc0\xc9\xbb>\x10\r\x10:\xc0'
tbag1008
(g1009
(I0
tS'b'
tRp1801
(I1
(I2
tg1012
I00
S'\x989\x10\tA9)@@\x03orE\xa4\x0e@'
tbag1008
(g1009
(I0
tS'b'
tRp1802
(I1
(I2
tg1012
I00
S'\x88\xb5\x0b!6\xec%\xc0\x06\xc4.0\xd5};\xc0'
tbag1008
(g1009
(I0
tS'b'
tRp1803
(I1
(I2
tg1012
I00
S'\xac!1 =(%@\x12@\xca\xc5\x81\xf12\xc0'
tbag1008
(g1009
(I0
tS'b'
tRp1804
(I1
(I2
tg1012
I00
S'-\x8dF\xec+\x10G\xc0\xedp|\xacI\xccB\xc0'
tbag1008
(g1009
(I0
tS'b'
tRp1805
(I1
(I2
tg1012
I00
S'hEX\xb2Y]\x11@L\x87:\xefl\xd5&\xc0'
tbag1008
(g1009
(I0
tS'b'
tRp1806
(I1
(I2
tg1012
I00
S'\xe0\x019\xa4u\xaf\x10@8\xa7,\xe4\xf6h;\xc0'
tbag1008
(g1009
(I0
tS'b'
tRp1807
(I1
(I2
tg1012
I00
S'D\xce\x81\n\x10\x1c!@\x08n\xfd\xab]\xb9F@'
tbag1008
(g1009
(I0
tS'b'
tRp1808
(I1
(I2
tg1012
I00
S'\xe0\x8a\xe8\x01\x1b\xa4\x0c@\xbc\xb0y\x1b\xb7<C@'
tbag1008
(g1009
(I0
tS'b'
tRp1809
(I1
(I2
tg1012
I00
S'\xc0R\xea\xbbkU\x03@\x07_\xb3\xcd\xed\xb0;\xc0'
tbag1008
(g1009
(I0
tS'b'
tRp1810
(I1
(I2
tg1012
I00
S"\xee\xe4\xb2u'+3\xc0h8\x93u\xc3`=\xc0"
tbag1008
(g1009
(I0
tS'b'
tRp1811
(I1
(I2
tg1012
I00
S'U\x9e\xec\xfb.\x9a6\xc0\x17\xf6\x961\x19x9\xc0'
tbag1008
(g1009
(I0
tS'b'
tRp1812
(I1
(I2
tg1012
I00
S'DZ)\x88\x1b\xf5#@\x10\xa7)\x892\xdf4@'
tbag1008
(g1009
(I0
tS'b'
tRp1813
(I1
(I2
tg1012
I00
S'`\x04\x9d9a\xb4\x10@0\x82\x03e\x01k=@'
tbag1008
(g1009
(I0
tS'b'
tRp1814
(I1
(I2
tg1012
I00
S'0x\xd7w\xefz\x19\xc0\xff\xce\x1d2tH5\xc0'
tbag1008
(g1009
(I0
tS'b'
tRp1815
(I1
(I2
tg1012
I00
S'\xac\xdb\x87\xc0\xa8])@\x12GZ\x90\x07\xe0B@'
tbag1008
(g1009
(I0
tS'b'
tRp1816
(I1
(I2
tg1012
I00
S'\xe8\xa4<(\x9a\xef.@;?\x07\x1d0c:\xc0'
tbag1008
(g1009
(I0
tS'b'
tRp1817
(I1
(I2
tg1012
I00
S'\xf8g\x87\xec2&\x1b\xc0\\[SAS<?@'
tbag1008
(g1009
(I0
tS'b'
tRp1818
(I1
(I2
tg1012
I00
S'\x80F\xb0V\x82\x07\xe1\xbf\x88\xf9\xe6\xf8i\x88*@'
tbag1008
(g1009
(I0
tS'b'
tRp1819
(I1
(I2
tg1012
I00
S'\x98\xd7Y>\xba\xbd\x12@\xdc\\Q\xc7T\x956@'
tbag1008
(g1009
(I0
tS'b'
tRp1820
(I1
(I2
tg1012
I00
S'\x87\xce\xf2\x0088@\xc0\xff\x08\xc2\x01$\x1a;\xc0'
tbag1008
(g1009
(I0
tS'b'
tRp1821
(I1
(I2
tg1012
I00
S'P&\xa0j\x02\xb0&@\x8a\x89\xc2>\x8fBB\xc0'
tbag1008
(g1009
(I0
tS'b'
tRp1822
(I1
(I2
tg1012
I00
S'\xc0>[\x82\xaa\xc6\x0f@\x06\x0bwG(4C@'
tbag1008
(g1009
(I0
tS'b'
tRp1823
(I1
(I2
tg1012
I00
S"\x18(\xdcqa\xb9\x13\xc0\xe6R\x96\xe8'\x8e=\xc0"
tbag1008
(g1009
(I0
tS'b'
tRp1824
(I1
(I2
tg1012
I00
S'\x1c\xa5\x1bn\x1e\x1c+@\x90_"\xc8\xebE$\xc0'
tbag1008
(g1009
(I0
tS'b'
tRp1825
(I1
(I2
tg1012
I00
S'\x90\xb0z\xa4\xc8\x003@>\x99\x0f\xa3r\xcfC@'
tbag1008
(g1009
(I0
tS'b'
tRp1826
(I1
(I2
tg1012
I00
S'\x80\x88\xca\xf6\x14i\xde\xbf\xa81wj\x1d\xc25@'
tbag1008
(g1009
(I0
tS'b'
tRp1827
(I1
(I2
tg1012
I00
S'\xa0\xcc\xfaU\xb4K"\xc0\nA\xe4\x88\xd8\xd26\xc0'
tbag1008
(g1009
(I0
tS'b'
tRp1828
(I1
(I2
tg1012
I00
S'fS\x90<\xd9,H\xc0\xe4\xd5\xc1\t\xa6\xbf9\xc0'
tbag1008
(g1009
(I0
tS'b'
tRp1829
(I1
(I2
tg1012
I00
S'\x9c\r\x9bpNS5@\xc6\x89vG\x90S?\xc0'
tbag1008
(g1009
(I0
tS'b'
tRp1830
(I1
(I2
tg1012
I00
S'L\x9c\xe0t\x8c\x9f3@\xd0`\xb3\xa8>\x97\x1a@'
tbag1008
(g1009
(I0
tS'b'
tRp1831
(I1
(I2
tg1012
I00
S'H&\xdb\xa9\x8b\x04"@\x8c27\x1b\xb9$!\xc0'
tbag1008
(g1009
(I0
tS'b'
tRp1832
(I1
(I2
tg1012
I00
S'\x08XnP\xa1\xe5+@X\x95.\xdf\xa8\xe51\xc0'
tbag1008
(g1009
(I0
tS'b'
tRp1833
(I1
(I2
tg1012
I00
S'8{\xaaS\xben&@\x00\xbc\xc6\xb2\xcc6\x10\xc0'
tbag1008
(g1009
(I0
tS'b'
tRp1834
(I1
(I2
tg1012
I00
S'\xf8Yd\x04\x18v%@(\xa1\xdd\xee\x9a\x8a)\xc0'
tbag1008
(g1009
(I0
tS'b'
tRp1835
(I1
(I2
tg1012
I00
S'\x16\x00@/o\xf1F@\xc6\x0f\x03\x13\x022?\xc0'
tbag1008
(g1009
(I0
tS'b'
tRp1836
(I1
(I2
tg1012
I00
S'\xec^xqV\x99<@4\xc1\xae\xd4\xba59\xc0'
tbag1008
(g1009
(I0
tS'b'
tRp1837
(I1
(I2
tg1012
I00
S'd\xd3\xd5\xb8\x86^*\xc0\r\xbb\xf4\xb9Y\xb7B\xc0'
tbag1008
(g1009
(I0
tS'b'
tRp1838
(I1
(I2
tg1012
I00
S'\x9c\xe6\x03R\xd4\xfc"@$^\xe9\x14tV;@'
tbag1008
(g1009
(I0
tS'b'
tRp1839
(I1
(I2
tg1012
I00
S' \xeb\xef,\x87\xe9\x05@ k\x1eP\xd3\xe1\x1f\xc0'
tbag1008
(g1009
(I0
tS'b'
tRp1840
(I1
(I2
tg1012
I00
S'\xf4J\x0c\xa2\x03\xcd*@\x90\x9bP\x0e*]>@'
tbag1008
(g1009
(I0
tS'b'
tRp1841
(I1
(I2
tg1012
I00
S'P&\xc2\x0b.\xaaD\xc0|T\xb5#\xcfN;\xc0'
tbag1008
(g1009
(I0
tS'b'
tRp1842
(I1
(I2
tg1012
I00
S"\xb0dM\xf0\xdd\xef'@\xf8\xbb+\xc5{i=@"
tbag1008
(g1009
(I0
tS'b'
tRp1843
(I1
(I2
tg1012
I00
S'p\xef\xfc\x89x\xf4(@\x8e\xfa\xfdD\xf9#B@'
tbag1008
(g1009
(I0
tS'b'
tRp1844
(I1
(I2
tg1012
I00
S'X\xea\xa56\xfb\x87 @4,\x97[&\xb3>@'
tbag1008
(g1009
(I0
tS'b'
tRp1845
(I1
(I2
tg1012
I00
S'\xc0Q\x7f<7~#\xc0\x86"\xbf\xee\xc7\x12E@'
tbag1008
(g1009
(I0
tS'b'
tRp1846
(I1
(I2
tg1012
I00
S"fdh%A\x08D@\xfa\x0b\xb9:?'@\xc0"
tbag1008
(g1009
(I0
tS'b'
tRp1847
(I1
(I2
tg1012
I00
S"4H'_'6C@,\x05\x03RT)A\xc0"
tbag1008
(g1009
(I0
tS'b'
tRp1848
(I1
(I2
tg1012
I00
S'\xf8Cl\xe7UO#\xc0r\x11D\xbb\xf9&@\xc0'
tbag1008
(g1009
(I0
tS'b'
tRp1849
(I1
(I2
tg1012
I00
S'\xf8E\x1a\x11\xfd\n\x18\xc0\xba\x96\xa5l\x0b\x0fH@'
tbag1008
(g1009
(I0
tS'b'
tRp1850
(I1
(I2
tg1012
I00
S'\xd8~\x97\xaa\x95s2@\xa0\xbe\xa7bOp\xfb\xbf'
tbag1008
(g1009
(I0
tS'b'
tRp1851
(I1
(I2
tg1012
I00
S'\xde\xe4@A\x93\xd16\xc0\xeb\x86`*\xb9\xf5B\xc0'
tbag1008
(g1009
(I0
tS'b'
tRp1852
(I1
(I2
tg1012
I00
S't\xdd\x80\xf0\x11F$@\xc0\x00]\x18\x82\xda0\xc0'
tbag1008
(g1009
(I0
tS'b'
tRp1853
(I1
(I2
tg1012
I00
S'%\xb1q\xa5\x83nF\xc0lrv\xf3\x97\xab<\xc0'
tbag1008
(g1009
(I0
tS'b'
tRp1854
(I1
(I2
tg1012
I00
S'\x181\xde0\xdc\xbe+@@\x1cpA\x1fW\x02\xc0'
tbag1008
(g1009
(I0
tS'b'
tRp1855
(I1
(I2
tg1012
I00
S'\xa4_F\xc9\xe9\x89>@\xb1\xd7T\xc8\xaa$;\xc0'
tbag1008
(g1009
(I0
tS'b'
tRp1856
(I1
(I2
tg1012
I00
S'\x88\x1c\xe6o+[0@<\xb2\xf1\x1cJ\xe2@\xc0'
tbag1008
(g1009
(I0
tS'b'
tRp1857
(I1
(I2
tg1012
I00
S'`\xb5\x9emDiE@D\xa3}\x94hK<\xc0'
tbag1008
(g1009
(I0
tS'b'
tRp1858
(I1
(I2
tg1012
I00
S'\x18"\xed*\xf3F\x1c@ \x0f>\\\x82\xbbH@'
tbag1008
(g1009
(I0
tS'b'
tRp1859
(I1
(I2
tg1012
I00
S'\x90\x9f\x8b\x1a\xdfH\x01@`\xcd\x88p\x8a\xa00\xc0'
tbag1008
(g1009
(I0
tS'b'
tRp1860
(I1
(I2
tg1012
I00
S'X\x00\x96\x14\xe5T\x10@|G\xf9\x0e\\\xe82@'
tbag1008
(g1009
(I0
tS'b'
tRp1861
(I1
(I2
tg1012
I00
S'\xc0\xd4v\xfe\xa6\xb8\xe5\xbf\xc0X\x9f}Pt\x19@'
tbag1008
(g1009
(I0
tS'b'
tRp1862
(I1
(I2
tg1012
I00
S'n\xea\xa5)c&?\xc0\x9c&\xbb\xaaZw@\xc0'
tbag1008
(g1009
(I0
tS'b'
tRp1863
(I1
(I2
tg1012
I00
S'`wg\xab\x94\xa1\n\xc0$\xb5n5\x9a\xc3@@'
tbag1008
(g1009
(I0
tS'b'
tRp1864
(I1
(I2
tg1012
I00
S'\x18\x14\xb0j\x1f\x88\x15@\xd4}]M\xfb\x03B\xc0'
tbag1008
(g1009
(I0
tS'b'
tRp1865
(I1
(I2
tg1012
I00
S'\x90Ry\x93\xc3\xd8&@\x1a\x10\xe0%w\x97B@'
tbag1008
(g1009
(I0
tS'b'
tRp1866
(I1
(I2
tg1012
I00
S'\x90)\xb3\x96=\xc2\x1c@\r\xc3\xdd\xf0\x1c\x846\xc0'
tbag1008
(g1009
(I0
tS'b'
tRp1867
(I1
(I2
tg1012
I00
S'\xc0_I\x11\x12\xe9\xfb?Y\x0fp\xec\x0e\xf2>\xc0'
tbag1008
(g1009
(I0
tS'b'
tRp1868
(I1
(I2
tg1012
I00
S'\x90\xe4\x8b\xfc+b\x17\xc0\xa8<V\xd8\xb3\x13/@'
tbag1008
(g1009
(I0
tS'b'
tRp1869
(I1
(I2
tg1012
I00
S'\xf0k\xb2|\x80\x99 @\x08\x05\xb5_\xdf\x98-\xc0'
tbag1008
(g1009
(I0
tS'b'
tRp1870
(I1
(I2
tg1012
I00
S'\xa8"\r\x9ec\xf9\x11\xc0\x04\x87\xdfWBk<@'
tbag1008
(g1009
(I0
tS'b'
tRp1871
(I1
(I2
tg1012
I00
S'\\\x9d\x8f[\x9a\t+@\x7f\xf6qu\x06@?\xc0'
tbag1008
(g1009
(I0
tS'b'
tRp1872
(I1
(I2
tg1012
I00
S'\xe8\xf8\xcdW\xcfI\x17@S\xf8\x8c\xa6\xbd\xe3:\xc0'
tbag1008
(g1009
(I0
tS'b'
tRp1873
(I1
(I2
tg1012
I00
S'\x80\x07NBz\x91\xf4\xbfP\xf4\xac\x8f\xe4v=@'
tbag1008
(g1009
(I0
tS'b'
tRp1874
(I1
(I2
tg1012
I00
S'\xb8g\xe6$NR\x12\xc0\xb0\x19<!p\x1e\x0e\xc0'
tbag1008
(g1009
(I0
tS'b'
tRp1875
(I1
(I2
tg1012
I00
S'Qod\xa5\xc3\xf8C\xc0\xf3H\xbb#\xf8#<\xc0'
tbag1008
(g1009
(I0
tS'b'
tRp1876
(I1
(I2
tg1012
I00
S'@[Rh_<!@\xcc\xf6\x85\xa0fb2@'
tbag1008
(g1009
(I0
tS'b'
tRp1877
(I1
(I2
tg1012
I00
S'\xd0I\xca\x00>\xcd$@\x02\x9e\xbeA\xa7\xecG@'
tbag1008
(g1009
(I0
tS'b'
tRp1878
(I1
(I2
tg1012
I00
S'\x00\x98\xfbJLE\x1c@\xec\xf9Ri\xd2\xd63@'
tbag1008
(g1009
(I0
tS'b'
tRp1879
(I1
(I2
tg1012
I00
S'p\xf6\xbb0\x94\xaf @b\xed\x9c\\_\x8cD@'
tbag1008
(g1009
(I0
tS'b'
tRp1880
(I1
(I2
tg1012
I00
S'TS\xd7\xe8\x8e\xf1+@Pw#\x17\xcfo\x1e@'
tbag1008
(g1009
(I0
tS'b'
tRp1881
(I1
(I2
tg1012
I00
S'\xc2\x03\x8f}Ij4\xc0+\x0b\xee\x1ag\xe8:\xc0'
tbag1008
(g1009
(I0
tS'b'
tRp1882
(I1
(I2
tg1012
I00
S'\xe8\xe5\xc3v\xe0\xd6&@,F\x8a\xa0\xc8<6\xc0'
tbag1008
(g1009
(I0
tS'b'
tRp1883
(I1
(I2
tg1012
I00
S"`\xb1_'\xe4\xa9\xfa\xbf\x9c\x96D\x88\x1a\x826\xc0"
tbag1008
(g1009
(I0
tS'b'
tRp1884
(I1
(I2
tg1012
I00
S'x\x1c\x91=\xc3] @"\xf4\x16\\\xf9\xf4H@'
tbag1008
(g1009
(I0
tS'b'
tRp1885
(I1
(I2
tg1012
I00
S'\x80\xfa\xbcxH\r\xe2?\x06\x1b\xd3u%\xb9C\xc0'
tbag1008
(g1009
(I0
tS'b'
tRp1886
(I1
(I2
tg1012
I00
S'\x98\xf6\x0c\xb2Oo:\xc0\xb19\xea\xc6\xfc\xcbA\xc0'
tbag1008
(g1009
(I0
tS'b'
tRp1887
(I1
(I2
tg1012
I00
S'",0\x89gTF\xc0sj\xf5!Cx@\xc0'
tbag1008
(g1009
(I0
tS'b'
tRp1888
(I1
(I2
tg1012
I00
S'\xa3\xdf\x9b\x82\xef/6\xc0T\x12\x8el\x94QC\xc0'
tbag1008
(g1009
(I0
tS'b'
tRp1889
(I1
(I2
tg1012
I00
S'\xbc\x93\xc0\xba\xae?(@t\xab\xdb\x82\xfb\x91!@'
tbag1008
(g1009
(I0
tS'b'
tRp1890
(I1
(I2
tg1012
I00
S"b\xef4%\xf0\x87H@\t'`\xb4\x14`=\xc0"
tbag1008
(g1009
(I0
tS'b'
tRp1891
(I1
(I2
tg1012
I00
S'\xc0\x00P\x07\x06\x8c@@\xc0\xc2l\xee\xc0\x18A\xc0'
tbag1008
(g1009
(I0
tS'b'
tRp1892
(I1
(I2
tg1012
I00
S'\xe0\x12\xceu\xd5#7@\xee\x07\xb1\x04p\x84:\xc0'
tbag1008
(g1009
(I0
tS'b'
tRp1893
(I1
(I2
tg1012
I00
S'\x18\x11\x9d\xc0\xfdr\x13\xc0\x86\xd6\xb9\xf8\xb3\xa8C@'
tbag1008
(g1009
(I0
tS'b'
tRp1894
(I1
(I2
tg1012
I00
S'`A\xae<\x99w\n\xc0LYD\xee\x8e\xe6E@'
tbag1008
(g1009
(I0
tS'b'
tRp1895
(I1
(I2
tg1012
I00
S'\xf2\xf6\xc6\xb8\x9a\xd1B@\xe9\x19\\\xcd\xe3J:\xc0'
tbag1008
(g1009
(I0
tS'b'
tRp1896
(I1
(I2
tg1012
I00
S'\x00\xfb\xd9\x01zh-@\xab_E\xf3Cs<\xc0'
tbag1008
(g1009
(I0
tS'b'
tRp1897
(I1
(I2
tg1012
I00
S'\n\x0e@\xa6)41\xc0\x065\xf0Z\xb4LC\xc0'
tbag1008
(g1009
(I0
tS'b'
tRp1898
(I1
(I2
tg1012
I00
S'`\xdd\xdb:\x8e\x81\n@\x10ZM\xe4\xb8\xd7%\xc0'
tbag1008
(g1009
(I0
tS'b'
tRp1899
(I1
(I2
tg1012
I00
S'\x80\xdbIu0\x01-@\x930\x9bdlO@\xc0'
tbag1008
(g1009
(I0
tS'b'
tRp1900
(I1
(I2
tg1012
I00
S'\x00k\xe3\xd1\x06\x8e\xca?\x10\xc1n\x0b\xc7\x04B@'
tbag1008
(g1009
(I0
tS'b'
tRp1901
(I1
(I2
tg1012
I00
S'x\xf14\x12\x9d}\x1e@\xa0(\x9f\x1c\xc2E!@'
tbag1008
(g1009
(I0
tS'b'
tRp1902
(I1
(I2
tg1012
I00
S'\xd7.\xe7\xda\x15!9\xc0\x98\\y\xb3\xf0A;\xc0'
tbag1008
(g1009
(I0
tS'b'
tRp1903
(I1
(I2
tg1012
I00
S'\xc0\xbf\xdc\x02\xae\x97\x0b@\xb9\xb0e\xdd\xa5\x126\xc0'
tbag1008
(g1009
(I0
tS'b'
tRp1904
(I1
(I2
tg1012
I00
S'w}I\xa0v\x00G\xc0\x17S\xc2\x81*(:\xc0'
tbag1008
(g1009
(I0
tS'b'
tRp1905
(I1
(I2
tg1012
I00
S'P\xfa/\xe2\xbf\xfa\x1f@\xc4\xa2\xe7\x15\xde\xaf@@'
tbag1008
(g1009
(I0
tS'b'
tRp1906
(I1
(I2
tg1012
I00
S'@i\xa5\x19bB\xec?<\xb6\xa1\xf6\xfac:@'
tbag1008
(g1009
(I0
tS'b'
tRp1907
(I1
(I2
tg1012
I00
S'\xa0\xa0#\xa5Ej\x17\xc0\xd8T\xa0O\xf7\xfb\x1a@'
tbag1008
(g1009
(I0
tS'b'
tRp1908
(I1
(I2
tg1012
I00
S'\xb0`X{\x84\x16\r@\x80\x95\xdfSx\n\xd9?'
tbag1008
(g1009
(I0
tS'b'
tRp1909
(I1
(I2
tg1012
I00
S'\xf0;(8\xb4R(@\x8c\x177bu\x8d4@'
tbag1008
(g1009
(I0
tS'b'
tRp1910
(I1
(I2
tg1012
I00
S'\xc0Ep\x138`1@`\x17B\xf8*\xa9\xf8?'
tbag1008
(g1009
(I0
tS'b'
tRp1911
(I1
(I2
tg1012
I00
S'h\xa3\xd5T\xfb%\x17\xc0@5\x9f\xa5+\\\x0b@'
tbag1008
(g1009
(I0
tS'b'
tRp1912
(I1
(I2
tg1012
I00
S"\xa0[\x92\x99\xa9=\n\xc0\xcf\x89\x1a\xed/'3\xc0"
tbag1008
(g1009
(I0
tS'b'
tRp1913
(I1
(I2
tg1012
I00
S'\xc0f\xbequ\xe5\xf1?I\xb1y\xbd\x0e\x97@\xc0'
tbag1008
(g1009
(I0
tS'b'
tRp1914
(I1
(I2
tg1012
I00
S'\x90\x10\xa6<\x82s3@,\xf4\xb4\xaf\xf8\xdd@@'
tbag1008
(g1009
(I0
tS'b'
tRp1915
(I1
(I2
tg1012
I00
S'\x84PH\xf3\xf4\xef=@\xffJ\xa4\x96\xb8\xc6A\xc0'
tbag1008
(g1009
(I0
tS'b'
tRp1916
(I1
(I2
tg1012
I00
S'``uDY\xdd?@nz\xa3\x0c\x1b\xdf@\xc0'
tbag1008
(g1009
(I0
tS'b'
tRp1917
(I1
(I2
tg1012
I00
S'@\xd7\xbd\x8a\xb5\xab\x15\xc0Heqi\xea\xd3.\xc0'
tbag1008
(g1009
(I0
tS'b'
tRp1918
(I1
(I2
tg1012
I00
S'~\xd8K\xe8\xe3\xaf<\xc0\x93n>l~\xdb<\xc0'
tbag1008
(g1009
(I0
tS'b'
tRp1919
(I1
(I2
tg1012
I00
S'\x18b\x13=\xb3,>@4\xaa\xc1\xe02\xeaC\xc0'
tbag1008
(g1009
(I0
tS'b'
tRp1920
(I1
(I2
tg1012
I00
S'\xa8RQ\xdf\x99>\x1a\xc0~\x08\x1b&v:B\xc0'
tbag1008
(g1009
(I0
tS'b'
tRp1921
(I1
(I2
tg1012
I00
S'\x80c:Pg\xf5\xd0\xbf\x94\xeb+\xd5\xf7\xb4A\xc0'
tbag1008
(g1009
(I0
tS'b'
tRp1922
(I1
(I2
tg1012
I00
S'\xd4 F\xffR\xca2@(\xf5*\x03b\t\x15@'
tbag1008
(g1009
(I0
tS'b'
tRp1923
(I1
(I2
tg1012
I00
S'\xc0:@\xb9\x89\xd7D@\xed\x99@^2\xf9@\xc0'
tbag1008
(g1009
(I0
tS'b'
tRp1924
(I1
(I2
tg1012
I00
S'\xa9a\x9cW\xaa\x16=\xc00~\x995\xd3\xd1A\xc0'
tbag1008
(g1009
(I0
tS'b'
tRp1925
(I1
(I2
tg1012
I00
S'p\xef\xd5\xa7\xee\xd5!@ \xdc\xe8,\xf5G\x0c@'
tbag1008
(g1009
(I0
tS'b'
tRp1926
(I1
(I2
tg1012
I00
S'\x148\x85#(\\%@:\xd3\xf9\x10\xcc\x954\xc0'
tbag1008
(g1009
(I0
tS'b'
tRp1927
(I1
(I2
tg1012
I00
S'\xb4\xbf\xff\x8e\x0e\xad:@\xdc\x961\x94\xa1~C\xc0'
tbag1008
(g1009
(I0
tS'b'
tRp1928
(I1
(I2
tg1012
I00
S'\xe7\x85#\xb8\x89\x13<\xc0\xcf\x85\x8f\x94W#C\xc0'
tbag1008
(g1009
(I0
tS'b'
tRp1929
(I1
(I2
tg1012
I00
S'"\xbf\x0f\xa8\x10\x838\xc04r\x88\x01\xd9\xa6C\xc0'
tbag1008
(g1009
(I0
tS'b'
tRp1930
(I1
(I2
tg1012
I00
S"XM\xaf\xda\x01{>\xc0\xac\x16<\xfc'\x1f@\xc0"
tbag1008
(g1009
(I0
tS'b'
tRp1931
(I1
(I2
tg1012
I00
S'\xd8liq\xaf\xef!@\xe0}1\x99\x88\xda\xf5?'
tbag1008
(g1009
(I0
tS'b'
tRp1932
(I1
(I2
tg1012
I00
S'\xc6\x82\x83\xc7PcB@0I\x17O\x19\xd1@\xc0'
tbag1008
(g1009
(I0
tS'b'
tRp1933
(I1
(I2
tg1012
I00
S'\xfa4\x1a\xd1\x8a\xe7G\xc0>\xfc1d\xb8\xdc;\xc0'
tbag1008
(g1009
(I0
tS'b'
tRp1934
(I1
(I2
tg1012
I00
S'\xc0qr*s\xed\x1e\xc0\x97T}\xa1\xa4$2\xc0'
tbag1008
(g1009
(I0
tS'b'
tRp1935
(I1
(I2
tg1012
I00
S' \xf2Y\x9a\xc4.\x12@\xbf?\x88\x92\x8a\xe9<\xc0'
tbag1008
(g1009
(I0
tS'b'
tRp1936
(I1
(I2
tg1012
I00
S"\x8a$'\x98R\xd76\xc0\x13\x83\xda\x89\xc179\xc0"
tbag1008
(g1009
(I0
tS'b'
tRp1937
(I1
(I2
tg1012
I00
S'\x80\x02\xc6\xb4\xb4\n)@\xa0\xf0\xce\xf2\x11\x07A@'
tbag1008
(g1009
(I0
tS'b'
tRp1938
(I1
(I2
tg1012
I00
S'\xe4T\xf3\xaeg"&@\xa0zH\x7f\xf6J7@'
tbag1008
(g1009
(I0
tS'b'
tRp1939
(I1
(I2
tg1012
I00
S'^E\xa6\n5\xb5C\xc0CR\xe2=S @\xc0'
tbag1008
(g1009
(I0
tS'b'
tRp1940
(I1
(I2
tg1012
I00
S',\xa0Y\xbe\xfd\x860@8\xe0\xb2GG\xfe+\xc0'
tbag1008
(g1009
(I0
tS'b'
tRp1941
(I1
(I2
tg1012
I00
S'X)1\x7fn\xb9-\xc0B\xda;\x19\xea\xf5;\xc0'
tbag1008
(g1009
(I0
tS'b'
tRp1942
(I1
(I2
tg1012
I00
S'H\xd6I\x87\xb0*0@\n\x87)=O\xc87\xc0'
tbag1008
(g1009
(I0
tS'b'
tRp1943
(I1
(I2
tg1012
I00
S'\xf0F\xb0c\x92\xb2<@0\x01\xb7~f\x10B\xc0'
tbag1008
(g1009
(I0
tS'b'
tRp1944
(I1
(I2
tg1012
I00
S'X4\xfc~:\x8a\x1c@`6\xf2=\xf1\x15\x06\xc0'
tbag1008
(g1009
(I0
tS'b'
tRp1945
(I1
(I2
tg1012
I00
S'J;\x1b\xee&\xbdG@<\x8f\xc4oq&>\xc0'
tbag1008
(g1009
(I0
tS'b'
tRp1946
(I1
(I2
tg1012
I00
S".M\xfdUM'D\xc0\xb8\x05\xf5*'\xecC\xc0"
tbag1008
(g1009
(I0
tS'b'
tRp1947
(I1
(I2
tg1012
I00
S'Hx;\xaf\x18\x01\x13@\x04\x82\xd3\x1dp\xd6 @'
tbag1008
(g1009
(I0
tS'b'
tRp1948
(I1
(I2
tg1012
I00
S'\xac@\x12\xac\xcbi3@h\xb1}\xccW+\x13\xc0'
tbag1008
(g1009
(I0
tS'b'
tRp1949
(I1
(I2
tg1012
I00
S'\xfc\xe3\x9c\x952\x1f+@\x0e\x18\x0b\xb6\xdd\xa16\xc0'
tbag1008
(g1009
(I0
tS'b'
tRp1950
(I1
(I2
tg1012
I00
S'\x80\xe9I\xd9\xab.\xf5?v\xc3\x91\x11C\xd9<\xc0'
tbag1008
(g1009
(I0
tS'b'
tRp1951
(I1
(I2
tg1012
I00
S'0\xdb)\xe7\\\x89H\xc0\xc1\xae\x12\xd8\x8b B\xc0'
tbag1008
(g1009
(I0
tS'b'
tRp1952
(I1
(I2
tg1012
I00
S'\xfdC!P\xc7SE\xc0\xc8\xdc\xee\x835\x99@\xc0'
tbag1008
(g1009
(I0
tS'b'
tRp1953
(I1
(I2
tg1012
I00
S'\xa0\x92\x01\x1e\xd6\x92\xf1?\xe2\xb7\xc1~\xe6\x81G@'
tbag1008
(g1009
(I0
tS'b'
tRp1954
(I1
(I2
tg1012
I00
S'\xe4\xa7\x98\xbb\xfbN>@jUSf\xf0\x86=\xc0'
tbag1008
(g1009
(I0
tS'b'
tRp1955
(I1
(I2
tg1012
I00
S'\xf4k\x81\x1f\x1a~&@\xdeB\xa2\xcd\x0f67\xc0'
tbag1008
(g1009
(I0
tS'b'
tRp1956
(I1
(I2
tg1012
I00
S'\xd8q@t\xe5\x18\x15@7\xd69\xc6\xb0J<\xc0'
tbag1008
(g1009
(I0
tS'b'
tRp1957
(I1
(I2
tg1012
I00
S'\xa0\x17\xeb\n\x04-1@\x8c+\n\xa8\xaf\xe1 \xc0'
tbag1008
(g1009
(I0
tS'b'
tRp1958
(I1
(I2
tg1012
I00
S'\xa8\xe7\xe1\x8b:\xea\x16@\xae\xf5&\x11\x02L5\xc0'
tbag1008
(g1009
(I0
tS'b'
tRp1959
(I1
(I2
tg1012
I00
S'\x98_\x8a\xb9\xfd^(@\xc0\x88\x04\x0c\xcc\xa4\xf0\xbf'
tbag1008
(g1009
(I0
tS'b'
tRp1960
(I1
(I2
tg1012
I00
S'\x1c\xc0\x13\x97\xfe\x05:\xc0\xa1u2.\\\xa1A\xc0'
tbag1008
(g1009
(I0
tS'b'
tRp1961
(I1
(I2
tg1012
I00
S"\x1c'*9\xbc\xc9D@x\xddO\x10\xdc(C\xc0"
tbag1008
(g1009
(I0
tS'b'
tRp1962
(I1
(I2
tg1012
I00
S' $\x1b-dW\x12@@\x1ai\xec\xd569@'
tbag1008
(g1009
(I0
tS'b'
tRp1963
(I1
(I2
tg1012
I00
S'\xd8H\xab7\x96\xfb&@\x00\xf5\x96&\x08*\xe4\xbf'
tbag1008
(g1009
(I0
tS'b'
tRp1964
(I1
(I2
tg1012
I00
S'\xc2\x02\xebi\x02\xda@\xc0\x1e\xef\x14\x19\xfa\xf2>\xc0'
tbag1008
(g1009
(I0
tS'b'
tRp1965
(I1
(I2
tg1012
I00
S'H\x9b,pP\xcd#@*\x98\xdb\xa0\x9a\x9eA\xc0'
tbag1008
(g1009
(I0
tS'b'
tRp1966
(I1
(I2
tg1012
I00
S'H\xd7A\x11\xf5\xe13@\xb0\xe2\xc2\xd1\xd5\x1fB@'
tbag1008
(g1009
(I0
tS'b'
tRp1967
(I1
(I2
tg1012
I00
S'!dbM\x82\xf69\xc0.<\x9d\x98\xf1yA\xc0'
tbag1008
(g1009
(I0
tS'b'
tRp1968
(I1
(I2
tg1012
I00
S'x\x97\x9bH\x1b\x8b\x11\xc0X\xc5\xb9\xf5R\x8f@@'
tbag1008
(g1009
(I0
tS'b'
tRp1969
(I1
(I2
tg1012
I00
S'0\xef\x01(\xca"\x17\xc0P\x90\xe2\xb7\x03\xc0-@'
tbag1008
(g1009
(I0
tS'b'
tRp1970
(I1
(I2
tg1012
I00
S'\xc2\x1fxbj\x16<\xc0\xc9\x8f2\t2\xb8@\xc0'
tbag1008
(g1009
(I0
tS'b'
tRp1971
(I1
(I2
tg1012
I00
S'\x1c5\xe2k\x91D1@iKQMFlB\xc0'
tbag1008
(g1009
(I0
tS'b'
tRp1972
(I1
(I2
tg1012
I00
S' \xce\xab\xae\xc8\xdc\xf4?\xacdl\\o\xa0"\xc0'
tbag1008
(g1009
(I0
tS'b'
tRp1973
(I1
(I2
tg1012
I00
S'\x88\xf9`\xfe\xa4\x13-@\xf0NlK\\ <@'
tbag1008
(g1009
(I0
tS'b'
tRp1974
(I1
(I2
tg1012
I00
S'\xbap\xc4V\xa4\xbcD@\xaef\x9e@\xaf\xd7@\xc0'
tbag1008
(g1009
(I0
tS'b'
tRp1975
(I1
(I2
tg1012
I00
S'\x10\xb5\xca\xf9^\x1d @VGO\x02\x0b\xe3C@'
tbag1008
(g1009
(I0
tS'b'
tRp1976
(I1
(I2
tg1012
I00
S'`\x8f5\x1e\x1a\x17\x06\xc0\xac\xb0&\x12\x12\xce(@'
tbag1008
(g1009
(I0
tS'b'
tRp1977
(I1
(I2
tg1012
I00
S'\x8a\xcb\xac1\x92;>\xc0\xe4\xd2\x836+\x92=\xc0'
tbag1008
(g1009
(I0
tS'b'
tRp1978
(I1
(I2
tg1012
I00
S'\xc8\xd4\xa6\x80\xb95:@\xba\xd3\x16q*}A\xc0'
tbag1008
(g1009
(I0
tS'b'
tRp1979
(I1
(I2
tg1012
I00
S'\xb0u\xcd\x9f\xee\x1b\x1d@\x14\xa5k\x02\xb4\xf37@'
tbag1008
(g1009
(I0
tS'b'
tRp1980
(I1
(I2
tg1012
I00
S'\x18+,3l#.@Pv\xd4l+\x86\x0f\xc0'
tbag1008
(g1009
(I0
tS'b'
tRp1981
(I1
(I2
tg1012
I00
S'p\x90\x14g\xac\xf6\x14\xc0\xd0G\xf5\xc7_\xa96\xc0'
tbag1008
(g1009
(I0
tS'b'
tRp1982
(I1
(I2
tg1012
I00
S'tD\x90\xab\x98`3@ \x90\xe8>\x0e\xb0C\xc0'
tbag1008
(g1009
(I0
tS'b'
tRp1983
(I1
(I2
tg1012
I00
S'\x80~"3\x00\xf4/@\x80\xc1\xf3\x8aZ\xd4:@'
tbag1008
(g1009
(I0
tS'b'
tRp1984
(I1
(I2
tg1012
I00
S'@\xb2\x01t\xba]\x19\xc0\x92\x16\xf9\x9fc\xc9A@'
tbag1008
(g1009
(I0
tS'b'
tRp1985
(I1
(I2
tg1012
I00
S'X\x05fw\x8d\xcf5\xc0\xa2\xb3\n\xbcG\x9c?\xc0'
tbag1008
(g1009
(I0
tS'b'
tRp1986
(I1
(I2
tg1012
I00
S'\xf0\xc9A\x04\xf8\x9b#@t"\tn\xad8-\xc0'
tbag1008
(g1009
(I0
tS'b'
tRp1987
(I1
(I2
tg1012
I00
S'\x00\ni\xc3\xf2J2@\xeaaY\x9a\xd5^1\xc0'
tbag1008
(g1009
(I0
tS'b'
tRp1988
(I1
(I2
tg1012
I00
S'\xc0\xc0l\xf6MA\r\xc0x\xae\xe9\xbd\xda\xff6\xc0'
tbag1008
(g1009
(I0
tS'b'
tRp1989
(I1
(I2
tg1012
I00
S'\xc0\x01\x96f\xaf\xf0B@l\xe6\x18\\r\xe0>\xc0'
tbag1008
(g1009
(I0
tS'b'
tRp1990
(I1
(I2
tg1012
I00
S'\xb6cJ\xa1C/>\xc0\xe7\x958YD\xe9<\xc0'
tbag1008
(g1009
(I0
tS'b'
tRp1991
(I1
(I2
tg1012
I00
S'\xd08\xd9RE\x12\x0c\xc0\x94\x1d\xf8/\x0cq@@'
tbag1008
(g1009
(I0
tS'b'
tRp1992
(I1
(I2
tg1012
I00
S'\x08\xfa\x1b\xc9\xf1\xa6\x11@\xecMH/\xe3\xce=@'
tbag1008
(g1009
(I0
tS'b'
tRp1993
(I1
(I2
tg1012
I00
S'H\xf5\xe5i\x01z\x15@\x887\xf3o\x8e=3\xc0'
tbag1008
(g1009
(I0
tS'b'
tRp1994
(I1
(I2
tg1012
I00
S"\xa6']\x08\x03|;\xc0\xecZ\xc1c\xc0\xceC\xc0"
tbag1008
(g1009
(I0
tS'b'
tRp1995
(I1
(I2
tg1012
I00
S'(\xce\t\x8d\xfd\xf4@\xc0\x8c\x0c\x89\x0c\xa0\xa1=\xc0'
tbag1008
(g1009
(I0
tS'b'
tRp1996
(I1
(I2
tg1012
I00
S'\xa0\xb6\xe8\xa3\xef\x01\xfd\xbf\xdcCFP`\xe7$@'
tbag1008
(g1009
(I0
tS'b'
tRp1997
(I1
(I2
tg1012
I00
S'\x18a\x89\\.T#@\x1c\xd8\xcc\xfe~V+@'
tbag1008
(g1009
(I0
tS'b'
tRp1998
(I1
(I2
tg1012
I00
S'V\xd4[\x03\xbe$H\xc0(1c\xd8d\xbfC\xc0'
tbag1008
(g1009
(I0
tS'b'
tRp1999
(I1
(I2
tg1012
I00
S'\xfc]\x00\xd9\xbb8<@\xe0?~\x15a\x98=\xc0'
tbag1008
(g1009
(I0
tS'b'
tRp2000
(I1
(I2
tg1012
I00
S'a\xd1\xd4g\x11V4\xc0\x01\x85q\xca\xa6eC\xc0'
tbag1008
(g1009
(I0
tS'b'
tRp2001
(I1
(I2
tg1012
I00
S"\x89\xd4,\xe7N25\xc0o\x8f\xaec\xbb'C\xc0"
tbag1008
(g1009
(I0
tS'b'
tRp2002
(I1
(I2
tg1012
I00
S'\xf0\xef\xd6\xf9;\xdb4@\x8e\x91\x98\xc4\xb9\xca=\xc0'
tbag1008
(g1009
(I0
tS'b'
tRp2003
(I1
(I2
tg1012
I00
S"\xb4\x7f\xf8C02'\xc0\xa7%\t\x98\xaa\x03@\xc0"
tbag1008
(g1009
(I0
tS'b'
tRp2004
(I1
(I2
tg1012
I00
S'po\xfb\x9f\x8dX\r\xc0\x1c;!"\xfa\xbcA@'
tbag1008
(g1009
(I0
tS'b'
tRp2005
(I1
(I2
tg1012
I00
S'\xb8\xce\xcbJ\xf5\x8c/@bfL\xaa`\x1d1\xc0'
tbag1008
(g1009
(I0
tS'b'
tRp2006
(I1
(I2
tg1012
I00
S'\x07\xc7\xa38\xb2qC\xc0\x8c|\x1c\xb6\xed\\?\xc0'
tbag1008
(g1009
(I0
tS'b'
tRp2007
(I1
(I2
tg1012
I00
S'\xc0\x1b=\xb0\xb0l\xee\xbft\r\xdc\x89\x1c\xe7+\xc0'
tbag1008
(g1009
(I0
tS'b'
tRp2008
(I1
(I2
tg1012
I00
S" yx\xc1\xcb\xa4\x1f\xc0\xc4\xc0]\xc2\x04\xbe'\xc0"
tbag1008
(g1009
(I0
tS'b'
tRp2009
(I1
(I2
tg1012
I00
S'\xc4\x89\xd4=\xb6w"@\xcd;\x16\x826\xe8;\xc0'
tbag1008
(g1009
(I0
tS'b'
tRp2010
(I1
(I2
tg1012
I00
S'\x90\xfa\xbd\xa3\xf1Q\x01@\xb0\x06i\xb0\x82\xaf\x0e@'
tbag1008
(g1009
(I0
tS'b'
tRp2011
(I1
(I2
tg1012
I00
S'\xc0\xa3\x1c\xb6\rh\xe2\xbf\xb0\x91\xe2\x07JX\x0c\xc0'
tbas.