(dp1
S'edges'
p2
ccollections
defaultdict
p3
(c__builtin__
list
p4
tRp5
I0
(lp6
I0
aI0
aI1
aI1
asI1
(lp7
I0
aI0
aI1
aI1
aI2
aI3
aI2
aI3
asI2
(lp8
I1
aI1
aI2
aI2
asI3
(lp9
I1
aI1
aI3
aI3
assS'vertices'
p10
(lp11
cnumpy.core.multiarray
_reconstruct
p12
(cnumpy
ndarray
p13
(I0
tS'b'
tRp14
(I1
(I2
tcnumpy
dtype
p15
(S'f8'
I0
I1
tRp16
(I3
S'<'
NNNI-1
I-1
I0
tbI00
S'333333\xc3\xbf\x9a\x99\x99\x99\x99\x99\xa9\xbf'
tbag12
(g13
(I0
tS'b'
tRp17
(I1
(I2
tg16
I00
S'\x00\x00\x00\x00\x00\x00\x00\x00\x9a\x99\x99\x99\x99\x99\xa9\xbf'
tbag12
(g13
(I0
tS'b'
tRp18
(I1
(I2
tg16
I00
S'333333\xc3?\x9a\x99\x99\x99\x99\x99\xa9\xbf'
tbag12
(g13
(I0
tS'b'
tRp19
(I1
(I2
tg16
I00
S'\x00\x00\x00\x00\x00\x00\x00\x00333333\xc3?'
tbas.