(dp1
S'edges'
p2
ccollections
defaultdict
p3
(c__builtin__
list
p4
tRp5
I0
(lp6
I30
aI33
aI81
aI122
aI133
aI143
aI166
aI206
aI207
aI230
aI240
aI252
aI293
aI319
aI331
aI334
aI341
aI349
aI373
aI382
aI430
aI540
aI582
aI612
aI620
aI656
aI672
aI681
aI736
aI748
aI765
aI783
aI798
aI849
aI894
aI895
aI897
aI905
aI915
aI931
aI967
aI974
aI989
aI991
aI997
asI1
(lp7
I3
aI15
aI56
aI71
aI75
aI87
aI89
aI94
aI130
aI131
aI141
aI165
aI179
aI184
aI192
aI197
aI219
aI235
aI243
aI258
aI275
aI347
aI353
aI367
aI371
aI407
aI417
aI421
aI433
aI438
aI452
aI493
aI497
aI499
aI515
aI528
aI577
aI616
aI643
aI697
aI738
aI745
aI785
aI787
aI790
aI799
aI806
aI817
aI821
aI889
aI920
aI937
aI987
asI2
(lp8
I5
aI35
aI58
aI66
aI174
aI249
aI286
aI287
aI295
aI305
aI428
aI434
aI473
aI516
aI526
aI533
aI538
aI730
aI814
aI837
aI936
aI959
asI3
(lp9
I1
aI15
aI40
aI56
aI68
aI71
aI75
aI87
aI89
aI130
aI131
aI165
aI184
aI192
aI219
aI235
aI243
aI258
aI275
aI316
aI353
aI371
aI421
aI424
aI438
aI452
aI454
aI493
aI496
aI515
aI528
aI577
aI616
aI646
aI670
aI689
aI698
aI745
aI785
aI787
aI790
aI817
aI821
aI851
aI864
aI889
aI899
aI912
aI914
aI917
aI920
aI925
aI937
aI938
aI987
asI4
(lp10
I34
aI40
aI47
aI53
aI90
aI104
aI127
aI152
aI164
aI167
aI170
aI173
aI223
aI264
aI272
aI279
aI346
aI351
aI356
aI364
aI387
aI398
aI399
aI414
aI419
aI448
aI449
aI463
aI485
aI507
aI558
aI597
aI615
aI618
aI629
aI631
aI633
aI641
aI707
aI740
aI771
aI797
aI860
aI874
aI925
aI926
aI928
aI945
aI977
aI996
asI5
(lp11
I2
aI14
aI35
aI58
aI66
aI150
aI174
aI249
aI286
aI287
aI295
aI300
aI305
aI343
aI385
aI428
aI429
aI434
aI473
aI481
aI482
aI487
aI516
aI526
aI533
aI538
aI539
aI575
aI669
aI683
aI706
aI716
aI727
aI730
aI733
aI751
aI755
aI814
aI837
aI841
aI916
aI936
aI959
asI6
(lp12
I101
aI120
aI144
aI155
aI180
aI181
aI203
aI302
aI309
aI310
aI313
aI336
aI396
aI402
aI415
aI478
aI483
aI501
aI524
aI536
aI546
aI579
aI661
aI665
aI691
aI695
aI731
aI786
aI858
aI878
aI881
asI7
(lp13
I64
aI88
aI134
aI154
aI198
aI205
aI242
aI259
aI261
aI315
aI326
aI340
aI374
aI375
aI377
aI462
aI492
aI502
aI564
aI568
aI614
aI651
aI700
aI705
aI718
aI743
aI756
aI795
aI890
aI906
asI8
(lp14
I19
aI37
aI107
aI148
aI262
aI281
aI282
aI308
aI312
aI380
aI465
aI587
aI610
aI627
aI648
aI657
aI682
aI735
aI754
aI770
aI826
aI922
aI964
aI970
aI973
asI9
(lp15
I41
aI82
aI97
aI158
aI164
aI215
aI221
aI229
aI291
aI328
aI357
aI359
aI386
aI413
aI432
aI486
aI548
aI567
aI570
aI585
aI615
aI625
aI634
aI647
aI676
aI684
aI732
aI759
aI763
aI772
aI793
aI797
aI829
aI840
aI842
aI846
aI887
aI928
asI10
(lp16
I20
aI22
aI27
aI76
aI78
aI115
aI123
aI124
aI141
aI193
aI197
aI202
aI285
aI338
aI347
aI397
aI400
aI444
aI506
aI510
aI517
aI527
aI573
aI613
aI673
aI734
aI769
aI774
aI825
aI831
aI868
aI879
aI880
aI921
aI946
aI969
aI976
aI994
asI11
(lp17
I29
aI70
aI119
aI144
aI155
aI168
aI180
aI181
aI186
aI214
aI265
aI269
aI310
aI379
aI410
aI415
aI456
aI476
aI477
aI491
aI501
aI520
aI523
aI594
aI617
aI636
aI661
aI681
aI691
aI694
aI719
aI731
aI765
aI798
aI803
aI811
aI834
aI836
aI847
aI858
aI861
aI881
aI883
aI898
aI978
asI12
(lp18
I70
aI72
aI112
aI117
aI125
aI168
aI171
aI188
aI379
aI440
aI455
aI456
aI476
aI491
aI505
aI514
aI520
aI583
aI600
aI609
aI619
aI655
aI685
aI694
aI711
aI715
aI719
aI726
aI847
aI854
aI861
aI923
aI978
asI13
(lp19
I26
aI36
aI39
aI47
aI53
aI90
aI118
aI142
aI145
aI170
aI189
aI218
aI223
aI264
aI270
aI273
aI274
aI280
aI346
aI381
aI387
aI393
aI398
aI399
aI405
aI414
aI419
aI443
aI449
aI467
aI495
aI500
aI537
aI541
aI606
aI611
aI621
aI629
aI633
aI649
aI658
aI687
aI740
aI775
aI781
aI791
aI833
aI855
aI857
aI860
aI874
aI944
aI945
aI977
asI14
(lp20
I5
aI28
aI58
aI66
aI113
aI150
aI151
aI163
aI174
aI208
aI245
aI249
aI273
aI294
aI296
aI300
aI314
aI343
aI363
aI385
aI390
aI403
aI420
aI428
aI429
aI472
aI481
aI482
aI487
aI500
aI547
aI553
aI561
aI566
aI575
aI654
aI666
aI669
aI683
aI706
aI716
aI727
aI733
aI751
aI753
aI755
aI796
aI841
aI916
aI936
aI944
asI15
(lp21
I1
aI3
aI40
aI56
aI71
aI87
aI89
aI102
aI130
aI131
aI152
aI158
aI165
aI184
aI192
aI219
aI225
aI229
aI235
aI243
aI258
aI275
aI279
aI364
aI371
aI386
aI421
aI424
aI438
aI452
aI463
aI474
aI493
aI496
aI528
aI577
aI631
aI732
aI745
aI750
aI768
aI785
aI787
aI829
aI840
aI851
aI885
aI889
aI917
aI920
aI925
aI937
aI938
aI987
aI996
asI16
(lp22
I18
aI62
aI65
aI110
aI138
aI149
aI157
aI166
aI172
aI178
aI244
aI255
aI297
aI319
aI325
aI341
aI349
aI389
aI458
aI512
aI530
aI559
aI596
aI604
aI640
aI656
aI672
aI674
aI728
aI778
aI808
aI843
aI873
aI894
aI943
aI967
aI981
asI17
(lp23
I21
aI46
aI49
aI51
aI88
aI105
aI126
aI128
aI136
aI175
aI183
aI205
aI222
aI239
aI261
aI271
aI299
aI315
aI326
aI354
aI375
aI422
aI435
aI457
aI492
aI502
aI549
aI560
aI565
aI578
aI605
aI632
aI659
aI700
aI703
aI710
aI718
aI723
aI743
aI809
aI812
aI818
aI828
aI872
aI884
aI907
aI933
aI941
aI960
aI962
aI972
asI18
(lp24
I16
aI62
aI65
aI81
aI110
aI133
aI138
aI143
aI149
aI166
aI172
aI178
aI206
aI244
aI297
aI319
aI325
aI331
aI341
aI349
aI389
aI458
aI512
aI554
aI559
aI582
aI596
aI604
aI640
aI656
aI672
aI674
aI728
aI778
aI808
aI843
aI849
aI873
aI894
aI895
aI900
aI931
aI943
aI967
aI981
aI997
asI19
(lp25
I8
aI37
aI44
aI45
aI103
aI107
aI108
aI116
aI139
aI148
aI232
aI257
aI262
aI281
aI282
aI308
aI312
aI322
aI332
aI376
aI380
aI465
aI469
aI587
aI607
aI610
aI627
aI648
aI657
aI735
aI754
aI770
aI788
aI826
aI832
aI835
aI856
aI892
aI922
aI958
aI964
aI970
aI973
asI20
(lp26
I10
aI22
aI27
aI68
aI75
aI78
aI94
aI98
aI115
aI124
aI141
aI197
aI209
aI285
aI338
aI347
aI353
aI367
aI400
aI421
aI438
aI444
aI497
aI510
aI573
aI577
aI616
aI697
aI729
aI769
aI790
aI799
aI817
aI821
aI825
aI831
aI864
aI880
aI899
aI921
aI946
asI21
(lp27
I17
aI49
aI51
aI88
aI105
aI132
aI136
aI175
aI183
aI205
aI222
aI242
aI261
aI271
aI315
aI326
aI354
aI375
aI422
aI435
aI457
aI480
aI492
aI502
aI560
aI565
aI599
aI605
aI659
aI700
aI703
aI723
aI743
aI809
aI818
aI884
aI933
aI941
aI960
aI962
aI972
asI22
(lp28
I10
aI20
aI60
aI76
aI78
aI94
aI98
aI115
aI123
aI141
aI179
aI195
aI197
aI202
aI227
aI237
aI285
aI338
aI347
aI353
aI367
aI397
aI400
aI407
aI423
aI436
aI437
aI444
aI497
aI515
aI527
aI551
aI573
aI616
aI673
aI680
aI697
aI709
aI720
aI729
aI738
aI769
aI774
aI780
aI799
aI806
aI831
aI879
aI880
aI902
aI946
aI994
asI23
(lp29
I42
aI43
aI54
aI69
aI73
aI79
aI95
aI109
aI140
aI146
aI153
aI190
aI196
aI217
aI254
aI266
aI289
aI342
aI345
aI369
aI378
aI384
aI397
aI408
aI445
aI446
aI464
aI468
aI506
aI522
aI552
aI572
aI580
aI592
aI593
aI598
aI603
aI628
aI660
aI663
aI664
aI701
aI713
aI721
aI725
aI734
aI752
aI762
aI766
aI789
aI815
aI839
aI850
aI866
aI868
aI869
aI893
aI919
aI940
aI949
aI950
aI953
aI968
aI984
asI24
(lp30
I32
aI57
aI80
aI83
aI135
aI146
aI160
aI177
aI182
aI187
aI194
aI212
aI263
aI277
aI317
aI318
aI335
aI339
aI342
aI344
aI361
aI372
aI439
aI453
aI519
aI544
aI601
aI678
aI688
aI699
aI702
aI704
aI721
aI752
aI766
aI773
aI792
aI794
aI802
aI823
aI848
aI891
aI893
aI924
aI930
aI935
aI939
aI952
aI990
aI992
asI25
(lp31
I41
aI55
aI82
aI97
aI102
aI215
aI221
aI225
aI229
aI258
aI260
aI328
aI337
aI358
aI386
aI411
aI432
aI474
aI486
aI528
aI567
aI585
aI591
aI625
aI634
aI647
aI684
aI732
aI746
aI750
aI759
aI768
aI772
aI793
aI829
aI840
aI920
aI937
aI954
aI961
aI995
asI26
(lp32
I13
aI36
aI53
aI90
aI96
aI104
aI118
aI142
aI145
aI176
aI218
aI268
aI270
aI274
aI346
aI381
aI387
aI388
aI393
aI398
aI399
aI405
aI414
aI416
aI419
aI449
aI475
aI537
aI541
aI606
aI621
aI629
aI633
aI635
aI649
aI658
aI668
aI679
aI687
aI740
aI741
aI771
aI775
aI781
aI791
aI833
aI857
aI874
aI888
aI945
aI955
asI27
(lp33
I10
aI20
aI124
aI141
aI193
aI197
aI209
aI285
aI338
aI347
aI444
aI510
aI517
aI613
aI769
aI825
aI831
aI880
aI921
aI969
aI976
asI28
(lp34
I14
aI96
aI113
aI151
aI156
aI163
aI176
aI185
aI208
aI245
aI274
aI294
aI296
aI314
aI348
aI363
aI390
aI403
aI420
aI500
aI541
aI547
aI553
aI561
aI575
aI621
aI638
aI654
aI666
aI668
aI679
aI727
aI733
aI741
aI742
aI751
aI753
aI761
aI775
aI796
aI865
aI888
aI955
aI993
asI29
(lp35
I11
aI101
aI144
aI155
aI161
aI186
aI201
aI214
aI226
aI251
aI269
aI310
aI368
aI382
aI396
aI410
aI415
aI431
aI479
aI484
aI501
aI523
aI540
aI543
aI579
aI581
aI584
aI642
aI661
aI681
aI691
aI695
aI736
aI765
aI783
aI798
aI836
aI844
aI934
aI947
aI957
aI974
aI991
asI30
(lp36
I0
aI33
aI81
aI122
aI133
aI143
aI201
aI206
aI207
aI213
aI230
aI293
aI324
aI334
aI349
aI362
aI373
aI382
aI430
aI508
aI529
aI540
aI543
aI582
aI584
aI644
aI681
aI736
aI748
aI765
aI783
aI798
aI804
aI844
aI886
aI895
aI897
aI905
aI931
aI957
aI967
aI974
aI985
aI989
aI991
aI997
asI31
(lp37
I74
aI95
aI100
aI129
aI220
aI231
aI233
aI320
aI329
aI404
aI489
aI521
aI542
aI571
aI588
aI603
aI622
aI662
aI714
aI782
aI853
aI867
aI876
aI949
aI953
aI956
aI963
aI988
asI32
(lp38
I24
aI44
aI48
aI57
aI63
aI67
aI80
aI83
aI85
aI103
aI111
aI135
aI177
aI182
aI194
aI200
aI212
aI232
aI238
aI250
aI263
aI276
aI277
aI278
aI301
aI318
aI332
aI339
aI344
aI360
aI361
aI372
aI376
aI383
aI391
aI441
aI453
aI469
aI504
aI511
aI518
aI519
aI532
aI534
aI544
aI563
aI595
aI677
aI678
aI688
aI699
aI702
aI704
aI737
aI764
aI767
aI773
aI788
aI794
aI802
aI807
aI820
aI835
aI848
aI891
aI892
aI903
aI924
aI927
aI930
aI935
aI939
aI979
aI990
asI33
(lp39
I0
aI30
aI81
aI122
aI133
aI143
aI149
aI166
aI178
aI206
aI207
aI213
aI230
aI293
aI331
aI334
aI341
aI349
aI362
aI373
aI382
aI430
aI508
aI529
aI540
aI582
aI596
aI604
aI656
aI672
aI728
aI736
aI748
aI765
aI783
aI804
aI886
aI894
aI895
aI897
aI900
aI905
aI931
aI967
aI989
aI991
aI997
aI998
asI34
(lp40
I4
aI36
aI53
aI90
aI104
aI127
aI167
aI170
aI173
aI264
aI268
aI270
aI272
aI351
aI387
aI398
aI399
aI414
aI449
aI475
aI507
aI618
aI633
aI635
aI649
aI687
aI740
aI771
aI781
aI857
aI926
aI945
asI35
(lp41
I2
aI5
aI50
aI58
aI66
aI114
aI249
aI286
aI287
aI295
aI305
aI428
aI473
aI516
aI526
aI533
aI538
aI539
aI730
aI776
aI814
aI827
aI837
aI841
aI936
aI959
asI36
(lp42
I13
aI26
aI34
aI39
aI47
aI53
aI90
aI104
aI118
aI142
aI145
aI167
aI170
aI176
aI218
aI264
aI270
aI274
aI346
aI381
aI387
aI388
aI393
aI398
aI399
aI405
aI414
aI419
aI443
aI449
aI475
aI537
aI541
aI606
aI618
aI621
aI629
aI633
aI635
aI649
aI658
aI679
aI687
aI740
aI741
aI771
aI775
aI781
aI791
aI833
aI855
aI857
aI860
aI874
aI926
aI945
aI977
asI37
(lp43
I8
aI19
aI44
aI45
aI107
aI108
aI116
aI139
aI148
aI232
aI257
aI262
aI281
aI282
aI283
aI308
aI312
aI322
aI332
aI365
aI376
aI380
aI465
aI469
aI587
aI607
aI610
aI627
aI648
aI657
aI735
aI754
aI770
aI788
aI826
aI832
aI856
aI922
aI958
aI964
aI970
aI973
asI38
(lp44
I59
aI67
aI108
aI139
aI162
aI169
aI194
aI224
aI257
aI267
aI321
aI327
aI330
aI333
aI350
aI352
aI360
aI365
aI426
aI459
aI461
aI494
aI498
aI511
aI555
aI602
aI607
aI608
aI630
aI652
aI667
aI675
aI677
aI690
aI693
aI708
aI722
aI747
aI760
aI773
aI807
aI832
aI845
aI852
aI856
aI863
aI877
aI882
aI911
aI958
aI971
aI986
asI39
(lp45
I13
aI36
aI47
aI53
aI90
aI92
aI93
aI99
aI118
aI142
aI145
aI170
aI189
aI218
aI223
aI264
aI273
aI280
aI311
aI346
aI381
aI393
aI398
aI399
aI405
aI414
aI419
aI425
aI443
aI449
aI467
aI495
aI537
aI558
aI597
aI606
aI611
aI629
aI633
aI641
aI658
aI696
aI707
aI739
aI740
aI816
aI855
aI860
aI874
aI944
aI977
asI40
(lp46
I3
aI4
aI15
aI71
aI89
aI152
aI158
aI164
aI167
aI173
aI184
aI219
aI225
aI243
aI272
aI279
aI351
aI356
aI364
aI386
aI448
aI463
aI474
aI485
aI496
aI507
aI569
aI615
aI631
aI634
aI732
aI745
aI750
aI787
aI810
aI829
aI851
aI885
aI917
aI920
aI925
aI928
aI938
aI987
aI996
asI41
(lp47
I9
aI25
aI55
aI82
aI87
aI97
aI102
aI158
aI165
aI215
aI221
aI225
aI229
aI258
aI260
aI328
aI337
aI357
aI358
aI386
aI411
aI432
aI474
aI486
aI496
aI528
aI567
aI585
aI591
aI615
aI625
aI634
aI647
aI684
aI732
aI746
aI750
aI759
aI768
aI772
aI793
aI829
aI840
aI846
aI920
aI937
aI954
aI961
aI987
aI995
asI42
(lp48
I23
aI43
aI54
aI69
aI73
aI79
aI95
aI100
aI109
aI129
aI140
aI146
aI190
aI196
aI210
aI217
aI254
aI266
aI289
aI345
aI369
aI378
aI384
aI404
aI408
aI445
aI446
aI464
aI468
aI506
aI522
aI542
aI552
aI562
aI580
aI592
aI593
aI598
aI603
aI628
aI660
aI663
aI664
aI701
aI713
aI721
aI725
aI734
aI752
aI762
aI766
aI782
aI789
aI839
aI866
aI868
aI869
aI893
aI940
aI949
aI950
aI953
aI956
aI963
aI968
aI984
asI43
(lp49
I23
aI42
aI54
aI69
aI73
aI79
aI109
aI140
aI146
aI153
aI190
aI196
aI217
aI254
aI266
aI289
aI339
aI342
aI345
aI369
aI378
aI384
aI408
aI439
aI445
aI446
aI468
aI506
aI522
aI552
aI572
aI580
aI592
aI593
aI598
aI628
aI660
aI663
aI664
aI701
aI713
aI721
aI725
aI752
aI762
aI766
aI789
aI815
aI839
aI850
aI866
aI868
aI869
aI893
aI919
aI940
aI950
aI953
aI968
aI984
asI44
(lp50
I19
aI32
aI37
aI48
aI67
aI83
aI107
aI108
aI135
aI139
aI148
aI162
aI169
aI194
aI224
aI232
aI257
aI262
aI321
aI330
aI332
aI350
aI352
aI360
aI361
aI365
aI372
aI376
aI391
aI441
aI453
aI459
aI461
aI469
aI511
aI519
aI555
aI563
aI595
aI602
aI608
aI610
aI630
aI648
aI652
aI667
aI675
aI677
aI678
aI764
aI767
aI770
aI773
aI788
aI807
aI820
aI832
aI835
aI856
aI877
aI892
aI903
aI922
aI927
aI935
aI958
aI964
aI970
aI979
aI986
aI990
asI45
(lp51
I19
aI37
aI46
aI49
aI51
aI86
aI105
aI107
aI108
aI116
aI126
aI128
aI139
aI162
aI169
aI239
aI257
aI271
aI282
aI283
aI299
aI308
aI312
aI322
aI365
aI380
aI401
aI494
aI549
aI565
aI578
aI607
aI610
aI630
aI632
aI648
aI657
aI682
aI710
aI722
aI735
aI754
aI760
aI770
aI812
aI826
aI828
aI832
aI852
aI859
aI863
aI872
aI907
aI913
aI922
aI964
aI973
asI46
(lp52
I17
aI45
aI49
aI51
aI59
aI86
aI116
aI126
aI139
aI162
aI169
aI239
aI256
aI261
aI271
aI283
aI290
aI315
aI322
aI365
aI377
aI426
aI494
aI498
aI502
aI557
aI576
aI602
aI607
aI630
aI650
aI700
aI705
aI718
aI722
aI760
aI795
aI812
aI828
aI852
aI862
aI863
aI871
aI872
aI882
aI906
aI911
aI941
aI962
asI47
(lp53
I4
aI13
aI36
aI39
aI92
aI93
aI99
aI118
aI142
aI145
aI170
aI218
aI223
aI264
aI280
aI346
aI356
aI359
aI393
aI413
aI419
aI425
aI443
aI448
aI495
aI537
aI558
aI597
aI606
aI611
aI629
aI641
aI676
aI707
aI739
aI763
aI797
aI801
aI842
aI855
aI860
aI874
aI928
aI977
asI48
(lp54
I32
aI44
aI57
aI63
aI80
aI83
aI85
aI103
aI111
aI135
aI148
aI177
aI194
aI200
aI212
aI232
aI238
aI250
aI263
aI276
aI277
aI278
aI301
aI339
aI344
aI360
aI361
aI372
aI376
aI383
aI391
aI441
aI453
aI469
aI490
aI504
aI518
aI519
aI532
aI534
aI563
aI595
aI678
aI688
aI699
aI702
aI704
aI737
aI758
aI764
aI767
aI784
aI788
aI802
aI807
aI820
aI835
aI848
aI891
aI892
aI903
aI904
aI909
aI924
aI927
aI930
aI935
aI939
aI979
aI983
aI990
asI49
(lp55
I17
aI21
aI45
aI46
aI51
aI86
aI88
aI105
aI116
aI126
aI128
aI136
aI175
aI183
aI205
aI239
aI261
aI271
aI283
aI299
aI315
aI322
aI326
aI375
aI422
aI457
aI494
aI502
aI549
aI560
aI565
aI578
aI605
aI632
aI659
aI700
aI703
aI705
aI710
aI718
aI723
aI743
aI809
aI812
aI828
aI859
aI863
aI872
aI884
aI907
aI913
aI933
aI941
aI960
aI962
asI50
(lp56
I35
aI66
aI92
aI99
aI114
aI189
aI199
aI273
aI295
aI311
aI425
aI467
aI516
aI525
aI526
aI539
aI566
aI611
aI637
aI671
aI696
aI706
aI776
aI816
aI827
aI837
aI841
aI855
aI910
aI936
aI944
aI951
aI959
asI51
(lp57
I17
aI21
aI45
aI46
aI49
aI86
aI105
aI116
aI126
aI128
aI136
aI175
aI239
aI261
aI271
aI283
aI299
aI315
aI322
aI326
aI375
aI401
aI422
aI435
aI457
aI494
aI502
aI549
aI560
aI565
aI578
aI605
aI632
aI659
aI682
aI700
aI703
aI710
aI718
aI723
aI754
aI809
aI812
aI828
aI859
aI872
aI884
aI907
aI913
aI933
aI941
aI960
aI962
aI972
asI52
(lp58
I62
aI65
aI77
aI138
aI157
aI172
aI210
aI228
aI244
aI255
aI284
aI288
aI323
aI355
aI366
aI392
aI418
aI442
aI458
aI464
aI466
aI468
aI512
aI513
aI530
aI554
aI559
aI562
aI589
aI624
aI640
aI674
aI744
aI757
aI778
aI779
aI805
aI819
aI822
aI843
aI873
aI901
aI908
aI943
aI956
aI980
aI981
asI53
(lp59
I4
aI13
aI26
aI34
aI36
aI39
aI104
aI118
aI142
aI145
aI167
aI218
aI223
aI268
aI270
aI274
aI351
aI356
aI381
aI387
aI393
aI405
aI443
aI448
aI475
aI537
aI558
aI606
aI618
aI635
aI641
aI649
aI658
aI687
aI771
aI781
aI791
aI833
aI855
aI857
aI860
aI926
aI945
aI977
asI54
(lp60
I23
aI42
aI43
aI69
aI73
aI79
aI95
aI100
aI109
aI123
aI140
aI146
aI153
aI190
aI202
aI217
aI254
aI266
aI289
aI342
aI369
aI378
aI384
aI397
aI408
aI423
aI445
aI446
aI506
aI527
aI552
aI562
aI572
aI580
aI592
aI593
aI598
aI603
aI628
aI660
aI663
aI664
aI701
aI713
aI721
aI725
aI734
aI752
aI762
aI766
aI789
aI839
aI866
aI868
aI869
aI893
aI919
aI940
aI949
aI950
aI953
aI963
aI968
aI984
asI55
(lp61
I25
aI41
aI82
aI87
aI102
aI165
aI215
aI221
aI229
aI258
aI260
aI328
aI337
aI358
aI411
aI432
aI433
aI447
aI474
aI486
aI499
aI528
aI567
aI585
aI591
aI623
aI625
aI643
aI684
aI746
aI750
aI768
aI772
aI793
aI829
aI830
aI840
aI937
aI954
aI961
aI995
asI56
(lp62
I1
aI3
aI15
aI71
aI75
aI87
aI89
aI94
aI102
aI130
aI165
aI179
aI184
aI192
aI219
aI229
aI235
aI243
aI275
aI353
aI367
aI371
aI407
aI417
aI421
aI433
aI438
aI452
aI474
aI493
aI496
aI497
aI499
aI515
aI577
aI591
aI616
aI643
aI738
aI745
aI750
aI768
aI785
aI787
aI790
aI799
aI806
aI817
aI889
aI954
aI987
asI57
(lp63
I24
aI32
aI48
aI67
aI80
aI83
aI135
aI160
aI182
aI194
aI212
aI263
aI276
aI277
aI317
aI318
aI333
aI335
aI339
aI344
aI360
aI361
aI372
aI391
aI441
aI453
aI511
aI519
aI544
aI595
aI601
aI677
aI678
aI688
aI690
aI699
aI702
aI704
aI737
aI764
aI767
aI773
aI794
aI802
aI807
aI823
aI891
aI892
aI924
aI927
aI930
aI935
aI939
aI952
aI979
aI986
aI990
asI58
(lp64
I2
aI5
aI14
aI35
aI66
aI150
aI174
aI249
aI286
aI287
aI295
aI296
aI300
aI305
aI343
aI363
aI385
aI390
aI428
aI429
aI434
aI472
aI473
aI481
aI482
aI487
aI516
aI526
aI533
aI538
aI539
aI561
aI575
aI669
aI683
aI706
aI716
aI727
aI730
aI733
aI751
aI755
aI814
aI841
aI916
aI936
aI959
asI59
(lp65
I38
aI46
aI162
aI169
aI256
aI267
aI290
aI327
aI350
aI377
aI426
aI494
aI498
aI557
aI576
aI602
aI650
aI652
aI693
aI705
aI708
aI712
aI718
aI722
aI760
aI777
aI795
aI812
aI845
aI852
aI862
aI863
aI871
aI882
aI890
aI906
aI911
aI971
asI60
(lp66
I22
aI76
aI78
aI79
aI98
aI115
aI121
aI123
aI153
aI187
aI191
aI195
aI202
aI227
aI237
aI253
aI266
aI304
aI342
aI397
aI400
aI412
aI423
aI436
aI437
aI439
aI444
aI460
aI471
aI506
aI527
aI551
aI572
aI573
aI645
aI660
aI663
aI664
aI673
aI680
aI692
aI701
aI709
aI720
aI729
aI774
aI780
aI792
aI866
aI875
aI879
aI880
aI902
aI919
aI932
aI946
aI965
aI992
aI994
asI61
(lp67
I84
aI106
aI147
aI179
aI191
aI195
aI227
aI237
aI241
aI253
aI304
aI306
aI337
aI395
aI433
aI436
aI447
aI460
aI499
aI503
aI551
aI623
aI643
aI680
aI692
aI709
aI720
aI780
aI800
aI830
aI875
aI902
aI929
asI62
(lp68
I16
aI18
aI52
aI65
aI110
aI138
aI149
aI157
aI172
aI244
aI255
aI341
aI389
aI458
aI512
aI513
aI530
aI554
aI559
aI589
aI596
aI604
aI640
aI674
aI728
aI744
aI778
aI805
aI808
aI819
aI822
aI843
aI873
aI894
aI901
aI908
aI943
aI980
aI981
asI63
(lp69
I32
aI48
aI77
aI80
aI85
aI111
aI140
aI177
aI190
aI196
aI204
aI212
aI238
aI250
aI254
aI263
aI276
aI277
aI288
aI301
aI339
aI345
aI361
aI369
aI378
aI383
aI384
aI392
aI418
aI441
aI445
aI453
aI466
aI468
aI490
aI504
aI518
aI522
aI532
aI534
aI580
aI624
aI628
aI653
aI688
aI699
aI702
aI713
aI721
aI737
aI762
aI789
aI802
aI815
aI820
aI848
aI850
aI869
aI891
aI893
aI909
aI930
aI935
aI948
aI966
aI968
aI982
aI983
asI64
(lp70
I7
aI88
aI134
aI154
aI198
aI205
aI242
aI259
aI340
aI374
aI375
aI377
aI462
aI492
aI564
aI568
aI614
aI651
aI705
aI712
aI743
aI756
aI795
aI890
aI906
asI65
(lp71
I16
aI18
aI52
aI62
aI133
aI143
aI149
aI166
aI172
aI178
aI206
aI210
aI220
aI244
aI248
aI293
aI329
aI341
aI349
aI362
aI366
aI389
aI442
aI458
aI508
aI512
aI513
aI554
aI559
aI588
aI589
aI596
aI604
aI640
aI672
aI674
aI714
aI728
aI779
aI808
aI822
aI843
aI873
aI886
aI894
aI895
aI900
aI901
aI943
aI956
aI967
aI981
aI988
aI997
aI998
asI66
(lp72
I2
aI5
aI14
aI35
aI50
aI58
aI113
aI114
aI150
aI174
aI189
aI245
aI249
aI273
aI286
aI287
aI295
aI296
aI300
aI343
aI363
aI385
aI390
aI420
aI428
aI434
aI467
aI481
aI482
aI487
aI500
aI516
aI526
aI538
aI539
aI561
aI566
aI575
aI669
aI671
aI683
aI696
aI706
aI716
aI727
aI733
aI751
aI755
aI827
aI837
aI841
aI916
aI944
aI959
asI67
(lp73
I32
aI38
aI44
aI57
aI83
aI135
aI182
aI224
aI317
aI318
aI321
aI327
aI330
aI333
aI335
aI344
aI350
aI352
aI360
aI372
aI376
aI391
aI459
aI461
aI498
aI511
aI519
aI544
aI555
aI595
aI601
aI602
aI608
aI652
aI667
aI675
aI677
aI678
aI690
aI699
aI704
aI747
aI764
aI773
aI794
aI807
aI823
aI832
aI845
aI856
aI877
aI924
aI927
aI939
aI958
aI986
aI990
asI68
(lp74
I3
aI20
aI75
aI124
aI131
aI141
aI184
aI197
aI209
aI235
aI243
aI285
aI316
aI347
aI353
aI421
aI424
aI438
aI452
aI454
aI577
aI670
aI689
aI698
aI790
aI817
aI821
aI831
aI864
aI899
aI912
aI914
asI69
(lp75
I23
aI42
aI43
aI54
aI73
aI79
aI109
aI123
aI140
aI146
aI153
aI190
aI202
aI217
aI266
aI289
aI342
aI378
aI397
aI408
aI423
aI439
aI445
aI446
aI471
aI527
aI552
aI572
aI580
aI593
aI598
aI628
aI660
aI663
aI664
aI673
aI701
aI713
aI725
aI734
aI752
aI762
aI766
aI789
aI792
aI839
aI866
aI868
aI869
aI879
aI919
aI932
aI940
aI949
aI950
aI953
aI968
aI984
aI994
asI70
(lp76
I11
aI12
aI72
aI112
aI117
aI119
aI125
aI144
aI168
aI180
aI181
aI186
aI214
aI269
aI309
aI379
aI410
aI440
aI455
aI456
aI476
aI477
aI491
aI509
aI514
aI520
aI523
aI531
aI583
aI594
aI609
aI617
aI619
aI636
aI655
aI661
aI694
aI711
aI715
aI719
aI726
aI731
aI803
aI811
aI834
aI836
aI847
aI858
aI861
aI881
aI883
aI898
aI978
asI71
(lp77
I1
aI3
aI15
aI40
aI56
aI75
aI89
aI130
aI131
aI152
aI192
aI219
aI234
aI235
aI275
aI364
aI371
aI424
aI452
aI454
aI463
aI493
aI496
aI646
aI670
aI689
aI698
aI745
aI787
aI790
aI810
aI817
aI851
aI885
aI889
aI912
aI914
aI917
aI925
aI938
aI996
asI72
(lp78
I12
aI70
aI112
aI117
aI125
aI168
aI171
aI379
aI440
aI455
aI456
aI476
aI491
aI505
aI509
aI514
aI520
aI531
aI583
aI600
aI609
aI617
aI619
aI655
aI685
aI694
aI711
aI715
aI719
aI726
aI803
aI847
aI854
aI861
aI923
aI978
asI73
(lp79
I23
aI42
aI43
aI54
aI69
aI95
aI100
aI109
aI129
aI210
aI217
aI254
aI284
aI289
aI329
aI366
aI369
aI384
aI392
aI404
aI408
aI442
aI446
aI464
aI468
aI513
aI522
aI542
aI552
aI562
aI592
aI593
aI598
aI603
aI725
aI734
aI757
aI779
aI782
aI839
aI853
aI940
aI949
aI950
aI956
aI963
aI984
asI74
(lp80
I31
aI211
aI213
aI231
aI233
aI324
aI362
aI484
aI488
aI489
aI521
aI529
aI571
aI622
aI639
aI642
aI644
aI662
aI714
aI804
aI867
aI876
aI918
aI985
aI988
asI75
(lp81
I1
aI3
aI20
aI56
aI68
aI71
aI94
aI124
aI130
aI131
aI192
aI209
aI275
aI285
aI316
aI338
aI367
aI371
aI424
aI493
aI497
aI515
aI616
aI670
aI689
aI697
aI698
aI738
aI769
aI785
aI799
aI821
aI831
aI864
aI889
aI899
aI912
aI914
aI946
asI76
(lp82
I10
aI22
aI60
aI78
aI84
aI94
aI98
aI115
aI123
aI191
aI195
aI202
aI227
aI237
aI304
aI338
aI367
aI400
aI407
aI423
aI436
aI437
aI444
aI471
aI497
aI527
aI551
aI572
aI573
aI645
aI673
aI680
aI692
aI697
aI709
aI720
aI729
aI769
aI774
aI780
aI799
aI806
aI879
aI880
aI902
aI919
aI932
aI946
aI994
asI77
(lp83
I52
aI63
aI91
aI196
aI204
aI228
aI255
aI284
aI288
aI303
aI323
aI345
aI355
aI392
aI394
aI418
aI464
aI466
aI522
aI530
aI574
aI586
aI589
aI624
aI653
aI744
aI749
aI757
aI805
aI813
aI815
aI819
aI822
aI838
aI850
aI901
aI908
aI942
aI948
aI966
aI980
aI982
aI983
asI78
(lp84
I10
aI20
aI22
aI60
aI76
aI98
aI115
aI195
aI227
aI237
aI400
aI407
aI423
aI436
aI437
aI551
aI573
aI673
aI680
aI697
aI709
aI720
aI729
aI774
aI806
aI879
aI902
aI921
aI969
aI976
aI994
asI79
(lp85
I23
aI42
aI43
aI54
aI60
aI69
aI153
aI439
aI471
aI774
aI792
aI932
aI963
asI80
(lp86
I24
aI32
aI48
aI57
aI63
aI85
aI111
aI177
aI196
aI200
aI212
aI238
aI250
aI263
aI276
aI277
aI278
aI301
aI344
aI345
aI383
aI391
aI441
aI490
aI504
aI518
aI532
aI534
aI563
aI688
aI702
aI704
aI737
aI758
aI767
aI802
aI815
aI820
aI835
aI848
aI850
aI891
aI903
aI909
aI924
aI930
aI939
aI966
aI979
aI983
asI81
(lp87
I0
aI18
aI30
aI33
aI122
aI133
aI143
aI149
aI166
aI178
aI206
aI207
aI230
aI252
aI293
aI297
aI319
aI325
aI331
aI334
aI362
aI373
aI382
aI430
aI508
aI529
aI582
aI596
aI604
aI612
aI656
aI672
aI728
aI736
aI748
aI765
aI783
aI804
aI849
aI886
aI895
aI897
aI900
aI905
aI915
aI931
aI989
aI997
asI82
(lp88
I9
aI25
aI41
aI55
aI97
aI102
aI158
aI164
aI215
aI221
aI225
aI260
aI279
aI328
aI337
aI357
aI358
aI386
aI411
aI432
aI486
aI567
aI585
aI591
aI615
aI625
aI631
aI634
aI647
aI684
aI732
aI746
aI759
aI768
aI772
aI793
aI840
aI846
aI954
aI961
aI995
asI83
(lp89
I24
aI32
aI44
aI48
aI57
aI67
aI160
aI182
aI317
aI318
aI321
aI330
aI333
aI335
aI511
aI544
aI555
aI595
aI601
aI675
aI677
aI690
aI747
aI764
aI794
aI823
aI877
aI892
aI927
aI952
aI979
aI986
asI84
(lp90
I61
aI76
aI98
aI106
aI147
aI179
aI191
aI195
aI227
aI237
aI241
aI253
aI304
aI306
aI395
aI407
aI417
aI433
aI436
aI437
aI447
aI460
aI499
aI503
aI551
aI623
aI643
aI680
aI692
aI709
aI720
aI729
aI738
aI780
aI800
aI806
aI830
aI875
aI902
aI929
asI85
(lp91
I32
aI48
aI63
aI80
aI103
aI111
aI148
aI159
aI177
aI200
aI204
aI232
aI238
aI250
aI276
aI278
aI292
aI298
aI301
aI370
aI383
aI427
aI450
aI469
aI490
aI504
aI518
aI532
aI534
aI545
aI550
aI563
aI717
aI737
aI758
aI767
aI784
aI788
aI813
aI815
aI820
aI835
aI838
aI848
aI870
aI903
aI904
aI909
aI966
aI975
aI982
aI983
asI86
(lp92
I45
aI46
aI49
aI51
aI107
aI108
aI126
aI162
aI169
aI224
aI239
aI257
aI282
aI283
aI299
aI308
aI312
aI352
aI365
aI380
aI459
aI498
aI549
aI578
aI602
aI607
aI608
aI610
aI630
aI632
aI657
aI667
aI710
aI722
aI735
aI754
aI760
aI770
aI828
aI852
aI863
aI872
aI907
aI911
aI913
aI922
aI964
asI87
(lp93
I1
aI3
aI15
aI41
aI55
aI56
aI179
aI358
aI411
aI417
aI433
aI499
aI515
aI585
aI591
aI623
aI643
aI738
aI746
aI785
aI929
aI954
aI961
aI995
asI88
(lp94
I7
aI17
aI21
aI49
aI64
aI154
aI198
aI205
aI242
aI256
aI259
aI290
aI326
aI340
aI354
aI374
aI377
aI457
aI492
aI560
aI564
aI568
aI614
aI651
aI659
aI705
aI743
aI795
aI809
aI862
aI884
aI890
aI906
aI933
aI941
aI962
asI89
(lp95
I1
aI3
aI15
aI40
aI56
aI71
aI152
aI234
aI364
aI409
aI424
aI454
aI463
aI569
aI646
aI670
aI689
aI698
aI810
aI851
aI885
aI912
aI914
aI917
aI925
aI938
aI996
asI90
(lp96
I4
aI13
aI26
aI34
aI36
aI39
aI104
aI127
aI167
aI173
aI223
aI268
aI270
aI272
aI351
aI356
aI448
aI475
aI485
aI507
aI558
aI618
aI641
aI649
aI658
aI687
aI707
aI771
aI781
aI857
aI926
asI91
(lp97
I77
aI159
aI204
aI216
aI228
aI247
aI288
aI292
aI298
aI303
aI355
aI394
aI418
aI450
aI490
aI574
aI586
aI624
aI653
aI686
aI717
aI749
aI758
aI813
aI819
aI838
aI870
aI909
aI942
aI948
aI966
aI975
aI982
aI983
asI92
(lp98
I39
aI47
aI50
aI93
aI99
aI114
aI137
aI189
aI199
aI280
aI311
aI359
aI413
aI425
aI443
aI467
aI495
aI525
aI570
aI597
aI611
aI637
aI676
aI696
aI707
aI739
aI763
aI801
aI816
aI827
aI910
aI951
asI93
(lp99
I39
aI47
aI92
aI99
aI137
aI199
aI280
aI291
aI311
aI359
aI413
aI425
aI495
aI525
aI548
aI570
aI597
aI637
aI676
aI707
aI739
aI763
aI797
aI801
aI816
aI842
aI887
aI910
asI94
(lp100
I1
aI20
aI22
aI56
aI75
aI76
aI106
aI147
aI191
aI306
aI417
aI623
aI692
aI780
aI929
asI95
(lp101
I23
aI31
aI42
aI54
aI73
aI100
aI129
aI210
aI220
aI248
aI284
aI320
aI329
aI366
aI392
aI404
aI442
aI464
aI489
aI513
aI542
aI554
aI562
aI588
aI592
aI603
aI622
aI757
aI779
aI782
aI822
aI853
aI901
aI956
aI963
asI96
(lp102
I26
aI28
aI113
aI151
aI176
aI185
aI245
aI274
aI314
aI348
aI388
aI416
aI420
aI541
aI547
aI621
aI635
aI638
aI668
aI679
aI741
aI742
aI753
aI761
aI775
aI791
aI796
aI833
aI865
aI888
aI955
asI97
(lp103
I9
aI25
aI41
aI82
aI158
aI164
aI215
aI221
aI225
aI279
aI291
aI328
aI357
aI359
aI413
aI432
aI486
aI548
aI567
aI570
aI615
aI625
aI631
aI634
aI647
aI684
aI746
aI759
aI763
aI772
aI793
aI797
aI842
aI846
aI887
aI928
aI961
asI98
(lp104
I20
aI22
aI60
aI76
aI78
aI84
aI147
aI191
aI304
aI306
aI417
aI437
aI692
aI932
asI99
(lp105
I39
aI47
aI50
aI92
aI93
aI114
aI137
aI189
aI199
aI273
aI280
aI311
aI413
aI425
aI467
aI495
aI525
aI539
aI566
aI597
aI611
aI637
aI671
aI676
aI696
aI706
aI739
aI776
aI801
aI816
aI827
aI910
aI951
asI100
(lp106
I31
aI42
aI54
aI73
aI95
aI129
aI193
aI320
aI404
aI489
aI517
aI542
aI613
aI622
aI782
aI853
aI969
aI976
asI101
(lp107
I6
aI29
aI120
aI144
aI155
aI180
aI181
aI203
aI226
aI309
aI310
aI313
aI396
aI402
aI410
aI415
aI456
aI478
aI483
aI501
aI509
aI523
aI524
aI536
aI546
aI579
aI594
aI617
aI661
aI665
aI691
aI695
aI731
aI786
aI803
aI858
aI878
aI881
aI883
aI898
asI102
(lp108
I15
aI25
aI41
aI55
aI56
aI82
aI260
aI279
aI337
aI358
aI411
aI631
aI995
asI103
(lp109
I19
aI32
aI48
aI85
aI111
aI159
aI200
aI238
aI262
aI278
aI292
aI332
aI370
aI383
aI427
aI450
aI465
aI490
aI504
aI534
aI545
aI550
aI563
aI648
aI717
aI758
aI784
aI870
aI903
aI904
aI909
aI970
aI975
asI104
(lp110
I4
aI26
aI34
aI36
aI53
aI90
aI127
aI173
aI268
aI272
aI351
aI356
aI475
aI507
aI618
aI635
aI791
aI926
asI105
(lp111
I17
aI21
aI45
aI49
aI51
aI128
aI132
aI136
aI175
aI183
aI299
aI380
aI401
aI422
aI435
aI457
aI549
aI560
aI565
aI578
aI599
aI605
aI632
aI659
aI682
aI703
aI710
aI723
aI809
aI859
aI884
aI907
aI913
aI933
aI960
aI972
asI106
(lp112
I61
aI84
aI94
aI147
aI241
aI253
aI260
aI304
aI306
aI395
aI447
aI460
aI503
aI623
aI800
aI830
aI875
aI929
asI107
(lp113
I8
aI19
aI37
aI44
aI45
aI86
aI224
aI262
aI281
aI282
aI308
aI312
aI330
aI332
aI459
aI465
aI587
aI608
aI627
aI630
aI657
aI667
aI735
aI826
aI856
aI958
aI970
aI973
asI108
(lp114
I19
aI37
aI38
aI44
aI45
aI86
aI224
aI321
aI330
aI350
aI352
aI459
aI461
aI498
aI555
aI608
aI652
aI667
aI722
aI760
aI826
aI852
aI877
asI109
(lp115
I23
aI42
aI43
aI54
aI69
aI73
aI193
aI517
aI613
aI853
aI921
aI969
aI976
asI110
(lp116
I16
aI18
aI62
aI138
aI157
aI244
aI255
aI297
aI319
aI325
aI389
aI458
aI530
aI778
aI808
aI873
aI943
asI111
(lp117
I32
aI48
aI63
aI80
aI85
aI103
aI159
aI200
aI204
aI250
aI278
aI292
aI298
aI301
aI370
aI450
aI518
aI532
aI545
aI717
aI758
aI784
aI813
aI838
aI850
aI870
aI904
aI966
aI975
aI982
asI112
(lp118
I12
aI70
aI72
aI117
aI125
aI168
aI171
aI188
aI379
aI440
aI455
aI456
aI476
aI477
aI491
aI505
aI514
aI520
aI531
aI583
aI600
aI609
aI617
aI619
aI655
aI685
aI694
aI711
aI715
aI719
aI726
aI803
aI834
aI847
aI854
aI861
aI923
aI978
asI113
(lp119
I14
aI28
aI66
aI96
aI151
aI163
aI176
aI245
aI296
aI314
aI343
aI363
aI381
aI385
aI390
aI403
aI405
aI420
aI481
aI487
aI500
aI541
aI547
aI553
aI561
aI566
aI575
aI621
aI638
aI654
aI666
aI668
aI669
aI679
aI727
aI733
aI741
aI742
aI751
aI753
aI761
aI775
aI796
aI833
aI865
aI888
aI916
aI944
aI955
asI114
(lp120
I35
aI50
aI66
aI92
aI99
aI199
aI311
aI525
aI566
aI637
aI671
aI696
aI776
aI816
aI827
aI837
aI910
aI951
asI115
(lp121
I10
aI20
aI22
aI60
aI76
aI78
aI193
aI471
aI517
aI921
aI932
aI969
aI976
asI116
(lp122
I19
aI37
aI45
aI46
aI49
aI51
aI128
aI401
aI682
aI859
aI913
aI973
asI117
(lp123
I12
aI70
aI72
aI112
aI125
aI168
aI440
aI451
aI455
aI491
aI509
aI514
aI520
aI531
aI583
aI590
aI600
aI609
aI617
aI619
aI655
aI685
aI694
aI711
aI715
aI719
aI726
aI803
aI847
aI854
aI861
aI898
aI923
aI978
asI118
(lp124
I13
aI26
aI36
aI39
aI47
aI53
aI558
aI641
aI739
asI119
(lp125
I11
aI70
aI171
aI186
aI188
aI214
aI240
aI265
aI269
aI307
aI379
aI406
aI410
aI440
aI470
aI476
aI477
aI523
aI636
aI681
aI715
aI724
aI783
aI798
aI811
aI824
aI834
aI836
aI896
aI915
aI999
asI120
(lp126
I6
aI101
aI144
aI155
aI161
aI180
aI181
aI203
aI226
aI251
aI309
aI310
aI313
aI396
aI402
aI415
aI478
aI479
aI483
aI501
aI524
aI536
aI546
aI579
aI661
aI665
aI691
aI695
aI731
aI786
aI858
aI878
aI881
asI121
(lp127
I60
aI160
aI187
aI253
aI412
aI439
aI460
aI471
aI503
aI645
aI792
aI800
aI875
aI952
aI965
aI992
asI122
(lp128
I0
aI30
aI33
aI81
aI207
aI230
aI240
aI252
aI293
aI297
aI307
aI319
aI331
aI334
aI373
aI382
aI430
aI582
aI612
aI620
aI656
aI681
aI736
aI748
aI798
aI849
aI897
aI905
aI915
aI931
aI989
aI999
asI123
(lp129
I10
aI22
aI54
aI60
aI69
aI76
aI193
aI517
aI613
asI124
(lp130
I10
aI20
aI27
aI68
aI75
aI209
aI316
aI510
aI821
aI825
aI864
aI899
asI125
(lp131
I12
aI70
aI72
aI112
aI117
aI171
aI188
aI455
aI477
aI505
aI514
aI531
aI583
aI600
aI609
aI619
aI655
aI685
aI711
aI726
aI834
aI854
aI923
asI126
(lp132
I17
aI45
aI46
aI49
aI51
aI86
aI290
asI127
(lp133
I4
aI34
aI90
aI104
aI152
aI173
aI234
aI268
aI272
aI409
aI507
aI569
aI810
aI885
aI917
asI128
(lp134
I17
aI45
aI49
aI51
aI105
aI116
aI132
aI136
aI175
aI183
aI401
aI422
aI435
aI605
aI682
aI703
aI723
aI859
aI960
aI972
asI129
(lp135
I31
aI42
aI73
aI95
aI100
aI210
aI220
aI233
aI248
aI284
aI320
aI329
aI366
aI404
aI442
aI489
aI512
aI513
aI542
aI554
aI559
aI562
aI588
aI589
aI622
aI662
aI714
aI757
aI779
aI782
aI822
aI853
aI901
aI980
aI998
asI130
(lp136
I1
aI3
aI15
aI56
aI71
aI75
asI131
(lp137
I1
aI3
aI15
aI68
aI71
aI75
aI209
aI234
aI316
aI409
aI454
aI646
aI670
aI689
aI698
aI810
aI851
aI864
aI885
aI899
aI912
aI914
aI938
asI132
(lp138
I21
aI105
aI128
aI183
aI222
aI435
aI480
aI599
aI818
aI972
asI133
(lp139
I0
aI18
aI30
aI33
aI65
aI81
aI172
aI178
aI213
aI220
aI233
aI248
aI334
aI362
aI389
aI430
aI508
aI521
aI529
aI588
aI640
aI662
aI674
aI714
aI804
aI808
aI843
aI886
aI900
aI905
aI981
aI988
aI998
asI134
(lp140
I7
aI64
aI154
aI198
aI242
aI259
aI340
aI374
aI377
aI462
aI564
aI568
aI614
aI651
aI712
aI756
aI795
aI890
aI906
asI135
(lp141
I24
aI32
aI44
aI48
aI57
aI67
aI182
aI317
aI318
aI321
aI333
aI335
aI544
aI601
aI675
aI690
aI794
aI823
aI952
aI986
asI136
(lp142
I17
aI21
aI49
aI51
aI105
aI128
aI222
aI354
aI480
aI492
aI599
aI818
asI137
(lp143
I92
aI93
aI99
aI359
aI525
aI548
aI570
aI676
aI763
aI801
aI842
aI887
aI910
asI138
(lp144
I16
aI18
aI52
aI62
aI110
aI157
aI255
aI325
aI530
aI778
aI805
aI819
asI139
(lp145
I19
aI37
aI38
aI44
aI45
aI46
aI350
aI352
aI461
aI555
aI652
aI877
asI140
(lp146
I23
aI42
aI43
aI54
aI63
aI69
aI323
aI392
aI418
aI466
aI624
aI757
aI908
aI948
asI141
(lp147
I1
aI10
aI20
aI22
aI27
aI68
aI316
aI510
aI825
asI142
(lp148
I13
aI26
aI36
aI39
aI47
aI53
aI176
aI388
aI500
aI679
asI143
(lp149
I0
aI18
aI30
aI33
aI65
aI81
aI207
aI213
aI220
aI230
aI233
aI248
aI324
aI373
aI508
aI521
aI529
aI588
aI662
aI714
aI748
aI804
aI886
aI900
aI988
aI989
aI998
asI144
(lp150
I6
aI11
aI29
aI70
aI101
aI120
aI155
aI180
aI181
aI201
aI203
aI226
aI309
aI310
aI313
aI396
aI410
aI415
aI431
aI478
aI483
aI501
aI509
aI523
aI524
aI546
aI579
aI594
aI665
aI691
aI695
aI731
aI786
aI836
aI858
aI878
aI881
aI883
aI898
asI145
(lp151
I13
aI26
aI36
aI39
aI47
aI53
asI146
(lp152
I23
aI24
aI42
aI43
aI54
aI69
aI160
aI187
aI412
aI645
aI792
aI952
aI965
aI992
asI147
(lp153
I61
aI84
aI94
aI98
aI106
aI241
aI306
aI395
aI447
aI460
aI503
aI800
aI830
aI875
aI929
asI148
(lp154
I8
aI19
aI37
aI44
aI48
aI85
aI281
aI370
aI427
aI465
aI545
aI550
aI587
aI627
aI784
aI904
asI149
(lp155
I16
aI18
aI33
aI62
aI65
aI81
aI297
aI325
aI849
aI998
asI150
(lp156
I5
aI14
aI58
aI66
aI163
aI174
aI286
aI287
aI296
aI300
aI305
aI343
aI385
aI390
aI429
aI434
aI472
aI481
aI482
aI487
aI538
aI553
aI561
aI654
aI669
aI683
aI716
aI730
aI755
aI916
asI151
(lp157
I14
aI28
aI96
aI113
aI156
aI163
aI185
aI208
aI245
aI294
aI314
aI348
aI363
aI388
aI403
aI416
aI420
aI547
aI553
aI638
aI654
aI666
aI668
aI741
aI742
aI753
aI761
aI796
aI865
aI888
aI955
aI993
asI152
(lp158
I4
aI15
aI40
aI71
aI89
aI127
aI234
aI364
aI409
aI454
aI463
aI485
aI569
aI646
aI810
aI996
asI153
(lp159
I23
aI43
aI54
aI60
aI69
aI79
aI160
aI187
aI412
aI645
aI965
aI992
asI154
(lp160
I7
aI64
aI88
aI134
aI198
aI242
aI256
aI259
aI290
aI340
aI374
aI462
aI557
aI564
aI568
aI576
aI614
aI650
aI651
aI712
aI756
aI862
aI871
aI890
asI155
(lp161
I6
aI11
aI29
aI101
aI120
aI144
aI161
aI186
aI201
aI214
aI226
aI251
aI313
aI368
aI396
aI431
aI479
aI483
aI524
aI540
aI543
aI546
aI579
aI581
aI584
aI594
aI695
aI786
aI836
aI844
aI883
aI934
aI947
aI957
aI974
aI991
asI156
(lp162
I28
aI151
aI163
aI185
aI208
aI294
aI314
aI348
aI403
aI535
aI547
aI553
aI638
aI654
aI666
aI668
aI742
aI753
aI761
aI796
aI865
aI888
aI955
aI993
asI157
(lp163
I16
aI52
aI62
aI110
aI138
aI574
aI586
aI589
aI744
aI805
aI819
asI158
(lp164
I9
aI15
aI40
aI41
aI82
aI97
aI164
aI291
aI357
aI448
aI485
aI548
aI647
aI759
aI797
aI842
aI846
aI887
aI928
asI159
(lp165
I85
aI91
aI103
aI111
aI204
aI216
aI247
aI292
aI298
aI303
aI370
aI394
aI418
aI427
aI450
aI545
aI550
aI653
aI686
aI717
aI749
aI784
aI813
aI838
aI870
aI904
aI942
aI948
aI975
aI982
asI160
(lp166
I24
aI57
aI83
aI121
aI146
aI153
aI187
aI317
aI335
aI412
aI601
aI645
aI965
aI992
asI161
(lp167
I29
aI120
aI155
aI201
aI211
aI226
aI236
aI251
aI368
aI431
aI479
aI483
aI484
aI540
aI543
aI581
aI584
aI642
aI644
aI844
aI934
aI947
aI957
aI974
aI991
asI162
(lp168
I38
aI44
aI45
aI46
aI59
aI86
aI327
aI461
aI675
aI693
aI747
aI882
aI911
asI163
(lp169
I14
aI28
aI113
aI150
aI151
aI156
aI208
aI294
aI300
aI348
aI403
aI429
aI472
aI482
aI535
aI638
aI666
aI683
aI716
aI742
aI755
aI761
aI865
aI993
asI164
(lp170
I4
aI9
aI40
aI82
aI97
aI158
aI291
aI357
aI485
aI548
aI570
aI846
aI887
asI165
(lp171
I1
aI3
aI15
aI41
aI55
aI56
asI166
(lp172
I0
aI16
aI18
aI33
aI65
aI81
aI252
aI331
aI612
aI849
aI897
asI167
(lp173
I4
aI34
aI36
aI40
aI53
aI90
asI168
(lp174
I11
aI12
aI70
aI72
aI112
aI117
aI171
aI188
aI265
aI269
aI477
aI505
aI531
aI594
aI600
aI636
aI685
aI724
aI811
aI834
aI854
aI883
asI169
(lp175
I38
aI44
aI45
aI46
aI59
aI86
aI267
aI327
aI650
aI693
aI747
aI882
aI911
aI971
asI170
(lp176
I4
aI13
aI34
aI36
aI39
aI47
asI171
(lp177
I12
aI72
aI112
aI119
aI125
aI168
aI188
aI265
aI406
aI470
aI505
aI636
aI724
aI811
aI824
aI896
asI172
(lp178
I16
aI18
aI52
aI62
aI65
aI133
aI248
aI284
aI329
aI366
aI442
aI779
asI173
(lp179
I4
aI34
aI40
aI90
aI104
aI127
aI409
aI569
asI174
(lp180
I2
aI5
aI14
aI58
aI66
aI150
aI305
aI429
aI434
aI472
aI473
aI533
aI730
aI814
asI175
(lp181
I17
aI21
aI49
aI51
aI105
aI128
aI401
aI480
aI599
aI818
asI176
(lp182
I26
aI28
aI36
aI96
aI113
aI142
aI185
aI388
aI416
asI177
(lp183
I24
aI32
aI48
aI63
aI80
aI85
aI624
aI653
aI948
asI178
(lp184
I16
aI18
aI33
aI65
aI81
aI133
aI988
asI179
(lp185
I1
aI22
aI56
aI61
aI84
aI87
aI241
aI395
aI447
aI830
asI180
(lp186
I6
aI11
aI70
aI101
aI120
aI144
aI203
aI246
aI309
aI313
aI336
aI402
aI451
aI478
aI509
aI524
aI546
aI626
aI665
aI786
aI878
aI898
asI181
(lp187
I6
aI11
aI70
aI101
aI120
aI144
aI203
aI246
aI302
aI336
aI402
aI451
aI478
aI536
aI626
aI665
aI878
asI182
(lp188
I24
aI32
aI57
aI67
aI83
aI135
aI333
aI412
aI690
aI965
asI183
(lp189
I17
aI21
aI49
aI105
aI128
aI132
aI222
aI354
aI480
aI599
aI818
asI184
(lp190
I1
aI3
aI15
aI40
aI56
aI68
aI234
aI646
asI185
(lp191
I28
aI96
aI151
aI156
aI176
aI208
aI294
aI348
aI416
aI993
asI186
(lp192
I11
aI29
aI70
aI119
aI155
aI201
aI214
aI240
aI265
aI269
aI406
aI636
aI811
aI896
aI915
aI957
aI974
asI187
(lp193
I24
aI60
aI121
aI146
aI153
aI160
aI253
aI800
asI188
(lp194
I12
aI112
aI119
aI125
aI168
aI171
aI265
aI406
aI470
aI724
aI824
aI896
asI189
(lp195
I13
aI39
aI50
aI66
aI92
aI99
aI199
aI637
aI671
asI190
(lp196
I23
aI42
aI43
aI54
aI63
aI69
aI466
asI191
(lp197
I60
aI61
aI76
aI84
aI94
aI98
aI241
aI395
aI503
asI192
(lp198
I1
aI3
aI15
aI56
aI71
aI75
asI193
(lp199
I10
aI27
aI100
aI109
aI115
aI123
aI510
aI825
asI194
(lp200
I24
aI32
aI38
aI44
aI48
aI57
aI747
asI195
(lp201
I22
aI60
aI61
aI76
aI78
aI84
asI196
(lp202
I23
aI42
aI43
aI63
aI77
aI80
aI466
aI653
asI197
(lp203
I1
aI10
aI20
aI22
aI27
aI68
asI198
(lp204
I7
aI64
aI88
aI134
aI154
aI256
aI259
aI290
aI340
aI374
aI462
aI564
aI568
aI614
aI651
aI712
aI756
aI862
asI199
(lp205
I50
aI92
aI93
aI99
aI114
aI189
aI671
aI776
aI801
aI951
asI200
(lp206
I32
aI48
aI80
aI85
aI103
aI111
aI292
aI370
aI427
aI450
aI545
aI550
aI717
aI870
aI975
asI201
(lp207
I29
aI30
aI144
aI155
aI161
aI186
aI236
aI251
aI368
aI431
aI479
aI484
aI543
aI581
aI584
aI642
aI644
aI844
aI934
aI947
aI957
asI202
(lp208
I10
aI22
aI54
aI60
aI69
aI76
asI203
(lp209
I6
aI101
aI120
aI144
aI180
aI181
aI246
aI302
aI336
aI402
aI536
aI556
aI626
asI204
(lp210
I63
aI77
aI85
aI91
aI111
aI159
aI216
aI228
aI247
aI288
aI298
aI303
aI355
aI394
aI686
aI749
aI813
aI838
aI942
asI205
(lp211
I7
aI17
aI21
aI49
aI64
aI88
aI256
aI354
asI206
(lp212
I0
aI18
aI30
aI33
aI65
aI81
aI213
asI207
(lp213
I0
aI30
aI33
aI81
aI122
aI143
aI240
aI252
aI612
aI620
aI915
aI999
asI208
(lp214
I14
aI28
aI151
aI156
aI163
aI185
aI472
aI535
aI993
asI209
(lp215
I20
aI27
aI68
aI75
aI124
aI131
asI210
(lp216
I42
aI52
aI65
aI73
aI95
aI129
aI323
aI744
aI908
aI980
asI211
(lp217
I74
aI161
aI231
aI233
aI236
aI251
aI324
aI368
aI484
aI488
aI521
aI543
aI571
aI581
aI584
aI639
aI642
aI644
aI844
aI867
aI876
aI918
aI934
aI985
asI212
(lp218
I24
aI32
aI48
aI57
aI63
aI80
asI213
(lp219
I30
aI33
aI74
aI133
aI143
aI206
aI231
aI324
aI488
aI521
aI571
aI622
aI639
aI644
aI662
aI867
aI876
aI918
aI985
asI214
(lp220
I11
aI29
aI70
aI119
aI155
aI186
aI240
aI406
aI896
asI215
(lp221
I9
aI25
aI41
aI55
aI82
aI97
aI291
asI216
(lp222
I91
aI159
aI204
aI228
aI247
aI288
aI298
aI303
aI355
aI394
aI574
aI586
aI686
aI749
aI942
asI217
(lp223
I23
aI42
aI43
aI54
aI69
aI73
aI320
asI218
(lp224
I13
aI26
aI36
aI39
aI47
aI53
asI219
(lp225
I1
aI3
aI15
aI40
aI56
aI71
aI409
aI569
asI220
(lp226
I31
aI65
aI95
aI129
aI133
aI143
aI489
aI876
asI221
(lp227
I9
aI25
aI41
aI55
aI82
aI97
asI222
(lp228
I17
aI21
aI132
aI136
aI183
aI480
asI223
(lp229
I4
aI13
aI39
aI47
aI53
aI90
asI224
(lp230
I38
aI44
aI67
aI86
aI107
aI108
aI327
aI693
asI225
(lp231
I15
aI25
aI40
aI41
aI82
aI97
asI226
(lp232
I29
aI101
aI120
aI144
aI155
aI161
aI236
aI368
aI431
aI479
aI484
aI581
aI642
aI934
aI947
asI227
(lp233
I22
aI60
aI61
aI76
aI78
aI84
asI228
(lp234
I52
aI77
aI91
aI204
aI216
aI303
aI323
aI355
aI394
aI574
aI586
aI744
aI749
aI805
aI908
aI942
aI980
asI229
(lp235
I9
aI15
aI25
aI41
aI55
aI56
asI230
(lp236
I0
aI30
aI33
aI81
aI122
aI143
aI252
aI612
aI620
aI999
asI231
(lp237
I31
aI74
aI211
aI213
aI324
aI488
aI571
aI639
aI867
aI876
aI918
aI985
asI232
(lp238
I19
aI32
aI37
aI44
aI48
aI85
aI427
aI550
asI233
(lp239
I31
aI74
aI129
aI133
aI143
aI211
aI488
aI571
aI867
aI918
aI985
asI234
(lp240
I71
aI89
aI127
aI131
aI152
aI184
asI235
(lp241
I1
aI3
aI15
aI56
aI68
aI71
asI236
(lp242
I161
aI201
aI211
aI226
aI639
aI918
aI947
asI237
(lp243
I22
aI60
aI61
aI76
aI78
aI84
asI238
(lp244
I32
aI48
aI63
aI80
aI85
aI103
asI239
(lp245
I17
aI45
aI46
aI49
aI51
aI86
asI240
(lp246
I0
aI119
aI122
aI186
aI207
aI214
aI307
aI406
aI470
aI620
aI724
aI824
aI896
aI999
asI241
(lp247
I61
aI84
aI106
aI147
aI179
aI191
asI242
(lp248
I7
aI21
aI64
aI88
aI134
aI154
aI462
asI243
(lp249
I1
aI3
aI15
aI40
aI56
aI68
asI244
(lp250
I16
aI18
aI52
aI62
aI65
aI110
asI245
(lp251
I14
aI28
aI66
aI96
aI113
aI151
asI246
(lp252
I180
aI181
aI203
aI302
aI336
aI451
aI536
aI556
aI590
aI626
asI247
(lp253
I91
aI159
aI204
aI216
aI574
aI586
aI686
asI248
(lp254
I65
aI95
aI129
aI133
aI143
aI172
asI249
(lp255
I2
aI5
aI14
aI35
aI58
aI66
aI473
aI533
aI814
asI250
(lp256
I32
aI48
aI63
aI80
aI85
aI111
asI251
(lp257
I29
aI120
aI155
aI161
aI201
aI211
aI639
asI252
(lp258
I0
aI81
aI122
aI166
aI207
aI230
aI307
aI470
aI620
aI824
aI999
asI253
(lp259
I60
aI61
aI84
aI106
aI121
aI187
asI254
(lp260
I23
aI42
aI43
aI54
aI63
aI73
aI323
asI255
(lp261
I16
aI52
aI62
aI77
aI110
aI138
asI256
(lp262
I46
aI59
aI88
aI154
aI198
aI205
aI267
aI426
aI557
aI576
aI650
aI693
aI708
aI712
aI777
aI862
aI871
aI882
asI257
(lp263
I19
aI37
aI38
aI44
aI45
aI86
asI258
(lp264
I1
aI3
aI15
aI25
aI41
aI55
asI259
(lp265
I7
aI64
aI88
aI134
aI154
aI198
aI756
asI260
(lp266
I25
aI41
aI55
aI82
aI102
aI106
asI261
(lp267
I7
aI17
aI21
aI46
aI49
aI51
aI650
aI871
asI262
(lp268
I8
aI19
aI37
aI44
aI103
aI107
aI281
aI587
aI627
asI263
(lp269
I24
aI32
aI48
aI57
aI63
aI80
asI264
(lp270
I4
aI13
aI34
aI36
aI39
aI47
asI265
(lp271
I11
aI119
aI168
aI171
aI186
aI188
aI307
aI470
aI724
aI824
asI266
(lp272
I23
aI42
aI43
aI54
aI60
aI69
asI267
(lp273
I38
aI59
aI169
aI256
aI426
aI557
aI576
aI708
aI777
aI845
aI871
aI971
asI268
(lp274
I26
aI34
aI53
aI90
aI104
aI127
asI269
(lp275
I11
aI29
aI70
aI119
aI168
aI186
asI270
(lp276
I13
aI26
aI34
aI36
aI53
aI90
aI416
asI271
(lp277
I17
aI21
aI45
aI46
aI49
aI51
asI272
(lp278
I4
aI34
aI40
aI90
aI104
aI127
asI273
(lp279
I13
aI14
aI39
aI50
aI66
aI99
asI274
(lp280
I13
aI26
aI28
aI36
aI53
aI96
asI275
(lp281
I1
aI3
aI15
aI56
aI71
aI75
asI276
(lp282
I32
aI48
aI57
aI63
aI80
aI85
asI277
(lp283
I24
aI32
aI48
aI57
aI63
aI80
asI278
(lp284
I32
aI48
aI80
aI85
aI103
aI111
asI279
(lp285
I4
aI15
aI40
aI82
aI97
aI102
asI280
(lp286
I13
aI39
aI47
aI92
aI93
aI99
asI281
(lp287
I8
aI19
aI37
aI107
aI148
aI262
asI282
(lp288
I8
aI19
aI37
aI45
aI86
aI107
asI283
(lp289
I37
aI45
aI46
aI49
aI51
aI86
asI284
(lp290
I52
aI73
aI77
aI95
aI129
aI172
asI285
(lp291
I10
aI20
aI22
aI27
aI68
aI75
asI286
(lp292
I2
aI5
aI35
aI58
aI66
aI150
asI287
(lp293
I2
aI5
aI35
aI58
aI66
aI150
asI288
(lp294
I52
aI63
aI77
aI91
aI204
aI216
asI289
(lp295
I23
aI42
aI43
aI54
aI69
aI73
asI290
(lp296
I46
aI59
aI88
aI126
aI154
aI198
aI426
aI557
aI576
aI708
aI777
asI291
(lp297
I9
aI93
aI97
aI158
aI164
aI215
asI292
(lp298
I85
aI91
aI103
aI111
aI159
aI200
aI686
asI293
(lp299
I0
aI30
aI33
aI65
aI81
aI122
aI488
asI294
(lp300
I14
aI28
aI151
aI156
aI163
aI185
aI535
asI295
(lp301
I2
aI5
aI35
aI50
aI58
aI66
aI776
asI296
(lp302
I14
aI28
aI58
aI66
aI113
aI150
aI535
asI297
(lp303
I16
aI18
aI81
aI110
aI122
aI149
asI298
(lp304
I85
aI91
aI111
aI159
aI204
aI216
asI299
(lp305
I17
aI45
aI49
aI51
aI86
aI105
asI300
(lp306
I5
aI14
aI58
aI66
aI150
aI163
aI535
asI301
(lp307
I32
aI48
aI63
aI80
aI85
aI111
asI302
(lp308
I6
aI181
aI203
aI246
aI336
aI451
aI556
aI590
aI626
asI303
(lp309
I77
aI91
aI159
aI204
aI216
aI228
asI304
(lp310
I60
aI61
aI76
aI84
aI98
aI106
asI305
(lp311
I2
aI5
aI35
aI58
aI150
aI174
asI306
(lp312
I61
aI84
aI94
aI98
aI106
aI147
asI307
(lp313
I119
aI122
aI240
aI252
aI265
asI308
(lp314
I8
aI19
aI37
aI45
aI86
aI107
asI309
(lp315
I6
aI70
aI101
aI120
aI144
aI180
aI451
aI556
aI590
aI626
asI310
(lp316
I6
aI11
aI29
aI101
aI120
aI144
asI311
(lp317
I39
aI50
aI92
aI93
aI99
aI114
aI951
asI312
(lp318
I8
aI19
aI37
aI45
aI86
aI107
asI313
(lp319
I6
aI101
aI120
aI144
aI155
aI180
asI314
(lp320
I14
aI28
aI96
aI113
aI151
aI156
asI315
(lp321
I7
aI17
aI21
aI46
aI49
aI51
asI316
(lp322
I3
aI68
aI75
aI124
aI131
aI141
asI317
(lp323
I24
aI57
aI67
aI83
aI135
aI160
asI318
(lp324
I24
aI32
aI57
aI67
aI83
aI135
asI319
(lp325
I0
aI16
aI18
aI81
aI110
aI122
asI320
(lp326
I31
aI95
aI100
aI129
aI217
asI321
(lp327
I38
aI44
aI67
aI83
aI108
aI135
aI845
aI971
asI322
(lp328
I19
aI37
aI45
aI46
aI49
aI51
asI323
(lp329
I52
aI77
aI140
aI210
aI228
aI254
asI324
(lp330
I30
aI74
aI143
aI211
aI213
aI231
asI325
(lp331
I16
aI18
aI81
aI110
aI138
aI149
asI326
(lp332
I7
aI17
aI21
aI49
aI51
aI88
asI327
(lp333
I38
aI59
aI67
aI162
aI169
aI224
aI708
aI777
aI845
aI971
asI328
(lp334
I9
aI25
aI41
aI55
aI82
aI97
asI329
(lp335
I31
aI65
aI73
aI95
aI129
aI172
asI330
(lp336
I38
aI44
aI67
aI83
aI107
aI108
asI331
(lp337
I0
aI18
aI33
aI81
aI122
aI166
asI332
(lp338
I19
aI32
aI37
aI44
aI103
aI107
asI333
(lp339
I38
aI57
aI67
aI83
aI135
aI182
asI334
(lp340
I0
aI30
aI33
aI81
aI122
aI133
asI335
(lp341
I24
aI57
aI67
aI83
aI135
aI160
asI336
(lp342
I6
aI180
aI181
aI203
aI246
aI302
aI556
aI590
asI337
(lp343
I25
aI41
aI55
aI61
aI82
aI102
asI338
(lp344
I10
aI20
aI22
aI27
aI75
aI76
asI339
(lp345
I24
aI32
aI43
aI48
aI57
aI63
asI340
(lp346
I7
aI64
aI88
aI134
aI154
aI198
asI341
(lp347
I0
aI16
aI18
aI33
aI62
aI65
asI342
(lp348
I23
aI24
aI43
aI54
aI60
aI69
asI343
(lp349
I5
aI14
aI58
aI66
aI113
aI150
asI344
(lp350
I24
aI32
aI48
aI57
aI67
aI80
asI345
(lp351
I23
aI42
aI43
aI63
aI77
aI80
asI346
(lp352
I4
aI13
aI26
aI36
aI39
aI47
asI347
(lp353
I1
aI10
aI20
aI22
aI27
aI68
asI348
(lp354
I28
aI96
aI151
aI156
aI163
aI185
asI349
(lp355
I0
aI16
aI18
aI30
aI33
aI65
asI350
(lp356
I38
aI44
aI59
aI67
aI108
aI139
asI351
(lp357
I4
aI34
aI40
aI53
aI90
aI104
asI352
(lp358
I38
aI44
aI67
aI86
aI108
aI139
asI353
(lp359
I1
aI3
aI20
aI22
aI56
aI68
asI354
(lp360
I17
aI21
aI88
aI136
aI183
aI205
asI355
(lp361
I52
aI77
aI91
aI204
aI216
aI228
asI356
(lp362
I4
aI40
aI47
aI53
aI90
aI104
asI357
(lp363
I9
aI41
aI82
aI97
aI158
aI164
asI358
(lp364
I25
aI41
aI55
aI82
aI87
aI102
asI359
(lp365
I9
aI47
aI92
aI93
aI97
aI137
asI360
(lp366
I32
aI38
aI44
aI48
aI57
aI67
asI361
(lp367
I24
aI32
aI44
aI48
aI57
aI63
asI362
(lp368
I30
aI33
aI65
aI74
aI81
aI133
asI363
(lp369
I14
aI28
aI58
aI66
aI113
aI151
asI364
(lp370
I4
aI15
aI40
aI71
aI89
aI152
asI365
(lp371
I37
aI38
aI44
aI45
aI46
aI86
asI366
(lp372
I52
aI65
aI73
aI95
aI129
aI172
asI367
(lp373
I1
aI20
aI22
aI56
aI75
aI76
asI368
(lp374
I29
aI155
aI161
aI201
aI211
aI226
asI369
(lp375
I23
aI42
aI43
aI54
aI63
aI73
asI370
(lp376
I85
aI103
aI111
aI148
aI159
aI200
asI371
(lp377
I1
aI3
aI15
aI56
aI71
aI75
asI372
(lp378
I24
aI32
aI44
aI48
aI57
aI67
asI373
(lp379
I0
aI30
aI33
aI81
aI122
aI143
asI374
(lp380
I7
aI64
aI88
aI134
aI154
aI198
asI375
(lp381
I7
aI17
aI21
aI49
aI51
aI64
asI376
(lp382
I19
aI32
aI37
aI44
aI48
aI67
asI377
(lp383
I7
aI46
aI59
aI64
aI88
aI134
asI378
(lp384
I23
aI42
aI43
aI54
aI63
aI69
asI379
(lp385
I11
aI12
aI70
aI72
aI112
aI119
asI380
(lp386
I8
aI19
aI37
aI45
aI86
aI105
asI381
(lp387
I13
aI26
aI36
aI39
aI53
aI113
asI382
(lp388
I0
aI29
aI30
aI33
aI81
aI122
asI383
(lp389
I32
aI48
aI63
aI80
aI85
aI103
asI384
(lp390
I23
aI42
aI43
aI54
aI63
aI73
asI385
(lp391
I5
aI14
aI58
aI66
aI113
aI150
asI386
(lp392
I9
aI15
aI25
aI40
aI41
aI82
asI387
(lp393
I4
aI13
aI26
aI34
aI36
aI53
asI388
(lp394
I26
aI36
aI96
aI142
aI151
aI176
asI389
(lp395
I16
aI18
aI62
aI65
aI110
aI133
asI390
(lp396
I14
aI28
aI58
aI66
aI113
aI150
asI391
(lp397
I32
aI44
aI48
aI57
aI67
aI80
asI392
(lp398
I52
aI63
aI73
aI77
aI95
aI140
asI393
(lp399
I13
aI26
aI36
aI39
aI47
aI53
asI394
(lp400
I77
aI91
aI159
aI204
aI216
aI228
asI395
(lp401
I61
aI84
aI106
aI147
aI179
aI191
asI396
(lp402
I6
aI29
aI101
aI120
aI144
aI155
asI397
(lp403
I10
aI22
aI23
aI54
aI60
aI69
asI398
(lp404
I4
aI13
aI26
aI34
aI36
aI39
asI399
(lp405
I4
aI13
aI26
aI34
aI36
aI39
asI400
(lp406
I10
aI20
aI22
aI60
aI76
aI78
asI401
(lp407
I45
aI51
aI105
aI116
aI128
aI175
asI402
(lp408
I6
aI101
aI120
aI180
aI181
aI203
aI556
asI403
(lp409
I14
aI28
aI113
aI151
aI156
aI163
asI404
(lp410
I31
aI42
aI73
aI95
aI100
aI129
asI405
(lp411
I13
aI26
aI36
aI39
aI53
aI113
asI406
(lp412
I119
aI171
aI186
aI188
aI214
aI240
asI407
(lp413
I1
aI22
aI56
aI76
aI78
aI84
asI408
(lp414
I23
aI42
aI43
aI54
aI69
aI73
asI409
(lp415
I89
aI127
aI131
aI152
aI173
aI219
asI410
(lp416
I11
aI29
aI70
aI101
aI119
aI144
asI411
(lp417
I25
aI41
aI55
aI82
aI87
aI102
asI412
(lp418
I60
aI121
aI146
aI153
aI160
aI182
asI413
(lp419
I9
aI47
aI92
aI93
aI97
aI99
asI414
(lp420
I4
aI13
aI26
aI34
aI36
aI39
asI415
(lp421
I6
aI11
aI29
aI101
aI120
aI144
asI416
(lp422
I26
aI96
aI151
aI176
aI185
aI270
asI417
(lp423
I1
aI56
aI84
aI87
aI94
aI98
asI418
(lp424
I52
aI63
aI77
aI91
aI140
aI159
asI419
(lp425
I4
aI13
aI26
aI36
aI39
aI47
asI420
(lp426
I14
aI28
aI66
aI96
aI113
aI151
asI421
(lp427
I1
aI3
aI15
aI20
aI56
aI68
asI422
(lp428
I17
aI21
aI49
aI51
aI105
aI128
asI423
(lp429
I22
aI54
aI60
aI69
aI76
aI78
asI424
(lp430
I3
aI15
aI68
aI71
aI75
aI89
asI425
(lp431
I39
aI47
aI50
aI92
aI93
aI99
asI426
(lp432
I38
aI46
aI59
aI256
aI267
aI290
aI777
asI427
(lp433
I85
aI103
aI148
aI159
aI200
aI232
asI428
(lp434
I2
aI5
aI14
aI35
aI58
aI66
asI429
(lp435
I5
aI14
aI58
aI150
aI163
aI174
asI430
(lp436
I0
aI30
aI33
aI81
aI122
aI133
asI431
(lp437
I29
aI144
aI155
aI161
aI201
aI226
asI432
(lp438
I9
aI25
aI41
aI55
aI82
aI97
asI433
(lp439
I1
aI55
aI56
aI61
aI84
aI87
asI434
(lp440
I2
aI5
aI58
aI66
aI150
aI174
asI435
(lp441
I17
aI21
aI51
aI105
aI128
aI132
asI436
(lp442
I22
aI60
aI61
aI76
aI78
aI84
asI437
(lp443
I22
aI60
aI76
aI78
aI84
aI98
asI438
(lp444
I1
aI3
aI15
aI20
aI56
aI68
asI439
(lp445
I24
aI43
aI60
aI69
aI79
aI121
asI440
(lp446
I12
aI70
aI72
aI112
aI117
aI119
asI441
(lp447
I32
aI44
aI48
aI57
aI63
aI80
asI442
(lp448
I52
aI65
aI73
aI95
aI129
aI172
asI443
(lp449
I13
aI36
aI39
aI47
aI53
aI92
asI444
(lp450
I10
aI20
aI22
aI27
aI60
aI76
asI445
(lp451
I23
aI42
aI43
aI54
aI63
aI69
asI446
(lp452
I23
aI42
aI43
aI54
aI69
aI73
asI447
(lp453
I55
aI61
aI84
aI106
aI147
aI179
asI448
(lp454
I4
aI40
aI47
aI53
aI90
aI158
asI449
(lp455
I4
aI13
aI26
aI34
aI36
aI39
asI450
(lp456
I85
aI91
aI103
aI111
aI159
aI200
asI451
(lp457
I117
aI180
aI181
aI246
aI302
aI309
aI590
asI452
(lp458
I1
aI3
aI15
aI56
aI68
aI71
asI453
(lp459
I24
aI32
aI44
aI48
aI57
aI63
asI454
(lp460
I3
aI68
aI71
aI89
aI131
aI152
asI455
(lp461
I12
aI70
aI72
aI112
aI117
aI125
aI923
asI456
(lp462
I11
aI12
aI70
aI72
aI101
aI112
asI457
(lp463
I17
aI21
aI49
aI51
aI88
aI105
asI458
(lp464
I16
aI18
aI52
aI62
aI65
aI110
asI459
(lp465
I38
aI44
aI67
aI86
aI107
aI108
asI460
(lp466
I60
aI61
aI84
aI106
aI121
aI147
asI461
(lp467
I38
aI44
aI67
aI108
aI139
aI162
asI462
(lp468
I7
aI64
aI134
aI154
aI198
aI242
asI463
(lp469
I4
aI15
aI40
aI71
aI89
aI152
asI464
(lp470
I23
aI42
aI52
aI73
aI77
aI95
asI465
(lp471
I8
aI19
aI37
aI103
aI107
aI148
asI466
(lp472
I52
aI63
aI77
aI140
aI190
aI196
asI467
(lp473
I13
aI39
aI50
aI66
aI92
aI99
asI468
(lp474
I23
aI42
aI43
aI52
aI63
aI73
asI469
(lp475
I19
aI32
aI37
aI44
aI48
aI85
asI470
(lp476
I119
aI171
aI188
aI240
aI252
aI265
asI471
(lp477
I60
aI69
aI76
aI79
aI115
aI121
asI472
(lp478
I14
aI58
aI150
aI163
aI174
aI208
asI473
(lp479
I2
aI5
aI35
aI58
aI174
aI249
asI474
(lp480
I15
aI25
aI40
aI41
aI55
aI56
asI475
(lp481
I26
aI34
aI36
aI53
aI90
aI104
asI476
(lp482
I11
aI12
aI70
aI72
aI112
aI119
asI477
(lp483
I11
aI70
aI112
aI119
aI125
aI168
asI478
(lp484
I6
aI101
aI120
aI144
aI180
aI181
asI479
(lp485
I29
aI120
aI155
aI161
aI201
aI226
asI480
(lp486
I21
aI132
aI136
aI175
aI183
aI222
asI481
(lp487
I5
aI14
aI58
aI66
aI113
aI150
asI482
(lp488
I5
aI14
aI58
aI66
aI150
aI163
asI483
(lp489
I6
aI101
aI120
aI144
aI155
aI161
asI484
(lp490
I29
aI74
aI161
aI201
aI211
aI226
asI485
(lp491
I4
aI40
aI90
aI152
aI158
aI164
asI486
(lp492
I9
aI25
aI41
aI55
aI82
aI97
asI487
(lp493
I5
aI14
aI58
aI66
aI113
aI150
asI488
(lp494
I74
aI211
aI213
aI231
aI233
aI293
asI489
(lp495
I31
aI74
aI95
aI100
aI129
aI220
asI490
(lp496
I48
aI63
aI80
aI85
aI91
aI103
asI491
(lp497
I11
aI12
aI70
aI72
aI112
aI117
asI492
(lp498
I7
aI17
aI21
aI64
aI88
aI136
asI493
(lp499
I1
aI3
aI15
aI56
aI71
aI75
asI494
(lp500
I38
aI45
aI46
aI49
aI51
aI59
asI495
(lp501
I13
aI39
aI47
aI92
aI93
aI99
asI496
(lp502
I3
aI15
aI40
aI41
aI56
aI71
asI497
(lp503
I1
aI20
aI22
aI56
aI75
aI76
asI498
(lp504
I38
aI46
aI59
aI67
aI86
aI108
asI499
(lp505
I1
aI55
aI56
aI61
aI84
aI87
asI500
(lp506
I13
aI14
aI28
aI66
aI113
aI142
asI501
(lp507
I6
aI11
aI29
aI101
aI120
aI144
asI502
(lp508
I7
aI17
aI21
aI46
aI49
aI51
asI503
(lp509
I61
aI84
aI106
aI121
aI147
aI191
asI504
(lp510
I32
aI48
aI63
aI80
aI85
aI103
asI505
(lp511
I12
aI72
aI112
aI125
aI168
aI171
asI506
(lp512
I10
aI23
aI42
aI43
aI54
aI60
asI507
(lp513
I4
aI34
aI40
aI90
aI104
aI127
asI508
(lp514
I30
aI33
aI65
aI81
aI133
aI143
asI509
(lp515
I70
aI72
aI101
aI117
aI144
aI180
asI510
(lp516
I10
aI20
aI27
aI124
aI141
aI193
asI511
(lp517
I32
aI38
aI44
aI57
aI67
aI83
asI512
(lp518
I16
aI18
aI52
aI62
aI65
aI129
asI513
(lp519
I52
aI62
aI65
aI73
aI95
aI129
asI514
(lp520
I12
aI70
aI72
aI112
aI117
aI125
asI515
(lp521
I1
aI3
aI22
aI56
aI75
aI87
asI516
(lp522
I2
aI5
aI35
aI50
aI58
aI66
asI517
(lp523
I10
aI27
aI100
aI109
aI115
aI123
asI518
(lp524
I32
aI48
aI63
aI80
aI85
aI111
asI519
(lp525
I24
aI32
aI44
aI48
aI57
aI67
asI520
(lp526
I11
aI12
aI70
aI72
aI112
aI117
asI521
(lp527
I31
aI74
aI133
aI143
aI211
aI213
asI522
(lp528
I23
aI42
aI43
aI63
aI73
aI77
asI523
(lp529
I11
aI29
aI70
aI101
aI119
aI144
asI524
(lp530
I6
aI101
aI120
aI144
aI155
aI180
asI525
(lp531
I50
aI92
aI93
aI99
aI114
aI137
asI526
(lp532
I2
aI5
aI35
aI50
aI58
aI66
asI527
(lp533
I10
aI22
aI54
aI60
aI69
aI76
asI528
(lp534
I1
aI3
aI15
aI25
aI41
aI55
asI529
(lp535
I30
aI33
aI74
aI81
aI133
aI143
asI530
(lp536
I16
aI52
aI62
aI77
aI110
aI138
asI531
(lp537
I70
aI72
aI112
aI117
aI125
aI168
asI532
(lp538
I32
aI48
aI63
aI80
aI85
aI111
asI533
(lp539
I2
aI5
aI35
aI58
aI174
aI249
asI534
(lp540
I32
aI48
aI63
aI80
aI85
aI103
asI535
(lp541
I156
aI163
aI208
aI294
aI296
aI300
asI536
(lp542
I6
aI101
aI120
aI181
aI203
aI246
asI537
(lp543
I13
aI26
aI36
aI39
aI47
aI53
asI538
(lp544
I2
aI5
aI35
aI58
aI66
aI150
asI539
(lp545
I5
aI35
aI50
aI58
aI66
aI99
asI540
(lp546
I0
aI29
aI30
aI33
aI155
aI161
asI541
(lp547
I13
aI26
aI28
aI36
aI96
aI113
asI542
(lp548
I31
aI42
aI73
aI95
aI100
aI129
asI543
(lp549
I29
aI30
aI155
aI161
aI201
aI211
asI544
(lp550
I24
aI32
aI57
aI67
aI83
aI135
asI545
(lp551
I85
aI103
aI111
aI148
aI159
aI200
asI546
(lp552
I6
aI101
aI120
aI144
aI155
aI180
asI547
(lp553
I14
aI28
aI96
aI113
aI151
aI156
asI548
(lp554
I9
aI93
aI97
aI137
aI158
aI164
asI549
(lp555
I17
aI45
aI49
aI51
aI86
aI105
asI550
(lp556
I85
aI103
aI148
aI159
aI200
aI232
asI551
(lp557
I22
aI60
aI61
aI76
aI78
aI84
asI552
(lp558
I23
aI42
aI43
aI54
aI69
aI73
asI553
(lp559
I14
aI28
aI113
aI150
aI151
aI156
asI554
(lp560
I18
aI52
aI62
aI65
aI95
aI129
asI555
(lp561
I38
aI44
aI67
aI83
aI108
aI139
asI556
(lp562
I203
aI246
aI302
aI309
aI336
aI402
asI557
(lp563
I46
aI59
aI154
aI256
aI267
aI290
asI558
(lp564
I4
aI39
aI47
aI53
aI90
aI118
asI559
(lp565
I16
aI18
aI52
aI62
aI65
aI129
asI560
(lp566
I17
aI21
aI49
aI51
aI88
aI105
asI561
(lp567
I14
aI28
aI58
aI66
aI113
aI150
asI562
(lp568
I42
aI52
aI54
aI73
aI95
aI129
asI563
(lp569
I32
aI44
aI48
aI80
aI85
aI103
asI564
(lp570
I7
aI64
aI88
aI134
aI154
aI198
asI565
(lp571
I17
aI21
aI45
aI49
aI51
aI105
asI566
(lp572
I14
aI50
aI66
aI99
aI113
aI114
asI567
(lp573
I9
aI25
aI41
aI55
aI82
aI97
asI568
(lp574
I7
aI64
aI88
aI134
aI154
aI198
asI569
(lp575
I40
aI89
aI127
aI152
aI173
aI219
asI570
(lp576
I9
aI92
aI93
aI97
aI137
aI164
asI571
(lp577
I31
aI74
aI211
aI213
aI231
aI233
asI572
(lp578
I23
aI43
aI54
aI60
aI69
aI76
asI573
(lp579
I10
aI20
aI22
aI60
aI76
aI78
asI574
(lp580
I77
aI91
aI157
aI216
aI228
aI247
asI575
(lp581
I5
aI14
aI28
aI58
aI66
aI113
asI576
(lp582
I46
aI59
aI154
aI256
aI267
aI290
asI577
(lp583
I1
aI3
aI15
aI20
aI56
aI68
asI578
(lp584
I17
aI45
aI49
aI51
aI86
aI105
asI579
(lp585
I6
aI29
aI101
aI120
aI144
aI155
asI580
(lp586
I23
aI42
aI43
aI54
aI63
aI69
asI581
(lp587
I29
aI155
aI161
aI201
aI211
aI226
asI582
(lp588
I0
aI18
aI30
aI33
aI81
aI122
asI583
(lp589
I12
aI70
aI72
aI112
aI117
aI125
asI584
(lp590
I29
aI30
aI155
aI161
aI201
aI211
asI585
(lp591
I9
aI25
aI41
aI55
aI82
aI87
asI586
(lp592
I77
aI91
aI157
aI216
aI228
aI247
asI587
(lp593
I8
aI19
aI37
aI107
aI148
aI262
asI588
(lp594
I31
aI65
aI95
aI129
aI133
aI143
asI589
(lp595
I52
aI62
aI65
aI77
aI129
aI157
asI590
(lp596
I117
aI246
aI302
aI309
aI336
aI451
asI591
(lp597
I25
aI41
aI55
aI56
aI82
aI87
asI592
(lp598
I23
aI42
aI43
aI54
aI73
aI95
asI593
(lp599
I23
aI42
aI43
aI54
aI69
aI73
asI594
(lp600
I11
aI70
aI101
aI144
aI155
aI168
asI595
(lp601
I32
aI44
aI48
aI57
aI67
aI83
asI596
(lp602
I16
aI18
aI33
aI62
aI65
aI81
asI597
(lp603
I4
aI39
aI47
aI92
aI93
aI99
asI598
(lp604
I23
aI42
aI43
aI54
aI69
aI73
asI599
(lp605
I21
aI105
aI132
aI136
aI175
aI183
asI600
(lp606
I12
aI72
aI112
aI117
aI125
aI168
asI601
(lp607
I24
aI57
aI67
aI83
aI135
aI160
asI602
(lp608
I38
aI44
aI46
aI59
aI67
aI86
asI603
(lp609
I23
aI31
aI42
aI54
aI73
aI95
asI604
(lp610
I16
aI18
aI33
aI62
aI65
aI81
asI605
(lp611
I17
aI21
aI49
aI51
aI105
aI128
asI606
(lp612
I13
aI26
aI36
aI39
aI47
aI53
asI607
(lp613
I19
aI37
aI38
aI45
aI46
aI86
asI608
(lp614
I38
aI44
aI67
aI86
aI107
aI108
asI609
(lp615
I12
aI70
aI72
aI112
aI117
aI125
asI610
(lp616
I8
aI19
aI37
aI44
aI45
aI86
asI611
(lp617
I13
aI39
aI47
aI50
aI92
aI99
asI612
(lp618
I0
aI81
aI122
aI166
aI207
aI230
asI613
(lp619
I10
aI27
aI100
aI109
aI123
asI614
(lp620
I7
aI64
aI88
aI134
aI154
aI198
asI615
(lp621
I4
aI9
aI40
aI41
aI82
aI97
asI616
(lp622
I1
aI3
aI20
aI22
aI56
aI75
asI617
(lp623
I11
aI70
aI72
aI101
aI112
aI117
asI618
(lp624
I4
aI34
aI36
aI53
aI90
aI104
asI619
(lp625
I12
aI70
aI72
aI112
aI117
aI125
asI620
(lp626
I0
aI122
aI207
aI230
aI240
aI252
asI621
(lp627
I13
aI26
aI28
aI36
aI96
aI113
asI622
(lp628
I31
aI74
aI95
aI100
aI129
aI213
asI623
(lp629
I55
aI61
aI84
aI87
aI94
aI106
asI624
(lp630
I52
aI63
aI77
aI91
aI140
aI177
asI625
(lp631
I9
aI25
aI41
aI55
aI82
aI97
asI626
(lp632
I180
aI181
aI203
aI246
aI302
aI309
asI627
(lp633
I8
aI19
aI37
aI107
aI148
aI262
asI628
(lp634
I23
aI42
aI43
aI54
aI63
aI69
asI629
(lp635
I4
aI13
aI26
aI36
aI39
aI47
asI630
(lp636
I38
aI44
aI45
aI46
aI86
aI107
asI631
(lp637
I4
aI15
aI40
aI82
aI97
aI102
asI632
(lp638
I17
aI45
aI49
aI51
aI86
aI105
asI633
(lp639
I4
aI13
aI26
aI34
aI36
aI39
asI634
(lp640
I9
aI25
aI40
aI41
aI82
aI97
asI635
(lp641
I26
aI34
aI36
aI53
aI96
aI104
asI636
(lp642
I11
aI70
aI119
aI168
aI171
aI186
asI637
(lp643
I50
aI92
aI93
aI99
aI114
aI189
asI638
(lp644
I28
aI96
aI113
aI151
aI156
aI163
asI639
(lp645
I74
aI211
aI213
aI231
aI236
aI251
asI640
(lp646
I16
aI18
aI52
aI62
aI65
aI133
asI641
(lp647
I4
aI39
aI47
aI53
aI90
aI118
asI642
(lp648
I29
aI74
aI161
aI201
aI211
aI226
asI643
(lp649
I1
aI55
aI56
aI61
aI84
aI87
asI644
(lp650
I30
aI74
aI161
aI201
aI211
aI213
asI645
(lp651
I60
aI76
aI121
aI146
aI153
aI160
asI646
(lp652
I3
aI71
aI89
aI131
aI152
aI184
asI647
(lp653
I9
aI25
aI41
aI82
aI97
aI158
asI648
(lp654
I8
aI19
aI37
aI44
aI45
aI103
asI649
(lp655
I13
aI26
aI34
aI36
aI53
aI90
asI650
(lp656
I46
aI59
aI154
aI169
aI256
aI261
asI651
(lp657
I7
aI64
aI88
aI134
aI154
aI198
asI652
(lp658
I38
aI44
aI59
aI67
aI108
aI139
asI653
(lp659
I63
aI77
aI91
aI159
aI177
aI196
asI654
(lp660
I14
aI28
aI113
aI150
aI151
aI156
asI655
(lp661
I12
aI70
aI72
aI112
aI117
aI125
asI656
(lp662
I0
aI16
aI18
aI33
aI81
aI122
asI657
(lp663
I8
aI19
aI37
aI45
aI86
aI107
asI658
(lp664
I13
aI26
aI36
aI39
aI53
aI90
asI659
(lp665
I17
aI21
aI49
aI51
aI88
aI105
asI660
(lp666
I23
aI42
aI43
aI54
aI60
aI69
asI661
(lp667
I6
aI11
aI29
aI70
aI101
aI120
asI662
(lp668
I31
aI74
aI129
aI133
aI143
aI213
asI663
(lp669
I23
aI42
aI43
aI54
aI60
aI69
asI664
(lp670
I23
aI42
aI43
aI54
aI60
aI69
asI665
(lp671
I6
aI101
aI120
aI144
aI180
aI181
asI666
(lp672
I14
aI28
aI113
aI151
aI156
aI163
asI667
(lp673
I38
aI44
aI67
aI86
aI107
aI108
asI668
(lp674
I26
aI28
aI96
aI113
aI151
aI156
asI669
(lp675
I5
aI14
aI58
aI66
aI113
aI150
asI670
(lp676
I3
aI68
aI71
aI75
aI89
aI131
asI671
(lp677
I50
aI66
aI99
aI114
aI189
aI199
asI672
(lp678
I0
aI16
aI18
aI33
aI65
aI81
asI673
(lp679
I10
aI22
aI60
aI69
aI76
aI78
asI674
(lp680
I16
aI18
aI52
aI62
aI65
aI133
asI675
(lp681
I38
aI44
aI67
aI83
aI135
aI162
asI676
(lp682
I9
aI47
aI92
aI93
aI99
aI137
asI677
(lp683
I32
aI38
aI44
aI57
aI67
aI83
asI678
(lp684
I24
aI32
aI44
aI48
aI57
aI67
asI679
(lp685
I26
aI28
aI36
aI96
aI113
aI142
asI680
(lp686
I22
aI60
aI61
aI76
aI78
aI84
asI681
(lp687
I0
aI11
aI29
aI30
aI119
aI122
asI682
(lp688
I8
aI45
aI51
aI105
aI116
aI128
asI683
(lp689
I5
aI14
aI58
aI66
aI150
aI163
asI684
(lp690
I9
aI25
aI41
aI55
aI82
aI97
asI685
(lp691
I12
aI72
aI112
aI117
aI125
aI168
asI686
(lp692
I91
aI159
aI204
aI216
aI247
aI292
asI687
(lp693
I13
aI26
aI34
aI36
aI53
aI90
asI688
(lp694
I24
aI32
aI48
aI57
aI63
aI80
asI689
(lp695
I3
aI68
aI71
aI75
aI89
aI131
asI690
(lp696
I38
aI57
aI67
aI83
aI135
aI182
asI691
(lp697
I6
aI11
aI29
aI101
aI120
aI144
asI692
(lp698
I60
aI61
aI76
aI84
aI94
aI98
asI693
(lp699
I38
aI59
aI162
aI169
aI224
aI256
asI694
(lp700
I11
aI12
aI70
aI72
aI112
aI117
asI695
(lp701
I6
aI29
aI101
aI120
aI144
aI155
asI696
(lp702
I39
aI50
aI66
aI92
aI99
aI114
asI697
(lp703
I1
aI20
aI22
aI75
aI76
aI78
asI698
(lp704
I3
aI68
aI71
aI75
aI89
aI131
asI699
(lp705
I24
aI32
aI48
aI57
aI63
aI67
asI700
(lp706
I7
aI17
aI21
aI46
aI49
aI51
asI701
(lp707
I23
aI42
aI43
aI54
aI60
aI69
asI702
(lp708
I24
aI32
aI48
aI57
aI63
aI80
asI703
(lp709
I17
aI21
aI49
aI51
aI105
aI128
asI704
(lp710
I24
aI32
aI48
aI57
aI67
aI80
asI705
(lp711
I7
aI46
aI49
aI59
aI64
aI88
asI706
(lp712
I5
aI14
aI50
aI58
aI66
aI99
asI707
(lp713
I4
aI39
aI47
aI90
aI92
aI93
asI708
(lp714
I38
aI59
aI256
aI267
aI290
aI327
asI709
(lp715
I22
aI60
aI61
aI76
aI78
aI84
asI710
(lp716
I17
aI45
aI49
aI51
aI86
aI105
asI711
(lp717
I12
aI70
aI72
aI112
aI117
aI125
asI712
(lp718
I59
aI64
aI134
aI154
aI198
aI256
asI713
(lp719
I23
aI42
aI43
aI54
aI63
aI69
asI714
(lp720
I31
aI65
aI74
aI129
aI133
aI143
asI715
(lp721
I12
aI70
aI72
aI112
aI117
aI119
asI716
(lp722
I5
aI14
aI58
aI66
aI150
aI163
asI717
(lp723
I85
aI91
aI103
aI111
aI159
aI200
asI718
(lp724
I7
aI17
aI46
aI49
aI51
aI59
asI719
(lp725
I11
aI12
aI70
aI72
aI112
aI117
asI720
(lp726
I22
aI60
aI61
aI76
aI78
aI84
asI721
(lp727
I23
aI24
aI42
aI43
aI54
aI63
asI722
(lp728
I38
aI45
aI46
aI59
aI86
aI108
asI723
(lp729
I17
aI21
aI49
aI51
aI105
aI128
asI724
(lp730
I119
aI168
aI171
aI188
aI240
aI265
asI725
(lp731
I23
aI42
aI43
aI54
aI69
aI73
asI726
(lp732
I12
aI70
aI72
aI112
aI117
aI125
asI727
(lp733
I5
aI14
aI28
aI58
aI66
aI113
asI728
(lp734
I16
aI18
aI33
aI62
aI65
aI81
asI729
(lp735
I20
aI22
aI60
aI76
aI78
aI84
asI730
(lp736
I2
aI5
aI35
aI58
aI150
aI174
asI731
(lp737
I6
aI11
aI70
aI101
aI120
aI144
asI732
(lp738
I9
aI15
aI25
aI40
aI41
aI82
asI733
(lp739
I5
aI14
aI28
aI58
aI66
aI113
asI734
(lp740
I10
aI23
aI42
aI54
aI69
aI73
asI735
(lp741
I8
aI19
aI37
aI45
aI86
aI107
asI736
(lp742
I0
aI29
aI30
aI33
aI81
aI122
asI737
(lp743
I32
aI48
aI57
aI63
aI80
aI85
asI738
(lp744
I1
aI22
aI56
aI75
aI84
aI87
asI739
(lp745
I39
aI47
aI92
aI93
aI99
aI118
asI740
(lp746
I4
aI13
aI26
aI34
aI36
aI39
asI741
(lp747
I26
aI28
aI36
aI96
aI113
aI151
asI742
(lp748
I28
aI96
aI113
aI151
aI156
aI163
asI743
(lp749
I7
aI17
aI21
aI49
aI64
aI88
asI744
(lp750
I52
aI62
aI77
aI157
aI210
aI228
asI745
(lp751
I1
aI3
aI15
aI40
aI56
aI71
asI746
(lp752
I25
aI41
aI55
aI82
aI87
aI97
asI747
(lp753
I38
aI67
aI83
aI162
aI169
aI194
asI748
(lp754
I0
aI30
aI33
aI81
aI122
aI143
asI749
(lp755
I77
aI91
aI159
aI204
aI216
aI228
asI750
(lp756
I15
aI25
aI40
aI41
aI55
aI56
asI751
(lp757
I5
aI14
aI28
aI58
aI66
aI113
asI752
(lp758
I23
aI24
aI42
aI43
aI54
aI69
asI753
(lp759
I14
aI28
aI96
aI113
aI151
aI156
asI754
(lp760
I8
aI19
aI37
aI45
aI51
aI86
asI755
(lp761
I5
aI14
aI58
aI66
aI150
aI163
asI756
(lp762
I7
aI64
aI134
aI154
aI198
aI259
asI757
(lp763
I52
aI73
aI77
aI95
aI129
aI140
asI758
(lp764
I48
aI80
aI85
aI91
aI103
aI111
asI759
(lp765
I9
aI25
aI41
aI82
aI97
aI158
asI760
(lp766
I38
aI45
aI46
aI59
aI86
aI108
asI761
(lp767
I28
aI96
aI113
aI151
aI156
aI163
asI762
(lp768
I23
aI42
aI43
aI54
aI63
aI69
asI763
(lp769
I9
aI47
aI92
aI93
aI97
aI137
asI764
(lp770
I32
aI44
aI48
aI57
aI67
aI83
asI765
(lp771
I0
aI11
aI29
aI30
aI33
aI81
asI766
(lp772
I23
aI24
aI42
aI43
aI54
aI69
asI767
(lp773
I32
aI44
aI48
aI57
aI80
aI85
asI768
(lp774
I15
aI25
aI41
aI55
aI56
aI82
asI769
(lp775
I10
aI20
aI22
aI27
aI75
aI76
asI770
(lp776
I8
aI19
aI37
aI44
aI45
aI86
asI771
(lp777
I4
aI26
aI34
aI36
aI53
aI90
asI772
(lp778
I9
aI25
aI41
aI55
aI82
aI97
asI773
(lp779
I24
aI32
aI38
aI44
aI57
aI67
asI774
(lp780
I10
aI22
aI60
aI76
aI78
aI79
asI775
(lp781
I13
aI26
aI28
aI36
aI96
aI113
asI776
(lp782
I35
aI50
aI99
aI114
aI199
aI295
asI777
(lp783
I59
aI256
aI267
aI290
aI327
aI426
asI778
(lp784
I16
aI18
aI52
aI62
aI110
aI138
asI779
(lp785
I52
aI65
aI73
aI95
aI129
aI172
asI780
(lp786
I22
aI60
aI61
aI76
aI84
aI94
asI781
(lp787
I13
aI26
aI34
aI36
aI53
aI90
asI782
(lp788
I31
aI42
aI73
aI95
aI100
aI129
asI783
(lp789
I0
aI29
aI30
aI33
aI81
aI119
asI784
(lp790
I48
aI85
aI103
aI111
aI148
aI159
asI785
(lp791
I1
aI3
aI15
aI56
aI75
aI87
asI786
(lp792
I6
aI101
aI120
aI144
aI155
aI180
asI787
(lp793
I1
aI3
aI15
aI40
aI56
aI71
asI788
(lp794
I19
aI32
aI37
aI44
aI48
aI85
asI789
(lp795
I23
aI42
aI43
aI54
aI63
aI69
asI790
(lp796
I1
aI3
aI20
aI56
aI68
aI71
asI791
(lp797
I13
aI26
aI36
aI53
aI96
aI104
asI792
(lp798
I24
aI60
aI69
aI79
aI121
aI146
asI793
(lp799
I9
aI25
aI41
aI55
aI82
aI97
asI794
(lp800
I24
aI32
aI57
aI67
aI83
aI135
asI795
(lp801
I7
aI46
aI59
aI64
aI88
aI134
asI796
(lp802
I14
aI28
aI96
aI113
aI151
aI156
asI797
(lp803
I4
aI9
aI47
aI93
aI97
aI158
asI798
(lp804
I0
aI11
aI29
aI30
aI119
aI122
asI799
(lp805
I1
aI20
aI22
aI56
aI75
aI76
asI800
(lp806
I61
aI84
aI106
aI121
aI147
aI187
asI801
(lp807
I47
aI92
aI93
aI99
aI137
aI199
asI802
(lp808
I24
aI32
aI48
aI57
aI63
aI80
asI803
(lp809
I11
aI70
aI72
aI101
aI112
aI117
asI804
(lp810
I30
aI33
aI74
aI81
aI133
aI143
asI805
(lp811
I52
aI62
aI77
aI138
aI157
aI228
asI806
(lp812
I1
aI22
aI56
aI76
aI78
aI84
asI807
(lp813
I32
aI38
aI44
aI48
aI57
aI67
asI808
(lp814
I16
aI18
aI62
aI65
aI110
aI133
asI809
(lp815
I17
aI21
aI49
aI51
aI88
aI105
asI810
(lp816
I40
aI71
aI89
aI127
aI131
aI152
asI811
(lp817
I11
aI70
aI119
aI168
aI171
aI186
asI812
(lp818
I17
aI45
aI46
aI49
aI51
aI59
asI813
(lp819
I77
aI85
aI91
aI111
aI159
aI204
asI814
(lp820
I2
aI5
aI35
aI58
aI174
aI249
asI815
(lp821
I23
aI43
aI63
aI77
aI80
aI85
asI816
(lp822
I39
aI50
aI92
aI93
aI99
aI114
asI817
(lp823
I1
aI3
aI20
aI56
aI68
aI71
asI818
(lp824
I17
aI21
aI132
aI136
aI175
aI183
asI819
(lp825
I52
aI62
aI77
aI91
aI138
aI157
asI820
(lp826
I32
aI44
aI48
aI63
aI80
aI85
asI821
(lp827
I1
aI3
aI20
aI68
aI75
aI124
asI822
(lp828
I52
aI62
aI65
aI77
aI95
aI129
asI823
(lp829
I24
aI57
aI67
aI83
aI135
asI824
(lp830
I119
aI171
aI188
aI240
aI252
aI265
asI825
(lp831
I10
aI20
aI27
aI124
aI141
aI193
asI826
(lp832
I8
aI19
aI37
aI45
aI107
aI108
asI827
(lp833
I35
aI50
aI66
aI92
aI99
aI114
asI828
(lp834
I17
aI45
aI46
aI49
aI51
aI86
asI829
(lp835
I9
aI15
aI25
aI40
aI41
aI55
asI830
(lp836
I55
aI61
aI84
aI106
aI147
aI179
asI831
(lp837
I10
aI20
aI22
aI27
aI68
aI75
asI832
(lp838
I19
aI37
aI38
aI44
aI45
aI67
asI833
(lp839
I13
aI26
aI36
aI53
aI96
aI113
asI834
(lp840
I11
aI70
aI112
aI119
aI125
aI168
asI835
(lp841
I19
aI32
aI44
aI48
aI80
aI85
asI836
(lp842
I11
aI29
aI70
aI119
aI144
aI155
asI837
(lp843
I2
aI5
aI35
aI50
aI66
aI114
asI838
(lp844
I77
aI85
aI91
aI111
aI159
aI204
asI839
(lp845
I23
aI42
aI43
aI54
aI69
aI73
asI840
(lp846
I9
aI15
aI25
aI41
aI55
aI82
asI841
(lp847
I5
aI14
aI35
aI50
aI58
aI66
asI842
(lp848
I9
aI47
aI93
aI97
aI137
aI158
asI843
(lp849
I16
aI18
aI52
aI62
aI65
aI133
asI844
(lp850
I29
aI30
aI155
aI161
aI201
aI211
asI845
(lp851
I38
aI59
aI67
aI267
aI321
aI327
asI846
(lp852
I9
aI41
aI82
aI97
aI158
aI164
asI847
(lp853
I11
aI12
aI70
aI72
aI112
aI117
asI848
(lp854
I24
aI32
aI48
aI63
aI80
aI85
asI849
(lp855
I0
aI18
aI81
aI122
aI149
aI166
asI850
(lp856
I23
aI43
aI63
aI77
aI80
aI111
asI851
(lp857
I3
aI15
aI40
aI71
aI89
aI131
asI852
(lp858
I38
aI45
aI46
aI59
aI86
aI108
asI853
(lp859
I31
aI73
aI95
aI100
aI109
aI129
asI854
(lp860
I12
aI72
aI112
aI117
aI125
aI168
asI855
(lp861
I13
aI36
aI39
aI47
aI50
aI53
asI856
(lp862
I19
aI37
aI38
aI44
aI67
aI107
asI857
(lp863
I13
aI26
aI34
aI36
aI53
aI90
asI858
(lp864
I6
aI11
aI70
aI101
aI120
aI144
asI859
(lp865
I45
aI49
aI51
aI105
aI116
aI128
asI860
(lp866
I4
aI13
aI36
aI39
aI47
aI53
asI861
(lp867
I11
aI12
aI70
aI72
aI112
aI117
asI862
(lp868
I46
aI59
aI88
aI154
aI198
aI256
asI863
(lp869
I38
aI45
aI46
aI49
aI59
aI86
asI864
(lp870
I3
aI20
aI68
aI75
aI124
aI131
asI865
(lp871
I28
aI96
aI113
aI151
aI156
aI163
asI866
(lp872
I23
aI42
aI43
aI54
aI60
aI69
asI867
(lp873
I31
aI74
aI211
aI213
aI231
aI233
asI868
(lp874
I10
aI23
aI42
aI43
aI54
aI69
asI869
(lp875
I23
aI42
aI43
aI54
aI63
aI69
asI870
(lp876
I85
aI91
aI103
aI111
aI159
aI200
asI871
(lp877
I46
aI59
aI154
aI256
aI261
aI267
asI872
(lp878
I17
aI45
aI46
aI49
aI51
aI86
asI873
(lp879
I16
aI18
aI52
aI62
aI65
aI110
asI874
(lp880
I4
aI13
aI26
aI36
aI39
aI47
asI875
(lp881
I60
aI61
aI84
aI106
aI121
aI147
asI876
(lp882
I31
aI74
aI211
aI213
aI220
aI231
asI877
(lp883
I38
aI44
aI67
aI83
aI108
aI139
asI878
(lp884
I6
aI101
aI120
aI144
aI180
aI181
asI879
(lp885
I10
aI22
aI60
aI69
aI76
aI78
asI880
(lp886
I10
aI20
aI22
aI27
aI60
aI76
asI881
(lp887
I6
aI11
aI70
aI101
aI120
aI144
asI882
(lp888
I38
aI46
aI59
aI162
aI169
aI256
asI883
(lp889
I11
aI70
aI101
aI144
aI155
aI168
asI884
(lp890
I17
aI21
aI49
aI51
aI88
aI105
asI885
(lp891
I15
aI40
aI71
aI89
aI127
aI131
asI886
(lp892
I30
aI33
aI65
aI81
aI133
aI143
asI887
(lp893
I9
aI93
aI97
aI137
aI158
aI164
asI888
(lp894
I26
aI28
aI96
aI113
aI151
aI156
asI889
(lp895
I1
aI3
aI15
aI56
aI71
aI75
asI890
(lp896
I7
aI59
aI64
aI88
aI134
aI154
asI891
(lp897
I24
aI32
aI48
aI57
aI63
aI80
asI892
(lp898
I19
aI32
aI44
aI48
aI57
aI83
asI893
(lp899
I23
aI24
aI42
aI43
aI54
aI63
asI894
(lp900
I0
aI16
aI18
aI33
aI62
aI65
asI895
(lp901
I0
aI18
aI30
aI33
aI65
aI81
asI896
(lp902
I119
aI171
aI186
aI188
aI214
aI240
asI897
(lp903
I0
aI30
aI33
aI81
aI122
aI166
asI898
(lp904
I11
aI70
aI101
aI117
aI144
aI180
asI899
(lp905
I3
aI20
aI68
aI75
aI124
aI131
asI900
(lp906
I18
aI33
aI65
aI81
aI133
aI143
asI901
(lp907
I52
aI62
aI65
aI77
aI95
aI129
asI902
(lp908
I22
aI60
aI61
aI76
aI78
aI84
asI903
(lp909
I32
aI44
aI48
aI80
aI85
aI103
asI904
(lp910
I48
aI85
aI103
aI111
aI148
aI159
asI905
(lp911
I0
aI30
aI33
aI81
aI122
aI133
asI906
(lp912
I7
aI46
aI59
aI64
aI88
aI134
asI907
(lp913
I17
aI45
aI49
aI51
aI86
aI105
asI908
(lp914
I52
aI62
aI77
aI140
aI210
aI228
asI909
(lp915
I48
aI63
aI80
aI85
aI91
aI103
asI910
(lp916
I50
aI92
aI93
aI99
aI114
aI137
asI911
(lp917
I38
aI46
aI59
aI86
aI162
aI169
asI912
(lp918
I3
aI68
aI71
aI75
aI89
aI131
asI913
(lp919
I45
aI49
aI51
aI86
aI105
aI116
asI914
(lp920
I3
aI68
aI71
aI75
aI89
aI131
asI915
(lp921
I0
aI81
aI119
aI122
aI186
aI207
asI916
(lp922
I5
aI14
aI58
aI66
aI113
aI150
asI917
(lp923
I3
aI15
aI40
aI71
aI89
aI127
asI918
(lp924
I74
aI211
aI213
aI231
aI233
aI236
asI919
(lp925
I23
aI43
aI54
aI60
aI69
aI76
asI920
(lp926
I1
aI3
aI15
aI25
aI40
aI41
asI921
(lp927
I10
aI20
aI27
aI78
aI109
aI115
asI922
(lp928
I8
aI19
aI37
aI44
aI45
aI86
asI923
(lp929
I12
aI72
aI112
aI117
aI125
aI455
asI924
(lp930
I24
aI32
aI48
aI57
aI67
aI80
asI925
(lp931
I3
aI4
aI15
aI40
aI71
aI89
asI926
(lp932
I4
aI34
aI36
aI53
aI90
aI104
asI927
(lp933
I32
aI44
aI48
aI57
aI67
aI83
asI928
(lp934
I4
aI9
aI40
aI47
aI97
aI158
asI929
(lp935
I61
aI84
aI87
aI94
aI106
aI147
asI930
(lp936
I24
aI32
aI48
aI57
aI63
aI80
asI931
(lp937
I0
aI18
aI30
aI33
aI81
aI122
asI932
(lp938
I60
aI69
aI76
aI79
aI98
aI115
asI933
(lp939
I17
aI21
aI49
aI51
aI88
aI105
asI934
(lp940
I29
aI155
aI161
aI201
aI211
aI226
asI935
(lp941
I24
aI32
aI44
aI48
aI57
aI63
asI936
(lp942
I2
aI5
aI14
aI35
aI50
aI58
asI937
(lp943
I1
aI3
aI15
aI25
aI41
aI55
asI938
(lp944
I3
aI15
aI40
aI71
aI89
aI131
asI939
(lp945
I24
aI32
aI48
aI57
aI67
aI80
asI940
(lp946
I23
aI42
aI43
aI54
aI69
aI73
asI941
(lp947
I17
aI21
aI46
aI49
aI51
aI88
asI942
(lp948
I77
aI91
aI159
aI204
aI216
aI228
asI943
(lp949
I16
aI18
aI52
aI62
aI65
aI110
asI944
(lp950
I13
aI14
aI39
aI50
aI66
aI113
asI945
(lp951
I4
aI13
aI26
aI34
aI36
aI53
asI946
(lp952
I10
aI20
aI22
aI60
aI75
aI76
asI947
(lp953
I29
aI155
aI161
aI201
aI226
aI236
asI948
(lp954
I63
aI77
aI91
aI140
aI159
aI177
asI949
(lp955
I23
aI31
aI42
aI54
aI69
aI73
asI950
(lp956
I23
aI42
aI43
aI54
aI69
aI73
asI951
(lp957
I50
aI92
aI99
aI114
aI199
aI311
asI952
(lp958
I24
aI57
aI83
aI121
aI135
aI146
asI953
(lp959
I23
aI31
aI42
aI43
aI54
aI69
asI954
(lp960
I25
aI41
aI55
aI56
aI82
aI87
asI955
(lp961
I26
aI28
aI96
aI113
aI151
aI156
asI956
(lp962
I31
aI42
aI52
aI65
aI73
aI95
asI957
(lp963
I29
aI30
aI155
aI161
aI186
aI201
asI958
(lp964
I19
aI37
aI38
aI44
aI67
aI107
asI959
(lp965
I2
aI5
aI35
aI50
aI58
aI66
asI960
(lp966
I17
aI21
aI49
aI51
aI105
aI128
asI961
(lp967
I25
aI41
aI55
aI82
aI87
aI97
asI962
(lp968
I17
aI21
aI46
aI49
aI51
aI88
asI963
(lp969
I31
aI42
aI54
aI73
aI79
aI95
asI964
(lp970
I8
aI19
aI37
aI44
aI45
aI86
asI965
(lp971
I60
aI121
aI146
aI153
aI160
aI182
asI966
(lp972
I63
aI77
aI80
aI85
aI91
aI111
asI967
(lp973
I0
aI16
aI18
aI30
aI33
aI65
asI968
(lp974
I23
aI42
aI43
aI54
aI63
aI69
asI969
(lp975
I10
aI27
aI78
aI100
aI109
aI115
asI970
(lp976
I8
aI19
aI37
aI44
aI103
aI107
asI971
(lp977
I38
aI59
aI169
aI267
aI321
aI327
asI972
(lp978
I17
aI21
aI51
aI105
aI128
aI132
asI973
(lp979
I8
aI19
aI37
aI45
aI107
aI116
asI974
(lp980
I0
aI29
aI30
aI155
aI161
aI186
asI975
(lp981
I85
aI91
aI103
aI111
aI159
aI200
asI976
(lp982
I10
aI27
aI78
aI100
aI109
aI115
asI977
(lp983
I4
aI13
aI36
aI39
aI47
aI53
asI978
(lp984
I11
aI12
aI70
aI72
aI112
aI117
asI979
(lp985
I32
aI44
aI48
aI57
aI80
aI83
asI980
(lp986
I52
aI62
aI77
aI129
aI210
aI228
asI981
(lp987
I16
aI18
aI52
aI62
aI65
aI133
asI982
(lp988
I63
aI77
aI85
aI91
aI111
aI159
asI983
(lp989
I48
aI63
aI77
aI80
aI85
aI91
asI984
(lp990
I23
aI42
aI43
aI54
aI69
aI73
asI985
(lp991
I30
aI74
aI211
aI213
aI231
aI233
asI986
(lp992
I38
aI44
aI57
aI67
aI83
aI135
asI987
(lp993
I1
aI3
aI15
aI40
aI41
aI56
asI988
(lp994
I31
aI65
aI74
aI133
aI143
aI178
asI989
(lp995
I0
aI30
aI33
aI81
aI122
aI143
asI990
(lp996
I24
aI32
aI44
aI48
aI57
aI67
asI991
(lp997
I0
aI29
aI30
aI33
aI155
aI161
asI992
(lp998
I24
aI60
aI121
aI146
aI153
aI160
asI993
(lp999
I28
aI151
aI156
aI163
aI185
aI208
asI994
(lp1000
I10
aI22
aI60
aI69
aI76
aI78
asI995
(lp1001
I25
aI41
aI55
aI82
aI87
aI102
asI996
(lp1002
I4
aI15
aI40
aI71
aI89
aI152
asI997
(lp1003
I0
aI18
aI30
aI33
aI65
aI81
asI998
(lp1004
I33
aI65
aI129
aI133
aI143
aI149
asI999
(lp1005
I119
aI122
aI207
aI230
aI240
aI252
assS'vertices'
p1006
(lp1007
cnumpy.core.multiarray
_reconstruct
p1008
(cnumpy
ndarray
p1009
(I0
tS'b'
tRp1010
(I1
(I2
tcnumpy
dtype
p1011
(S'f8'
I0
I1
tRp1012
(I3
S'<'
NNNI-1
I-1
I0
tbI00
S'\xa8\xf2s\xa6\xccY<\xc0\xca9\x19\xaem\x16F\xc0'
tbag1008
(g1009
(I0
tS'b'
tRp1013
(I1
(I2
tg1012
I00
S'\x90\x87\xa0\xe8c^\x0b@\x00\xf5\xdb\xb0)\x88\xff?'
tbag1008
(g1009
(I0
tS'b'
tRp1014
(I1
(I2
tg1012
I00
S' _4\xa4\x80\x1e2@\xbc\x95\xfb:\xb0wK@'
tbag1008
(g1009
(I0
tS'b'
tRp1015
(I1
(I2
tg1012
I00
S'\x80e\xac\xe7\xe3Z\xdd\xbfP\xf9\xa1`\xd8\xb6\x17@'
tbag1008
(g1009
(I0
tS'b'
tRp1016
(I1
(I2
tg1012
I00
S' \xf9\x9a\xcdv\xc7\x00@\x04\x90ji\xa8\xf77@'
tbag1008
(g1009
(I0
tS'b'
tRp1017
(I1
(I2
tg1012
I00
S'\xe8\x9b\x02\xff\x19\x86)@J\xdc\x94?A\xd4J@'
tbag1008
(g1009
(I0
tS'b'
tRp1018
(I1
(I2
tg1012
I00
S'\xef\x15m\xee\xf5)H\xc0\xe6\xf3\x81\xdb@\x04:\xc0'
tbag1008
(g1009
(I0
tS'b'
tRp1019
(I1
(I2
tg1012
I00
S'\xc0\x88\x8eO\xf3NL@j\xd5\xdd=\x08\xdf@\xc0'
tbag1008
(g1009
(I0
tS'b'
tRp1020
(I1
(I2
tg1012
I00
S'\xb8\x1e\xe3\xa0\x14t>@\x91\x9b\xccY\xfc\xf4I\xc0'
tbag1008
(g1009
(I0
tS'b'
tRp1021
(I1
(I2
tg1012
I00
S'\xa4\xde)\xe6\xfc\xb11@\x88&\x0cU\xec\xc43@'
tbag1008
(g1009
(I0
tS'b'
tRp1022
(I1
(I2
tg1012
I00
S'\xb8\xe9 \x04\xe8\xd3\x11\xc0\x14\xef\xb8\x85\x8fu)\xc0'
tbag1008
(g1009
(I0
tS'b'
tRp1023
(I1
(I2
tg1012
I00
S'6\xe7"\x95@0F\xc0i1^\xfb\xf3jD\xc0'
tbag1008
(g1009
(I0
tS'b'
tRp1024
(I1
(I2
tg1012
I00
S'\xbc\x7f\x13\xbb61K\xc0\xbc\xe0Qc\xb6AH\xc0'
tbag1008
(g1009
(I0
tS'b'
tRp1025
(I1
(I2
tg1012
I00
S'\x10\x10\xb6\xe8\x97h\x01@\xc4\x99\xe4\xb6\x92\x88A@'
tbag1008
(g1009
(I0
tS'b'
tRp1026
(I1
(I2
tg1012
I00
S'\xb0\x94r\xc0S\xf3\x12@ \xb4\x1cXV\xedI@'
tbag1008
(g1009
(I0
tS'b'
tRp1027
(I1
(I2
tg1012
I00
S' vV\xe3\x83\xcb\x0c@\xd0\xac\xb3\xdbQ\xb2$@'
tbag1008
(g1009
(I0
tS'b'
tRp1028
(I1
(I2
tg1012
I00
S',\xde\xc1\x8e[#.\xc0#2\xad\\\x02\x85I\xc0'
tbag1008
(g1009
(I0
tS'b'
tRp1029
(I1
(I2
tg1012
I00
S'\x16\x9cJ\x08w\x1aI@2\xffX\x9a*\x9dE\xc0'
tbag1008
(g1009
(I0
tS'b'
tRp1030
(I1
(I2
tg1012
I00
S',\xe48\xbf\x97\x8d1\xc0\x18\x82\x9a\xe8\xae(H\xc0'
tbag1008
(g1009
(I0
tS'b'
tRp1031
(I1
(I2
tg1012
I00
S'D\xe7T\xe4\xf3v=@\xc6\xd1\x83\x070\xbdG\xc0'
tbag1008
(g1009
(I0
tS'b'
tRp1032
(I1
(I2
tg1012
I00
S'po\xfd\x9ap\xa5\t\xc0(\xdc\x1f\xbcC\xa3\x18\xc0'
tbag1008
(g1009
(I0
tS'b'
tRp1033
(I1
(I2
tg1012
I00
S"\x14${-\xb8\xb5K@\x08'\xcaz\x85EF\xc0"
tbag1008
(g1009
(I0
tS'b'
tRp1034
(I1
(I2
tg1012
I00
S'0\xa4fYa\x98\x07@\xc4G\xcc\xc8\x86%#\xc0'
tbag1008
(g1009
(I0
tS'b'
tRp1035
(I1
(I2
tg1012
I00
S'\xe0<xF\xb9)\x02@\xcf\x90\x9b\x9f\xfd\x18=\xc0'
tbag1008
(g1009
(I0
tS'b'
tRp1036
(I1
(I2
tg1012
I00
S'\xd0\xe6\xfc\x8e=\n/@1H7\xdc\xd4\xcf=\xc0'
tbag1008
(g1009
(I0
tS'b'
tRp1037
(I1
(I2
tg1012
I00
S'\xfc<\xc7`\x96I0@\x18l\xa3\xf9\x97\xbb#@'
tbag1008
(g1009
(I0
tS'b'
tRp1038
(I1
(I2
tg1012
I00
S'\x10\xf3V(\x04\xc8\n\xc0\xf4\xe1-\xd0\xcf4B@'
tbag1008
(g1009
(I0
tS'b'
tRp1039
(I1
(I2
tg1012
I00
S'\x84!d\xe5\x14\xd5 \xc0$\x9c\xcd\n\x0b\x8a%\xc0'
tbag1008
(g1009
(I0
tS'b'
tRp1040
(I1
(I2
tg1012
I00
S'\xa0\xed\xbe/|n\n\xc0L\x9f\x91\x8f\xa6\x88H@'
tbag1008
(g1009
(I0
tS'b'
tRp1041
(I1
(I2
tg1012
I00
S'\xe2#\xb8\tJ\xd7B\xc0\xbf\xd81\\\xc0WA\xc0'
tbag1008
(g1009
(I0
tS'b'
tRp1042
(I1
(I2
tg1012
I00
S':P\xe5\x1f#\x1e<\xc0\xce\x1a\x91c\xf4mC\xc0'
tbag1008
(g1009
(I0
tS'b'
tRp1043
(I1
(I2
tg1012
I00
S'@\xf2C\x05\xb5\xb5*\xc0\xb4\xb9\x97Z\xc9Q;\xc0'
tbag1008
(g1009
(I0
tS'b'
tRp1044
(I1
(I2
tg1012
I00
S'\xec}\x17\x16BZ2@J\x90R3\x1a\xdaB\xc0'
tbag1008
(g1009
(I0
tS'b'
tRp1045
(I1
(I2
tg1012
I00
S'$\xe1\x02/\x0el9\xc0\x19\x8f5A\xac\xf0D\xc0'
tbag1008
(g1009
(I0
tS'b'
tRp1046
(I1
(I2
tg1012
I00
S'\xe0A\xc3\x89q\xe4\x19\xc0\x10\xea\xd7\x17\x0c\xd1:@'
tbag1008
(g1009
(I0
tS'b'
tRp1047
(I1
(I2
tg1012
I00
S'`\xec\xb4\xc8A\xd02@\x00\xd5O\xa9:\x07J@'
tbag1008
(g1009
(I0
tS'b'
tRp1048
(I1
(I2
tg1012
I00
S'\x00\x886\x1csU\xc8\xbf\xeeQj\xd030A@'
tbag1008
(g1009
(I0
tS'b'
tRp1049
(I1
(I2
tg1012
I00
S'p\xc3\xc8\xf5\x8c\x13?@$\x07\xe8\xba\xb8\xf2G\xc0'
tbag1008
(g1009
(I0
tS'b'
tRp1050
(I1
(I2
tg1012
I00
S'\nv\xa2\xea\xc3\xab@@x\xd9\xf3n\x08\xb3?\xc0'
tbag1008
(g1009
(I0
tS'b'
tRp1051
(I1
(I2
tg1012
I00
S' \\Hpg\x08\x1d@\n*\x82\xce\xf9\xe7@@'
tbag1008
(g1009
(I0
tS'b'
tRp1052
(I1
(I2
tg1012
I00
S'0VG`\xbdj\x03@\x98\xb4}\x94\x81k.@'
tbag1008
(g1009
(I0
tS'b'
tRp1053
(I1
(I2
tg1012
I00
S'0\xef\xae\n\x9a\xfb-@\xb00\xc6V\xf6T%@'
tbag1008
(g1009
(I0
tS'b'
tRp1054
(I1
(I2
tg1012
I00
S'\x00^\xa7\xdbX\xce\xb8?\xaa\xcf\x87\xce-\xc2=\xc0'
tbag1008
(g1009
(I0
tS'b'
tRp1055
(I1
(I2
tg1012
I00
S'\x90!\x1e\x85f\x1d\x0e@Z\xc7\x104k\x81=\xc0'
tbag1008
(g1009
(I0
tS'b'
tRp1056
(I1
(I2
tg1012
I00
S'\xf0\x004\xeffl:@\xaaN\x95\xe3N\xbbC\xc0'
tbag1008
(g1009
(I0
tS'b'
tRp1057
(I1
(I2
tg1012
I00
S'^\xf3l \x16kC@\xe3\x9f_y\xce\x86F\xc0'
tbag1008
(g1009
(I0
tS'b'
tRp1058
(I1
(I2
tg1012
I00
S'\xe6lw\x19\xc6iE@\x8al\xb6\xd8\x90EB\xc0'
tbag1008
(g1009
(I0
tS'b'
tRp1059
(I1
(I2
tg1012
I00
S'p]>Yh} @\x14S\xf9\x9a\xcaK>@'
tbag1008
(g1009
(I0
tS'b'
tRp1060
(I1
(I2
tg1012
I00
S"h\xa3\xdc\xb7\x97\xde0@\xdd\xe2\x00\xe8'HD\xc0"
tbag1008
(g1009
(I0
tS'b'
tRp1061
(I1
(I2
tg1012
I00
S',iRE\r\xd8G@\xba0\xf0z.aE\xc0'
tbag1008
(g1009
(I0
tS'b'
tRp1062
(I1
(I2
tg1012
I00
S'\xb0\xf9i\x81\xe4D/@\xa0`_\xfa\xbdgE@'
tbag1008
(g1009
(I0
tS'b'
tRp1063
(I1
(I2
tg1012
I00
S'\xec\xa19\x84@KG@\xfe\xac\xa3p\xd1\x8bF\xc0'
tbag1008
(g1009
(I0
tS'b'
tRp1064
(I1
(I2
tg1012
I00
S'\xd0?`\xf8\xd5\xa9\x17\xc0\xda\xd7\xbc\xfe\x98SF\xc0'
tbag1008
(g1009
(I0
tS'b'
tRp1065
(I1
(I2
tg1012
I00
S'\x00\x14]\x89d\x97\xc0?R\xbb0D\xbe\x01@@'
tbag1008
(g1009
(I0
tS'b'
tRp1066
(I1
(I2
tg1012
I00
S'\x80\x87*;,\xc4\xd7?P\xafQj\x03};\xc0'
tbag1008
(g1009
(I0
tS'b'
tRp1067
(I1
(I2
tg1012
I00
S'Dv\xadS\x04\n0@\xa0\xf9\x19m%M\x1c@'
tbag1008
(g1009
(I0
tS'b'
tRp1068
(I1
(I2
tg1012
I00
S'\x10A\x1f,\xa2\xea\x18@\x10-\x8d`YL\x12@'
tbag1008
(g1009
(I0
tS'b'
tRp1069
(I1
(I2
tg1012
I00
S'P\x8c\x11\x05P\xf62@\x0f\xbeK\xe7\x9e6@\xc0'
tbag1008
(g1009
(I0
tS'b'
tRp1070
(I1
(I2
tg1012
I00
S'H\x80\xf0D\xc2\xec%@\x8aU\xb2wH\x17K@'
tbag1008
(g1009
(I0
tS'b'
tRp1071
(I1
(I2
tg1012
I00
S'Fxg\x1a\x03\tE@\xa0\x05\x90\xe3\x0cN>\xc0'
tbag1008
(g1009
(I0
tS'b'
tRp1072
(I1
(I2
tg1012
I00
S'\x80\x9d\xc1\xf0\xc6^ @\x88\x12\xe7\x00\x88V0\xc0'
tbag1008
(g1009
(I0
tS'b'
tRp1073
(I1
(I2
tg1012
I00
S'8\nXD\xe2\x012@h\x16\xc3\xd8\x16\xc2\x1d\xc0'
tbag1008
(g1009
(I0
tS'b'
tRp1074
(I1
(I2
tg1012
I00
S'\xa0\x92\xe7\xddE\xeb#\xc0\x08&~\xd8G@H\xc0'
tbag1008
(g1009
(I0
tS'b'
tRp1075
(I1
(I2
tg1012
I00
S'\xd0A\xa5\xc3o9!@\xcc\x86\x83\x14VSC\xc0'
tbag1008
(g1009
(I0
tS'b'
tRp1076
(I1
(I2
tg1012
I00
S'\xcag\xaf\xd1W\xa3L@\x8e\xff@\xa5\x8e\xfb?\xc0'
tbag1008
(g1009
(I0
tS'b'
tRp1077
(I1
(I2
tg1012
I00
S'|\xbe=\xb7\xc4\x0c.\xc0\xab5]\xd6\xf0\xf2D\xc0'
tbag1008
(g1009
(I0
tS'b'
tRp1078
(I1
(I2
tg1012
I00
S'0M\x12\x9c\x8f\x05#@\x16\xd6\xf4\xda\x8c\x05I@'
tbag1008
(g1009
(I0
tS'b'
tRp1079
(I1
(I2
tg1012
I00
S'\xc0\x86\xba\xd0\x83\xd99@\xdb\x87\xedG\x0b.?\xc0'
tbag1008
(g1009
(I0
tS'b'
tRp1080
(I1
(I2
tg1012
I00
S'x\xa9\x80\x0c\x91\xb0\x1b\xc0\x00-\xc1{4\xf3\xea?'
tbag1008
(g1009
(I0
tS'b'
tRp1081
(I1
(I2
tg1012
I00
S'p}.\x93E(\r@&(H5\x16\xb69\xc0'
tbag1008
(g1009
(I0
tS'b'
tRp1082
(I1
(I2
tg1012
I00
S'xJ}\xf3\xa8aH\xc0\x024<k\xe7\xe3D\xc0'
tbag1008
(g1009
(I0
tS'b'
tRp1083
(I1
(I2
tg1012
I00
S'\x00\\\xc9N&\xff\xb6\xbf\x10\xb9\xe1f72!@'
tbag1008
(g1009
(I0
tS'b'
tRp1084
(I1
(I2
tg1012
I00
S'\xe7\xe8\xf1_\xa0ZK\xc0\xedan\xb8\x14 G\xc0'
tbag1008
(g1009
(I0
tS'b'
tRp1085
(I1
(I2
tg1012
I00
S'\xc0\x12n\xa3;\xe6\x05\xc0\xc2\x0e\xd5\x18\xfa\xe2?\xc0'
tbag1008
(g1009
(I0
tS'b'
tRp1086
(I1
(I2
tg1012
I00
S'\xf4G}E\t\x0f6\xc0\xf8\xcc\r$,]:\xc0'
tbag1008
(g1009
(I0
tS'b'
tRp1087
(I1
(I2
tg1012
I00
S'\x10\x11\x8a(\xcd\xd9\x00\xc0\x00\xb8\xe4""\xfe\xdb\xbf'
tbag1008
(g1009
(I0
tS'b'
tRp1088
(I1
(I2
tg1012
I00
S'\x00f%\x07\xb1J\x14@\xdcC\xa41\xb4z(\xc0'
tbag1008
(g1009
(I0
tS'b'
tRp1089
(I1
(I2
tg1012
I00
S'\x80b\xddFpt\xe6?\x9ad\n]\xdf F\xc0'
tbag1008
(g1009
(I0
tS'b'
tRp1090
(I1
(I2
tg1012
I00
S' s7\x7f\xf8\xdd\x03@\xa8g\xcb\xb9\xe1\xfa$\xc0'
tbag1008
(g1009
(I0
tS'b'
tRp1091
(I1
(I2
tg1012
I00
S'p\xf55\x90\xc9\xe0\x0c@$\\\xda"C\xad8\xc0'
tbag1008
(g1009
(I0
tS'b'
tRp1092
(I1
(I2
tg1012
I00
S'\xa8\xdc\x16\xb6\xc4b*@\xf4\xb0\xea$\xe3\x96C\xc0'
tbag1008
(g1009
(I0
tS'b'
tRp1093
(I1
(I2
tg1012
I00
S'\x8e\x84#.}\xaa9\xc0\xef\xd8p\xf59\xe7E\xc0'
tbag1008
(g1009
(I0
tS'b'
tRp1094
(I1
(I2
tg1012
I00
S'\x18\x15)\xe6\xfd\xde+@\x08\x8dJ\xbf\x9c)&@'
tbag1008
(g1009
(I0
tS'b'
tRp1095
(I1
(I2
tg1012
I00
S'x\xff\xd1D\xc1"5@\xa2\xd5\xf8s\x92\xb8?\xc0'
tbag1008
(g1009
(I0
tS'b'
tRp1096
(I1
(I2
tg1012
I00
S' (\xb5N\xfa\x7f+@\xa0\x14\xa61J\xfe\x1d\xc0'
tbag1008
(g1009
(I0
tS'b'
tRp1097
(I1
(I2
tg1012
I00
S'\xe0\x99\x13\xdfR-.@\xbc\xe9\xb3\xf4\x0e\xb6E\xc0'
tbag1008
(g1009
(I0
tS'b'
tRp1098
(I1
(I2
tg1012
I00
S'\x18\xfc\x8d\xa6\xdcnC@\xdc\x14]\xf0r\xacD\xc0'
tbag1008
(g1009
(I0
tS'b'
tRp1099
(I1
(I2
tg1012
I00
S'\x10\xffN\xf8z\xf5\x1e@`\xc2x\xa74L\x11@'
tbag1008
(g1009
(I0
tS'b'
tRp1100
(I1
(I2
tg1012
I00
S'f\x8d\xe0\xd8\x80\x87J@\xd6\x15k58pB\xc0'
tbag1008
(g1009
(I0
tS'b'
tRp1101
(I1
(I2
tg1012
I00
S'@\x87\t5)\x93\xf0\xbf\x90\x93\x9a\xf0\xec\xf2#@'
tbag1008
(g1009
(I0
tS'b'
tRp1102
(I1
(I2
tg1012
I00
S'\xc0\xe1B\x91\x85\xa2\xe7\xbf\x10\xb7\x9d\xe0o,<@'
tbag1008
(g1009
(I0
tS'b'
tRp1103
(I1
(I2
tg1012
I00
S'\xf0\xba\xad\x11u\x19\x13@\xa2\xddb\xf0hUJ\xc0'
tbag1008
(g1009
(I0
tS'b'
tRp1104
(I1
(I2
tg1012
I00
S'p\x07\x0c\xb76\xb8)@Z+\x7f\x1cE\xc9@@'
tbag1008
(g1009
(I0
tS'b'
tRp1105
(I1
(I2
tg1012
I00
S'P\x87\xe2\x94\r\x8a.@X$\x9b>\xf3\x9e>@'
tbag1008
(g1009
(I0
tS'b'
tRp1106
(I1
(I2
tg1012
I00
S'\xd0I\xf0!X#\x19@X\x8b\xbb\x14\xfb\x11\x10\xc0'
tbag1008
(g1009
(I0
tS'b'
tRp1107
(I1
(I2
tg1012
I00
S'\x80\xd4\x9d\x97\xdb8\x1a\xc0\x14+#\xa6U]@\xc0'
tbag1008
(g1009
(I0
tS'b'
tRp1108
(I1
(I2
tg1012
I00
S'\x84\x0c\x8b\x88\x17\xcb \xc08\x05\x84\xa0a\xdbE@'
tbag1008
(g1009
(I0
tS'b'
tRp1109
(I1
(I2
tg1012
I00
S' \xbc4u\x0750@\\v\xe2\xb1\xdb\n2@'
tbag1008
(g1009
(I0
tS'b'
tRp1110
(I1
(I2
tg1012
I00
S'\xd0\xa81\xd0\xdan\x18@\xf0D\x85#\xfc\xa1"\xc0'
tbag1008
(g1009
(I0
tS'b'
tRp1111
(I1
(I2
tg1012
I00
S'\x90\xd0\t\x13S\x1e-@\xa6W\xbf\xc1\xf2\x8cB@'
tbag1008
(g1009
(I0
tS'b'
tRp1112
(I1
(I2
tg1012
I00
S'\xe0\xe5\x1d8\xec0\x1d\xc0\xd2\xe3,\x11\xfb\x868\xc0'
tbag1008
(g1009
(I0
tS'b'
tRp1113
(I1
(I2
tg1012
I00
S'zzA\xdb\x9bHG\xc0z\x90\xac0\xac\x01?\xc0'
tbag1008
(g1009
(I0
tS'b'
tRp1114
(I1
(I2
tg1012
I00
S'\x80FV\x91;\xb5\'@8\x1cQ]\x99\xb5"@'
tbag1008
(g1009
(I0
tS'b'
tRp1115
(I1
(I2
tg1012
I00
S'\x04\x9f\xaa\xa3\xf2x3@\xe2\xf0[\xbc\xeb\x9eG\xc0'
tbag1008
(g1009
(I0
tS'b'
tRp1116
(I1
(I2
tg1012
I00
S'@\x99\x16\xdc\x84\xea\x13\xc0\xc8\xb7\xd4\xc6\xddV;@'
tbag1008
(g1009
(I0
tS'b'
tRp1117
(I1
(I2
tg1012
I00
S'\xc2\x07F\xc4\x9cyG@V\xe2W\xf4\x8c\xdfH\xc0'
tbag1008
(g1009
(I0
tS'b'
tRp1118
(I1
(I2
tg1012
I00
S'p\xf3F\x1f\xa0\xaa/@x\xe7\xf2\xb32\x94\x14\xc0'
tbag1008
(g1009
(I0
tS'b'
tRp1119
(I1
(I2
tg1012
I00
S'`\xbfE%\xb2\xc0=@lRf\xa5O\xabF\xc0'
tbag1008
(g1009
(I0
tS'b'
tRp1120
(I1
(I2
tg1012
I00
S'\xae\xfa\x1bv\xd8\xb5@@\x16\x98j\x83@\x91D\xc0'
tbag1008
(g1009
(I0
tS'b'
tRp1121
(I1
(I2
tg1012
I00
S'\xc0\xcc L\xb1i\xee\xbf\x86\xae\x97\x9e\xf3s6\xc0'
tbag1008
(g1009
(I0
tS'b'
tRp1122
(I1
(I2
tg1012
I00
S"\x84\x90\x8e\xa2\xbf0+\xc0\x80\x89'K\xb5\xf8J\xc0"
tbag1008
(g1009
(I0
tS'b'
tRp1123
(I1
(I2
tg1012
I00
S'\x98\xd1Vw\xbcA-@~\xb2&\xc6N\x87E\xc0'
tbag1008
(g1009
(I0
tS'b'
tRp1124
(I1
(I2
tg1012
I00
S'\x82U\x17\xa7\xcd\xeaJ\xc0E\x1d\xc4\xe56OG\xc0'
tbag1008
(g1009
(I0
tS'b'
tRp1125
(I1
(I2
tg1012
I00
S'\xc0\xea\xd0\x97\xaf\xfa\xf4?\x12\xa1\x0b\x01~\xefF@'
tbag1008
(g1009
(I0
tS'b'
tRp1126
(I1
(I2
tg1012
I00
S'(\x93\x988\xc3\xca/@>\xd4\xf3\x9ak\x8aE@'
tbag1008
(g1009
(I0
tS'b'
tRp1127
(I1
(I2
tg1012
I00
S'\x00\xa7\x00\x1c\xc1\xa1\xf4?\xd8y\xd8\xb1\x15\xa4,\xc0'
tbag1008
(g1009
(I0
tS'b'
tRp1128
(I1
(I2
tg1012
I00
S'(\xa4\xa00M"C@Z\xc1\xae\xad^\x94F\xc0'
tbag1008
(g1009
(I0
tS'b'
tRp1129
(I1
(I2
tg1012
I00
S'\x9d\x93\x8c\x98\x1a\xd0K\xc0\xda\xa2\xae\xb2\x04\x8eF\xc0'
tbag1008
(g1009
(I0
tS'b'
tRp1130
(I1
(I2
tg1012
I00
S'\xe0\x7f\xb28\x987\x18@D\x80\x1a\x05\xf3BA@'
tbag1008
(g1009
(I0
tS'b'
tRp1131
(I1
(I2
tg1012
I00
S'\\>\xbd\x85\xf7\x1cE\xc0nP\xce\x10*+G\xc0'
tbag1008
(g1009
(I0
tS'b'
tRp1132
(I1
(I2
tg1012
I00
S'v\x8a&\xff(DF\xc0\x0c@M\n\x8b]:\xc0'
tbag1008
(g1009
(I0
tS'b'
tRp1133
(I1
(I2
tg1012
I00
S'\xe0\xe4Pgu\xa2+@\xb6\x0b[\xf4\xf2\x871\xc0'
tbag1008
(g1009
(I0
tS'b'
tRp1134
(I1
(I2
tg1012
I00
S',\x94\xe0\xf1f\xf1<\xc0\xefg\xa7\xcf_\xecF\xc0'
tbag1008
(g1009
(I0
tS'b'
tRp1135
(I1
(I2
tg1012
I00
S'@t\x1eW&\xe1\xf2?\xd4&\xc7I"\xf41\xc0'
tbag1008
(g1009
(I0
tS'b'
tRp1136
(I1
(I2
tg1012
I00
S'\\\xa8r\xc5\x86\xab!\xc0Hm\xb5-\xf7<\x17\xc0'
tbag1008
(g1009
(I0
tS'b'
tRp1137
(I1
(I2
tg1012
I00
S'\xe4\xcb\xc1l/jJ\xc0\x1c\x05"|3\xc6G\xc0'
tbag1008
(g1009
(I0
tS'b'
tRp1138
(I1
(I2
tg1012
I00
S'\x082,\xeeFIF@\xddBX\x8d\xdc\xcaD\xc0'
tbag1008
(g1009
(I0
tS'b'
tRp1139
(I1
(I2
tg1012
I00
S'\xd8\xe0\x8e\xccf\xfe\x1b\xc0\x98\xfe\x93\xa4K\xa05@'
tbag1008
(g1009
(I0
tS'b'
tRp1140
(I1
(I2
tg1012
I00
S'||b\xb9\xea&G@\x1a:ih\xdaxH\xc0'
tbag1008
(g1009
(I0
tS'b'
tRp1141
(I1
(I2
tg1012
I00
S'\x14Q`\x04A\xb6 \xc0S\x9a\xf1O\xb0\xd5@\xc0'
tbag1008
(g1009
(I0
tS'b'
tRp1142
(I1
(I2
tg1012
I00
S'\xc02\x17O\xacz\n@\xe0\x91|T\xac\x04\x00@'
tbag1008
(g1009
(I0
tS'b'
tRp1143
(I1
(I2
tg1012
I00
S'\x18\x1aa\x96\xcf\xd6\x11\xc0\xa0~\xd1\xff\xbde\x1a@'
tbag1008
(g1009
(I0
tS'b'
tRp1144
(I1
(I2
tg1012
I00
S'\xccyL\x83\x98\xc6J@\xb3\x8f\xe8\xc5\xf1\xf0J\xc0'
tbag1008
(g1009
(I0
tS'b'
tRp1145
(I1
(I2
tg1012
I00
S'4\xa4W.!L3\xc0H\xb7%\xda\xdf\x10D\xc0'
tbag1008
(g1009
(I0
tS'b'
tRp1146
(I1
(I2
tg1012
I00
S'\xc0\xf8\xd6,\xb5BM@\xa6\x06\x12=\xdcR<\xc0'
tbag1008
(g1009
(I0
tS'b'
tRp1147
(I1
(I2
tg1012
I00
S'\xd8\xba\x16\xefE\xdb3@b7[u\xd1DA\xc0'
tbag1008
(g1009
(I0
tS'b'
tRp1148
(I1
(I2
tg1012
I00
S'\xe6\xa1\xb5\xc9qsK@\x16\x90\x084\xca\xe4G\xc0'
tbag1008
(g1009
(I0
tS'b'
tRp1149
(I1
(I2
tg1012
I00
S'\\CFFe\xa82@\x1c\xdf6h\xb0\x15>@'
tbag1008
(g1009
(I0
tS'b'
tRp1150
(I1
(I2
tg1012
I00
S'P\x8b\xedI$\xd0%\xc07\xa2\xd3\xb2(\x7fJ\xc0'
tbag1008
(g1009
(I0
tS'b'
tRp1151
(I1
(I2
tg1012
I00
S'\x04\xd2C\x10\xdc\x8fA@\x1c/\xe5-\tzD\xc0'
tbag1008
(g1009
(I0
tS'b'
tRp1152
(I1
(I2
tg1012
I00
S'\xf0\xfbP$\xd2\x98\x10@\t\x81\xe0\x9d$\xd2A\xc0'
tbag1008
(g1009
(I0
tS'b'
tRp1153
(I1
(I2
tg1012
I00
S'\xd8\x07\xae\x04\xa1\x13\x13\xc0\xa0\x90m\xaa\xd2\xa0\x0c\xc0'
tbag1008
(g1009
(I0
tS'b'
tRp1154
(I1
(I2
tg1012
I00
S'\xe0\x82B|\xb5m\x01@\xae\x15\xc3\xceV/B@'
tbag1008
(g1009
(I0
tS'b'
tRp1155
(I1
(I2
tg1012
I00
S'~N\xe7\x7f\xee46\xc0\x9c\xc0>c\n\xc0C\xc0'
tbag1008
(g1009
(I0
tS'b'
tRp1156
(I1
(I2
tg1012
I00
S'\xed6\xae\n\x82\xb7F\xc0\xb4\x08\xbf\xbdQ\x95@\xc0'
tbag1008
(g1009
(I0
tS'b'
tRp1157
(I1
(I2
tg1012
I00
S'\xd0\x85K%\x9d(\x10@\xa2i\xffEh\x94A@'
tbag1008
(g1009
(I0
tS'b'
tRp1158
(I1
(I2
tg1012
I00
S'x\xa1\xd3C\x14*#@\x9b\xc74\x9b\xae\x15<\xc0'
tbag1008
(g1009
(I0
tS'b'
tRp1159
(I1
(I2
tg1012
I00
S'x\x04\x9f\x1c\\%)@\xe8c\xaa\xd7\x10w\x15\xc0'
tbag1008
(g1009
(I0
tS'b'
tRp1160
(I1
(I2
tg1012
I00
S'\xa0\xa0\xc6\x19\x9c\xb86@\x96\xbb\x1f6\x8d\xdaG\xc0'
tbag1008
(g1009
(I0
tS'b'
tRp1161
(I1
(I2
tg1012
I00
S'\xd2\xf8\rc`\x8b1\xc0J\xc9HJ\x90\x8bG\xc0'
tbag1008
(g1009
(I0
tS'b'
tRp1162
(I1
(I2
tg1012
I00
S'\xe0\x85\xd6n\x13\xed\x1c@\xa8C\x01\x1fR\xedL@'
tbag1008
(g1009
(I0
tS'b'
tRp1163
(I1
(I2
tg1012
I00
S'\xe0M\xcd\xd7\xaf#\r\xc0f\x03\x98\xf2\x12HG@'
tbag1008
(g1009
(I0
tS'b'
tRp1164
(I1
(I2
tg1012
I00
S' \x92\xeeRY\xb3\x10\xc0\xe4\xb1\xe6\xb3\x80u0@'
tbag1008
(g1009
(I0
tS'b'
tRp1165
(I1
(I2
tg1012
I00
S'\xe0\xd2CU\x82\x8f\x1b@,\x81\x11\x84\x9bK6\xc0'
tbag1008
(g1009
(I0
tS'b'
tRp1166
(I1
(I2
tg1012
I00
S'\x10\x0f]\xae\x93(J@\x10\x06]o\x11\xf5=\xc0'
tbag1008
(g1009
(I0
tS'b'
tRp1167
(I1
(I2
tg1012
I00
S'\xc03\xe8\x9e3\x84D\xc0"\xf0\x03dUg@\xc0'
tbag1008
(g1009
(I0
tS'b'
tRp1168
(I1
(I2
tg1012
I00
S'`G\xea\xa5 \x02\x1a\xc0\x86\x8dU$\xb2\xc5J@'
tbag1008
(g1009
(I0
tS'b'
tRp1169
(I1
(I2
tg1012
I00
S'\xf8\x87ZX\x0c\x02 \xc0\x88\xbaS\xe3\xbbOJ\xc0'
tbag1008
(g1009
(I0
tS'b'
tRp1170
(I1
(I2
tg1012
I00
S"\x08\x90\xc0}\xed'#@ BS\xa8\xc3H1@"
tbag1008
(g1009
(I0
tS'b'
tRp1171
(I1
(I2
tg1012
I00
S'Ha\xe4\xecG\xd4&@\xf7-\xb9\x9f\x08\xf9H\xc0'
tbag1008
(g1009
(I0
tS'b'
tRp1172
(I1
(I2
tg1012
I00
S'\x98!\x13E\xbd\x1e.@\xb8\xc6s\xc9K\x948\xc0'
tbag1008
(g1009
(I0
tS'b'
tRp1173
(I1
(I2
tg1012
I00
S'D\n\x87\x0fS\xedA\xc0|\xca\xd9\x944m=\xc0'
tbag1008
(g1009
(I0
tS'b'
tRp1174
(I1
(I2
tg1012
I00
S'F\x16\x1fi\x10\xd8A@\xc8\xacu\x14O\xb9B\xc0'
tbag1008
(g1009
(I0
tS'b'
tRp1175
(I1
(I2
tg1012
I00
S'\x00\xb4|3E\x8e\xd3\xbf^V$\x06\xb5qK@'
tbag1008
(g1009
(I0
tS'b'
tRp1176
(I1
(I2
tg1012
I00
S'x\xcct\x88\xe2\x8e%@\xac\xfe\x11\xa0\xcf\x7f4@'
tbag1008
(g1009
(I0
tS'b'
tRp1177
(I1
(I2
tg1012
I00
S'\xe0\x1d\xf9\x08b\xe3\x1d@\xa0y\xde\xccY\xf4\x11@'
tbag1008
(g1009
(I0
tS'b'
tRp1178
(I1
(I2
tg1012
I00
S'\xc0\x17\xcb\xfa\xcd?5\xc0\t\xe8\xaf!\x82\xaeG\xc0'
tbag1008
(g1009
(I0
tS'b'
tRp1179
(I1
(I2
tg1012
I00
S'\xc07]\x14\xf7\x86\xe1\xbf\x14J8;|\x9e8@'
tbag1008
(g1009
(I0
tS'b'
tRp1180
(I1
(I2
tg1012
I00
S'\xc9Q?\x92\x07\x06I\xc0\x82\xb0\xdb\xd3\x82\xf4F\xc0'
tbag1008
(g1009
(I0
tS'b'
tRp1181
(I1
(I2
tg1012
I00
S'\x1c\xe0e\xd7t\xd8A@\x1c\x1c\t\x91\xc0\xedA\xc0'
tbag1008
(g1009
(I0
tS'b'
tRp1182
(I1
(I2
tg1012
I00
S'@\x8a\x1e\xdd\xc7\xbc\xf0?\xec\x9d+\xe0\x8dZ;@'
tbag1008
(g1009
(I0
tS'b'
tRp1183
(I1
(I2
tg1012
I00
S'\x14\x17\xd7Y \x88G\xc0\xdeD\x01\x1b\xb9\xd3I\xc0'
tbag1008
(g1009
(I0
tS'b'
tRp1184
(I1
(I2
tg1012
I00
S'\x94M5\xdfd\xbf+\xc0\xddv8H\x18\x89E\xc0'
tbag1008
(g1009
(I0
tS'b'
tRp1185
(I1
(I2
tg1012
I00
S'\xe0\xfa\xf20Z\x92\xf8\xbf\xac\xaf\x18\x18M\xd34@'
tbag1008
(g1009
(I0
tS'b'
tRp1186
(I1
(I2
tg1012
I00
S'\x88\xcd\x11\n\xf2\xcc"@\x8a\xe6c\xf6\xfe`L@'
tbag1008
(g1009
(I0
tS'b'
tRp1187
(I1
(I2
tg1012
I00
S'\x00\x97\xd02@\xe1H@!\xaf%\x80\xf8\x97I\xc0'
tbag1008
(g1009
(I0
tS'b'
tRp1188
(I1
(I2
tg1012
I00
S'XZ\xe8\xd4\xad9\x10\xc0\xa2a\x1d\xc1t\xaaE@'
tbag1008
(g1009
(I0
tS'b'
tRp1189
(I1
(I2
tg1012
I00
S'0\xd8~\xa4\xb6\x85$@9\x8c9\x97\xf6\xd8B\xc0'
tbag1008
(g1009
(I0
tS'b'
tRp1190
(I1
(I2
tg1012
I00
S'\xb8\x9bh\x0f\xaer2\xc0\xdb\xb6V\xc9s_E\xc0'
tbag1008
(g1009
(I0
tS'b'
tRp1191
(I1
(I2
tg1012
I00
S'\x08M*\x1d \xc6"@`\xd7\tPA\xa5\x05\xc0'
tbag1008
(g1009
(I0
tS'b'
tRp1192
(I1
(I2
tg1012
I00
S'vK+nw<H\xc0\xc8\xa0\xd5v[cA\xc0'
tbag1008
(g1009
(I0
tS'b'
tRp1193
(I1
(I2
tg1012
I00
S'\xd4q\x9fF\xea\x8dH\xc04?\xf8\x13\xc9)@\xc0'
tbag1008
(g1009
(I0
tS'b'
tRp1194
(I1
(I2
tg1012
I00
S',\xd5\xd6\x16\x02\xc91@\x13\xc4QP\xc2$<\xc0'
tbag1008
(g1009
(I0
tS'b'
tRp1195
(I1
(I2
tg1012
I00
S'R\x9d\x07\xbf\xfd\x1cL@\x05\xa9-,\xd2\xf3G\xc0'
tbag1008
(g1009
(I0
tS'b'
tRp1196
(I1
(I2
tg1012
I00
S'\x00%\x90\xe1\xbfv\xd5\xbf\x10\x02\xb0\xdar\xd3\x1f@'
tbag1008
(g1009
(I0
tS'b'
tRp1197
(I1
(I2
tg1012
I00
S'\xa0(\x90\x94\xd3E!\xc0\xe6;\xb8\xfcu^H@'
tbag1008
(g1009
(I0
tS'b'
tRp1198
(I1
(I2
tg1012
I00
S'|\xff\x1c\xf2F\xc8C\xc0\x00\x92\xf0c\x9d\xe7D\xc0'
tbag1008
(g1009
(I0
tS'b'
tRp1199
(I1
(I2
tg1012
I00
S'P\xdeq\xffc%+@d\xb8#\xce\xb4\x1c5\xc0'
tbag1008
(g1009
(I0
tS'b'
tRp1200
(I1
(I2
tg1012
I00
S'\xf5\x9c\xd4\xc9\x1b\x8fG\xc0P1s\x1a\x94\xd1J\xc0'
tbag1008
(g1009
(I0
tS'b'
tRp1201
(I1
(I2
tg1012
I00
S'`\xb5en\xf0\x19\x1e@\x9eK|\xc6\xaf\x94D@'
tbag1008
(g1009
(I0
tS'b'
tRp1202
(I1
(I2
tg1012
I00
S"\xa0\xc7\x9a\x13\x04'\xf6?\x0e\x1cB3\xe7{@\xc0"
tbag1008
(g1009
(I0
tS'b'
tRp1203
(I1
(I2
tg1012
I00
S'`7\xf1\xa6\xb5\x11,@l\tZV\xdf\xc2!\xc0'
tbag1008
(g1009
(I0
tS'b'
tRp1204
(I1
(I2
tg1012
I00
S'\xc0\xa5\xe44\xa2\x98\x12@`\xcf\x18\xc0E\x1b\xfe?'
tbag1008
(g1009
(I0
tS'b'
tRp1205
(I1
(I2
tg1012
I00
S'\xb0\x94\xe6Ik\xc6\x1e\xc0\x8e\x97\x8c\xf1\r?2\xc0'
tbag1008
(g1009
(I0
tS'b'
tRp1206
(I1
(I2
tg1012
I00
S"(\xa24\x14\xb1\x118@'\xb0+\xa1c]A\xc0"
tbag1008
(g1009
(I0
tS'b'
tRp1207
(I1
(I2
tg1012
I00
S"0\x9eI\x1a\xff\xe0'@\xd0l3N@\x04%\xc0"
tbag1008
(g1009
(I0
tS'b'
tRp1208
(I1
(I2
tg1012
I00
S'\x00\x11\xca\x1c \x81\x19@\x92\xcf\xbab\xae<B\xc0'
tbag1008
(g1009
(I0
tS'b'
tRp1209
(I1
(I2
tg1012
I00
S' S&\xf1\x0e\xaf\xf1\xbf\x80m\xd8{i\xc8\x10\xc0'
tbag1008
(g1009
(I0
tS'b'
tRp1210
(I1
(I2
tg1012
I00
S'\xc4w\xae\x97\xab\x11K@t\x84\x9a\xc1\nv@\xc0'
tbag1008
(g1009
(I0
tS'b'
tRp1211
(I1
(I2
tg1012
I00
S'0\xbe\x02\x85\xb3\xd2/@\x96\x17\xba\xba\xe0\xeeC@'
tbag1008
(g1009
(I0
tS'b'
tRp1212
(I1
(I2
tg1012
I00
S'd\x01[$\x14[2@b|\x84\xbc\xd5\x18G\xc0'
tbag1008
(g1009
(I0
tS'b'
tRp1213
(I1
(I2
tg1012
I00
S'q\x98b\x80\x08\x08B\xc0H\x7f\x1f\xa7\xfbt@\xc0'
tbag1008
(g1009
(I0
tS'b'
tRp1214
(I1
(I2
tg1012
I00
S'\x00\xdd\xfb*\xf0\x12\xf4?\xb2h\xa8\x99\xea92\xc0'
tbag1008
(g1009
(I0
tS'b'
tRp1215
(I1
(I2
tg1012
I00
S'\xbc\xfa\xbd\x7f\xd9\xe8I\xc0Vb%\xc0\x14\x15:\xc0'
tbag1008
(g1009
(I0
tS'b'
tRp1216
(I1
(I2
tg1012
I00
S'P\n\x8e\x80\x1c\xed!@\x1f\xd8q\xad\xa1-H\xc0'
tbag1008
(g1009
(I0
tS'b'
tRp1217
(I1
(I2
tg1012
I00
S'v/\xa0\xb4\x8b\xb8J@\xe1\xea\xd8\x85\xfc|B\xc0'
tbag1008
(g1009
(I0
tS'b'
tRp1218
(I1
(I2
tg1012
I00
S'4xE\x13\xc6A5\xc0\xf3\xc9~\x0b`\x07E\xc0'
tbag1008
(g1009
(I0
tS'b'
tRp1219
(I1
(I2
tg1012
I00
S'\xf6\xdd\xd0\xd82\x85=\xc0\x00\x85Bl\xfb.F\xc0'
tbag1008
(g1009
(I0
tS'b'
tRp1220
(I1
(I2
tg1012
I00
S'\x10\x9d\xc2>P\xa1\x12\xc0\x96\xd8\xd5J2\xa2K@'
tbag1008
(g1009
(I0
tS'b'
tRp1221
(I1
(I2
tg1012
I00
S'\x04\xa5(\x0b]\x8f!\xc0\xe0\xfe\xcfSL6\x01\xc0'
tbag1008
(g1009
(I0
tS'b'
tRp1222
(I1
(I2
tg1012
I00
S' \xfd{x\x10\xa7\x1c\xc0\xbc\xfd\xc3\xd1l\rB\xc0'
tbag1008
(g1009
(I0
tS'b'
tRp1223
(I1
(I2
tg1012
I00
S'\x12o\xa5B\xfeb:\xc0H>\xe2\xb8\xdb\xd4:\xc0'
tbag1008
(g1009
(I0
tS'b'
tRp1224
(I1
(I2
tg1012
I00
S"\x00\x05\x99[!N'@=\xfa]g\xdcnB\xc0"
tbag1008
(g1009
(I0
tS'b'
tRp1225
(I1
(I2
tg1012
I00
S'\xfcO\xb8t\xa1\xce5\xc0H\x11\x01\x12\xcf`@\xc0'
tbag1008
(g1009
(I0
tS'b'
tRp1226
(I1
(I2
tg1012
I00
S'w5t9f\xdeC\xc0\x0b\xa8\xe7Sm\xc0D\xc0'
tbag1008
(g1009
(I0
tS'b'
tRp1227
(I1
(I2
tg1012
I00
S'L`X\x9aD_0@\x94\xf1T\x1c\xb7\x980@'
tbag1008
(g1009
(I0
tS'b'
tRp1228
(I1
(I2
tg1012
I00
S'\x98j\x8e#\xb2y @\xba"1\xe1aKJ\xc0'
tbag1008
(g1009
(I0
tS'b'
tRp1229
(I1
(I2
tg1012
I00
S'p\x03\x84\xdb~\xc8\x06\xc0\x0e}\xc7\x7f\x1f68\xc0'
tbag1008
(g1009
(I0
tS'b'
tRp1230
(I1
(I2
tg1012
I00
S'\xc0(\x11\x86\x16\xe8\x14@\xe6Z\xaf\xfc\x8f\x1dB@'
tbag1008
(g1009
(I0
tS'b'
tRp1231
(I1
(I2
tg1012
I00
S'p\xc1w\xc3\xc0\xe1\x00\xc0\x90"\x8aZ\xb0t#@'
tbag1008
(g1009
(I0
tS'b'
tRp1232
(I1
(I2
tg1012
I00
S'\x00\x01\x94\x87\xdb\t*\xc0Z\x8405\x83\xa7B\xc0'
tbag1008
(g1009
(I0
tS'b'
tRp1233
(I1
(I2
tg1012
I00
S'hvn\x15Hg/@P\xacO\x94\x83\xc9)@'
tbag1008
(g1009
(I0
tS'b'
tRp1234
(I1
(I2
tg1012
I00
S'\x9c\x8a \xef\xd5ZM@\x11\x18L\xdd)YG\xc0'
tbag1008
(g1009
(I0
tS'b'
tRp1235
(I1
(I2
tg1012
I00
S' H\x82\xadK\x88 @$\xf8fzE\xbf<@'
tbag1008
(g1009
(I0
tS'b'
tRp1236
(I1
(I2
tg1012
I00
S'84\xcf#d\xac>@$\xf6Bh\x85\xd9A\xc0'
tbag1008
(g1009
(I0
tS'b'
tRp1237
(I1
(I2
tg1012
I00
S'@x[:\x0e\xda @\x90\xd0\x0c%w\xff/@'
tbag1008
(g1009
(I0
tS'b'
tRp1238
(I1
(I2
tg1012
I00
S'\xd0\x14\x0f\xb7\x06\xc1B\xc0$iS\xc2\xb8\xea;\xc0'
tbag1008
(g1009
(I0
tS'b'
tRp1239
(I1
(I2
tg1012
I00
S"\x18\x08]Z\x948'@\xd8\x18MU+p\x1d\xc0"
tbag1008
(g1009
(I0
tS'b'
tRp1240
(I1
(I2
tg1012
I00
S'\x80\x14\xbb\x10pd\xee?\x9alm\xc7\x00\x85G\xc0'
tbag1008
(g1009
(I0
tS'b'
tRp1241
(I1
(I2
tg1012
I00
S"0{\x80\xe1\xf72*@@\xd2\x90\xe7\xdf\xa0'@"
tbag1008
(g1009
(I0
tS'b'
tRp1242
(I1
(I2
tg1012
I00
S"vJ\xd9\x14'\x9d<\xc0&hjZm2F\xc0"
tbag1008
(g1009
(I0
tS'b'
tRp1243
(I1
(I2
tg1012
I00
S'vq\xc9\xcas\xbd6\xc0 B<NhU=\xc0'
tbag1008
(g1009
(I0
tS'b'
tRp1244
(I1
(I2
tg1012
I00
S'|2q\x9d\xd2@6@2\x88\x01#d\xdcF\xc0'
tbag1008
(g1009
(I0
tS'b'
tRp1245
(I1
(I2
tg1012
I00
S'\xe0_\xb4\x95\xe2\x182\xc0\rw\xfe\x8eK+@\xc0'
tbag1008
(g1009
(I0
tS'b'
tRp1246
(I1
(I2
tg1012
I00
S'\x04~\xa15\x99\xd6 \xc0p.\xce\x13\xf5v)@'
tbag1008
(g1009
(I0
tS'b'
tRp1247
(I1
(I2
tg1012
I00
S'\xc0\x8d16\x0f\xea\xed?p\xd4X\xf9\x06\xce\x0b@'
tbag1008
(g1009
(I0
tS'b'
tRp1248
(I1
(I2
tg1012
I00
S'\xea\x15\xccs-\xe5@\xc0\x18Dx\xa1\x0cc9\xc0'
tbag1008
(g1009
(I0
tS'b'
tRp1249
(I1
(I2
tg1012
I00
S'\x88G\x1f\x98\x11o!@\x98\xa2D6\xf0$%\xc0'
tbag1008
(g1009
(I0
tS'b'
tRp1250
(I1
(I2
tg1012
I00
S'\xf0\xa0\xef\xad\xec0)@\x8a\x03\x0b\xf9R\xedD\xc0'
tbag1008
(g1009
(I0
tS'b'
tRp1251
(I1
(I2
tg1012
I00
S"\xeap,c\xe4]D@|\x89\x00\xc7'FD\xc0"
tbag1008
(g1009
(I0
tS'b'
tRp1252
(I1
(I2
tg1012
I00
S'\xb6n\x11\xc4\xcf\x1dB\xc0@K\xe2\x1f\x1d\xa0G\xc0'
tbag1008
(g1009
(I0
tS'b'
tRp1253
(I1
(I2
tg1012
I00
S'\x14{\x0b\x12S}0@\xc0\xd9\xdb<\x9aZ\x1c\xc0'
tbag1008
(g1009
(I0
tS'b'
tRp1254
(I1
(I2
tg1012
I00
S'\x90\xe5\x9d\\z\x8cM@f\x89\xb3\x88@aB\xc0'
tbag1008
(g1009
(I0
tS'b'
tRp1255
(I1
(I2
tg1012
I00
S' \x06\xad\x07\xce\xc0\x06\xc00\x8f\x00\xaa\x04\x8f\x1e@'
tbag1008
(g1009
(I0
tS'b'
tRp1256
(I1
(I2
tg1012
I00
S'PBYT\x17\xf5&\xc0\xe0Q>\x94m\x1eI\xc0'
tbag1008
(g1009
(I0
tS'b'
tRp1257
(I1
(I2
tg1012
I00
S'\xc0R=\xbd\x97(\xeb?\xf6}\x97L\x12zG@'
tbag1008
(g1009
(I0
tS'b'
tRp1258
(I1
(I2
tg1012
I00
S'\x9b\xba\x07r\xb8\xcfL\xc0\x0c\x1f?\x01\xf3j?\xc0'
tbag1008
(g1009
(I0
tS'b'
tRp1259
(I1
(I2
tg1012
I00
S'\x10\xb4\xba8\xc3."@\x8e\xb8\xf3\x99(\xc3J\xc0'
tbag1008
(g1009
(I0
tS'b'
tRp1260
(I1
(I2
tg1012
I00
S'l\xcf<\x0f<\x18,\xc0<\xe5\xb9D\x8a\xbfB\xc0'
tbag1008
(g1009
(I0
tS'b'
tRp1261
(I1
(I2
tg1012
I00
S"\x88\xeb\xdef\x7f\x0f'@X4;\r\x9bIJ@"
tbag1008
(g1009
(I0
tS'b'
tRp1262
(I1
(I2
tg1012
I00
S"8f\x19\xac\x90\xa8'@\x10[\xed\xf1\xf6ED\xc0"
tbag1008
(g1009
(I0
tS'b'
tRp1263
(I1
(I2
tg1012
I00
S'\xad\x8c\xb2\xfb\xe9\xf2A\xc0\xa0\xc4\x8f\xf1qe9\xc0'
tbag1008
(g1009
(I0
tS'b'
tRp1264
(I1
(I2
tg1012
I00
S'\x1f\x89\xf9\x91\xa7\x7f=\xc0.\x10\xde\x0e\xce\x03J\xc0'
tbag1008
(g1009
(I0
tS'b'
tRp1265
(I1
(I2
tg1012
I00
S'hNi\xa0\x92\x161@\x14\xd9\xaa\x89\xc2\xc8,\xc0'
tbag1008
(g1009
(I0
tS'b'
tRp1266
(I1
(I2
tg1012
I00
S'\xe0\xf3\xff\xa6\x8a\xc8\xf3?\xc69 L\xc83B\xc0'
tbag1008
(g1009
(I0
tS'b'
tRp1267
(I1
(I2
tg1012
I00
S'\xb0\xe2\xdd\xaa\xf4\xe6\x1a\xc0xF\xe7\x8bz\xe7G\xc0'
tbag1008
(g1009
(I0
tS'b'
tRp1268
(I1
(I2
tg1012
I00
S'p\xd75\xa8\x8a\x9cF@\xb3\x88\xa9GV\x95?\xc0'
tbag1008
(g1009
(I0
tS'b'
tRp1269
(I1
(I2
tg1012
I00
S'\xf8\xd1$\x9d\xf1\xd2>@\xcf\xec\xd2\xaa\xf1\xaeD\xc0'
tbag1008
(g1009
(I0
tS'b'
tRp1270
(I1
(I2
tg1012
I00
S"\x90\x04\x96\xcd\x95\xa1\x1f@`\x017'=\xd5\x16@"
tbag1008
(g1009
(I0
tS'b'
tRp1271
(I1
(I2
tg1012
I00
S'\xf4\xd8W\xfa_DM@H1XF7\x86?\xc0'
tbag1008
(g1009
(I0
tS'b'
tRp1272
(I1
(I2
tg1012
I00
S' \xe9j}\xb7\xc12@`T\x0c\x94\x91e\x0b@'
tbag1008
(g1009
(I0
tS'b'
tRp1273
(I1
(I2
tg1012
I00
S'\xa0E\x93\xe6\xfa)H@P3\x0b\x97\x83\x0bC\xc0'
tbag1008
(g1009
(I0
tS'b'
tRp1274
(I1
(I2
tg1012
I00
S'd\x1fS\xeaT?;@\x171[\xc1\xa2<H\xc0'
tbag1008
(g1009
(I0
tS'b'
tRp1275
(I1
(I2
tg1012
I00
S'\x90\xe8Ud\xf6O.@j_G\xb5MKA\xc0'
tbag1008
(g1009
(I0
tS'b'
tRp1276
(I1
(I2
tg1012
I00
S'@\xde{\x0f-8\n@\x08x\xd2s\xa1e9@'
tbag1008
(g1009
(I0
tS'b'
tRp1277
(I1
(I2
tg1012
I00
S'k\xf7\xccuH\xa3D\xc0\x01\xd2u\xaf\x01JH\xc0'
tbag1008
(g1009
(I0
tS'b'
tRp1278
(I1
(I2
tg1012
I00
S'@e\xb9\x1f\xcf\xcb\x1d@\x8a\xc2\x10\x84\x1fk7\xc0'
tbag1008
(g1009
(I0
tS'b'
tRp1279
(I1
(I2
tg1012
I00
S'\xdc\x99\xc3\x1a\xc7xC@.\xb1\x82\x98Y\x7f:\xc0'
tbag1008
(g1009
(I0
tS'b'
tRp1280
(I1
(I2
tg1012
I00
S'\xa4\xa2/\xad\x14\xc5!\xc0\xcc\xf7T\xb5\x1e\xf8<@'
tbag1008
(g1009
(I0
tS'b'
tRp1281
(I1
(I2
tg1012
I00
S'P\x01\xd0\xd8\xda"E\xc0\xfc\x0bk,\xd7lE\xc0'
tbag1008
(g1009
(I0
tS'b'
tRp1282
(I1
(I2
tg1012
I00
S'\xd8,\xd2<\x18R\x17\xc0L\xfae\xf0\xe5\xe0?@'
tbag1008
(g1009
(I0
tS'b'
tRp1283
(I1
(I2
tg1012
I00
S'\xde#}\xe2\xbelG@0\xe5\xba\x8d=\x1aD\xc0'
tbag1008
(g1009
(I0
tS'b'
tRp1284
(I1
(I2
tg1012
I00
S'\x08A\xf7\xe3\xa2}\x18\xc0\x18\xf5\x0b\x81\xe2\xcd3@'
tbag1008
(g1009
(I0
tS'b'
tRp1285
(I1
(I2
tg1012
I00
S'\x10\r\x03t\x83\xf7\x18@\x1aS\xf8\x07]2E@'
tbag1008
(g1009
(I0
tS'b'
tRp1286
(I1
(I2
tg1012
I00
S'\xd0\x13\x82P\x16\xb7\x0f\xc0\xb8V\x99\xa8\xa2;D@'
tbag1008
(g1009
(I0
tS'b'
tRp1287
(I1
(I2
tg1012
I00
S'`\x0c\xcdFU\xda\x17@\xd0Q\x86f\xe2\x17\x0e@'
tbag1008
(g1009
(I0
tS'b'
tRp1288
(I1
(I2
tg1012
I00
S'\x00\xd5#\xe0I=.@V\x9a\xfe\xd2\x83iD\xc0'
tbag1008
(g1009
(I0
tS'b'
tRp1289
(I1
(I2
tg1012
I00
S'\xb0\x14\xa9\x8eZ\x17*@\x81Q\x9a)1\xf8@\xc0'
tbag1008
(g1009
(I0
tS'b'
tRp1290
(I1
(I2
tg1012
I00
S'\xc8P\x15\x85\xfeg2@t\x8a\xe4\xf4SfG\xc0'
tbag1008
(g1009
(I0
tS'b'
tRp1291
(I1
(I2
tg1012
I00
S'\xb00\x03\xa4[H\x1f@Hz\xfc\x86\xe9\xc61@'
tbag1008
(g1009
(I0
tS'b'
tRp1292
(I1
(I2
tg1012
I00
S'\x88\x94\x07Y\xd5\x99&@\\|V\x88\xca}@@'
tbag1008
(g1009
(I0
tS'b'
tRp1293
(I1
(I2
tg1012
I00
S'X\x85\xb8S!\xaa<@\xef\xd6\x83t\x9a\xbfJ\xc0'
tbag1008
(g1009
(I0
tS'b'
tRp1294
(I1
(I2
tg1012
I00
S'Z\xeb\xf6\x99\r\xdb@@\xa15\xd2)xlG\xc0'
tbag1008
(g1009
(I0
tS'b'
tRp1295
(I1
(I2
tg1012
I00
S'\x18\xc9(\xd0\xa2\xa3C@\xe0\x12~\x03Z\xdfE\xc0'
tbag1008
(g1009
(I0
tS'b'
tRp1296
(I1
(I2
tg1012
I00
S' a\x1a\xd2\xb4\xcb\x14\xc0aT\xc2\xbc\xf9\xbdC\xc0'
tbag1008
(g1009
(I0
tS'b'
tRp1297
(I1
(I2
tg1012
I00
S'\xf0\t\xf1\xeb<\xb9\x11\xc0\x80\xd4X\xd6\xde\xd7\x1d\xc0'
tbag1008
(g1009
(I0
tS'b'
tRp1298
(I1
(I2
tg1012
I00
S'\x80\x10^X\x96r)@\x96]\xa0>\x97mM@'
tbag1008
(g1009
(I0
tS'b'
tRp1299
(I1
(I2
tg1012
I00
S'\xb0\xcbtZwb/@\nyj\xe7KkK@'
tbag1008
(g1009
(I0
tS'b'
tRp1300
(I1
(I2
tg1012
I00
S'``\x00\x05}6\xfa?\xac\xe5\xb4y\xb3\xdaF\xc0'
tbag1008
(g1009
(I0
tS'b'
tRp1301
(I1
(I2
tg1012
I00
S'\xc0YAR\x7f\x99\t@\x88x\xaf\xa0w0=\xc0'
tbag1008
(g1009
(I0
tS'b'
tRp1302
(I1
(I2
tg1012
I00
S'\xbcf\n\xd9\xb5\xc2F@L\xed|\x83\xd6\xf5?\xc0'
tbag1008
(g1009
(I0
tS'b'
tRp1303
(I1
(I2
tg1012
I00
S'\xd0\x05\x02\x06\xcd{)@\x84\\\xd9\x0c\xaa\x1e5@'
tbag1008
(g1009
(I0
tS'b'
tRp1304
(I1
(I2
tg1012
I00
S'\xb8\xa8\xf0 \xd6\xa8&@\x97\xe9\n\xdd2\x8bI\xc0'
tbag1008
(g1009
(I0
tS'b'
tRp1305
(I1
(I2
tg1012
I00
S'<r\xac\xe8b\xf95\xc0Bz\x1b\x97\xa5\x84C\xc0'
tbag1008
(g1009
(I0
tS'b'
tRp1306
(I1
(I2
tg1012
I00
S'\xa0\xd6\xd4LW\x85\x0f\xc0\xb4\xd8DE\\GK@'
tbag1008
(g1009
(I0
tS'b'
tRp1307
(I1
(I2
tg1012
I00
S'\xf4;\xd7\xe3\xe0V0@0\x16s\x96w\xbfI@'
tbag1008
(g1009
(I0
tS'b'
tRp1308
(I1
(I2
tg1012
I00
S'\x80\x19\xdb\xce0\x03\xf0?\xec\t\xa2\x84\x11\xdaJ@'
tbag1008
(g1009
(I0
tS'b'
tRp1309
(I1
(I2
tg1012
I00
S'D4\x86\x8e0\xd15\xc0R\x1dz\x8d\xa9\x08J\xc0'
tbag1008
(g1009
(I0
tS'b'
tRp1310
(I1
(I2
tg1012
I00
S'\x18\xe5G;#\x08#@\x06\xe0\x99\xe0\xe1\x9aI\xc0'
tbag1008
(g1009
(I0
tS'b'
tRp1311
(I1
(I2
tg1012
I00
S'\x92\x17A\x86\x82\x10F@\xcd+\xd1\x9e\xaf\xe2G\xc0'
tbag1008
(g1009
(I0
tS'b'
tRp1312
(I1
(I2
tg1012
I00
S'\xb0iH\x0eE\xe2\x1b@\xfa@\xc82\xec\xfdL@'
tbag1008
(g1009
(I0
tS'b'
tRp1313
(I1
(I2
tg1012
I00
S'\x106\xf0\xc3\x9by#@\xce\t\xf9\xc6\x83\xbfC\xc0'
tbag1008
(g1009
(I0
tS'b'
tRp1314
(I1
(I2
tg1012
I00
S'zh\x9a\xf7\xba\xe4L\xc0\xd6\x81^\xe2s\x1a=\xc0'
tbag1008
(g1009
(I0
tS'b'
tRp1315
(I1
(I2
tg1012
I00
S'\xd0\x0b2\x01\xbd\xe8\x18@38G\xb5\x8b`I\xc0'
tbag1008
(g1009
(I0
tS'b'
tRp1316
(I1
(I2
tg1012
I00
S"\xc8H=A\xc8\xb2+@\xd8\xb7\xff\x17\xd1\x0e'\xc0"
tbag1008
(g1009
(I0
tS'b'
tRp1317
(I1
(I2
tg1012
I00
S'\x88\xdc\x87&6\x011@\xd8\x13\x94\x081%M@'
tbag1008
(g1009
(I0
tS'b'
tRp1318
(I1
(I2
tg1012
I00
S'\xe8\xefc\xd2\x1e\x93,@0\x9d\xa0\xee-\xaa\x0c\xc0'
tbag1008
(g1009
(I0
tS'b'
tRp1319
(I1
(I2
tg1012
I00
S'\x85qN\xae\xc5CB\xc0@M\x16\xc3^\x04J\xc0'
tbag1008
(g1009
(I0
tS'b'
tRp1320
(I1
(I2
tg1012
I00
S't\xa9\xf8\xd5\x97dA@~Q\xfe\xa5\xba\xf8H\xc0'
tbag1008
(g1009
(I0
tS'b'
tRp1321
(I1
(I2
tg1012
I00
S'V\x1e\x1f\xfe\xb7\x86I\xc0N0\xbf\xe6\xa3N@\xc0'
tbag1008
(g1009
(I0
tS'b'
tRp1322
(I1
(I2
tg1012
I00
S't\xabp\xa0C\xacE\xc0d\xbdu\xe4\xe8X@\xc0'
tbag1008
(g1009
(I0
tS'b'
tRp1323
(I1
(I2
tg1012
I00
S' \xdeSfp\xb3-@N\xda\xe1\x88\x1aQC@'
tbag1008
(g1009
(I0
tS'b'
tRp1324
(I1
(I2
tg1012
I00
S'`\x8e&\xdb\x11\xd4@@\xe6\xdb|M\xf2\xbbH\xc0'
tbag1008
(g1009
(I0
tS'b'
tRp1325
(I1
(I2
tg1012
I00
S'nH8\xce\xa3\xbeG\xc0|\xeb(\x15\x01\x9c:\xc0'
tbag1008
(g1009
(I0
tS'b'
tRp1326
(I1
(I2
tg1012
I00
S'\xc8\x83d\xea\xe4?\x11\xc0\x0cn\xb8\xf2\x97\nI@'
tbag1008
(g1009
(I0
tS'b'
tRp1327
(I1
(I2
tg1012
I00
S'^\xa9]\x0bh\x11H@\x19\xe4\\"\xb0\rC\xc0'
tbag1008
(g1009
(I0
tS'b'
tRp1328
(I1
(I2
tg1012
I00
S'\xf0\xd6\xd9>\xefl!\xc0\xc0)\xb6\xc5\xb9\x0e\x07@'
tbag1008
(g1009
(I0
tS'b'
tRp1329
(I1
(I2
tg1012
I00
S'\x90\xdb\xb0\x11\xc9\xcf3@N\x8d7\xf8\x04+;\xc0'
tbag1008
(g1009
(I0
tS'b'
tRp1330
(I1
(I2
tg1012
I00
S'\x0c\xe4\xb2z\xda\xc42@\x07\x7f\xee\x16\xa1\x97=\xc0'
tbag1008
(g1009
(I0
tS'b'
tRp1331
(I1
(I2
tg1012
I00
S'\xf2\xa7\xff\x89=+6\xc0\xd4\xdc\n\xf5W\x03J\xc0'
tbag1008
(g1009
(I0
tS'b'
tRp1332
(I1
(I2
tg1012
I00
S"X\x88\xcc\xb5\x80\x07'\xc0V:a\xda\xb4\xc29\xc0"
tbag1008
(g1009
(I0
tS'b'
tRp1333
(I1
(I2
tg1012
I00
S'T\xdc\xec\xc3\x9f\x94=@\xfa\x00Kd\xf9\x85@\xc0'
tbag1008
(g1009
(I0
tS'b'
tRp1334
(I1
(I2
tg1012
I00
S'<\xfdV}\xce`C@\xf6LL~goF\xc0'
tbag1008
(g1009
(I0
tS'b'
tRp1335
(I1
(I2
tg1012
I00
S' X\xccta\xea\xf0\xbf\x14A\xf0\xa6e\xe3E\xc0'
tbag1008
(g1009
(I0
tS'b'
tRp1336
(I1
(I2
tg1012
I00
S'\xec\xfa\x0f\xef8/7\xc0\x97G\xf5Q\x87\xca>\xc0'
tbag1008
(g1009
(I0
tS'b'
tRp1337
(I1
(I2
tg1012
I00
S'\xfa\xda\xddw\x16\t4\xc0A C\n\x06cI\xc0'
tbag1008
(g1009
(I0
tS'b'
tRp1338
(I1
(I2
tg1012
I00
S'\x18&\x0b}\xe6:J@\xd6\xda\x877\xd7\x16E\xc0'
tbag1008
(g1009
(I0
tS'b'
tRp1339
(I1
(I2
tg1012
I00
S'|9\xec{\xcfSA@\xdb([du\xe1=\xc0'
tbag1008
(g1009
(I0
tS'b'
tRp1340
(I1
(I2
tg1012
I00
S"\xa0\xd7\x8d\xb1\xd0\xcc2@h.\x17o\xe0#'@"
tbag1008
(g1009
(I0
tS'b'
tRp1341
(I1
(I2
tg1012
I00
S'\xc4B\t9\xa1F#\xc0p59\x0fgsA\xc0'
tbag1008
(g1009
(I0
tS'b'
tRp1342
(I1
(I2
tg1012
I00
S'\x8c\xf0\x13\xfdj\xbd=@\xd0\xc24\xa4\xea\x18B\xc0'
tbag1008
(g1009
(I0
tS'b'
tRp1343
(I1
(I2
tg1012
I00
S'\xfeZh\xb3\xbam;\xc0J\x97!e\x95xH\xc0'
tbag1008
(g1009
(I0
tS'b'
tRp1344
(I1
(I2
tg1012
I00
S'\xc4&\xfa$\xcf\x0c;@H\xab\x07r\x90\x15E\xc0'
tbag1008
(g1009
(I0
tS'b'
tRp1345
(I1
(I2
tg1012
I00
S'\xac\xef\x11\x7f0\xf8:@L\x18\xae\xfc\xe4k<\xc0'
tbag1008
(g1009
(I0
tS'b'
tRp1346
(I1
(I2
tg1012
I00
S'(\rG\xb6E\xb7;\xc0F\x11\xa61y\xd3B\xc0'
tbag1008
(g1009
(I0
tS'b'
tRp1347
(I1
(I2
tg1012
I00
S'|\xce\xdc|xC4@\xc02 \xcd\xee`;\xc0'
tbag1008
(g1009
(I0
tS'b'
tRp1348
(I1
(I2
tg1012
I00
S'%u-kA\x8fL\xc0\x8b\x06\xc4X\xf1L>\xc0'
tbag1008
(g1009
(I0
tS'b'
tRp1349
(I1
(I2
tg1012
I00
S'\xf0\x82\x9e\x17O\xbb2@\xb0\x93,\xb7\xb7K\x03@'
tbag1008
(g1009
(I0
tS'b'
tRp1350
(I1
(I2
tg1012
I00
S'\xe0O\xfc\xab\x81\xce\x0b\xc0\xbc\x10#\xdef\xd7!\xc0'
tbag1008
(g1009
(I0
tS'b'
tRp1351
(I1
(I2
tg1012
I00
S'\xf0+\x0f\xe7\x92h$@\x17i\xe0_\x03HB\xc0'
tbag1008
(g1009
(I0
tS'b'
tRp1352
(I1
(I2
tg1012
I00
S'\xa8\xe7\xd6|\xfa\xf2M@.(t\x1ed\xa6?\xc0'
tbag1008
(g1009
(I0
tS'b'
tRp1353
(I1
(I2
tg1012
I00
S'\xf8;\xee\x90s\x962\xc0*"\xe2V\xe2\xf1E\xc0'
tbag1008
(g1009
(I0
tS'b'
tRp1354
(I1
(I2
tg1012
I00
S'\x88\x9e\x1cU\xf1 #@&\x1c\xfaV\xa5u9\xc0'
tbag1008
(g1009
(I0
tS'b'
tRp1355
(I1
(I2
tg1012
I00
S'\x18D;\xce@s!@\\\x97\xb3>`\x1dI@'
tbag1008
(g1009
(I0
tS'b'
tRp1356
(I1
(I2
tg1012
I00
S'\x10\xa5zS\xc1"3@\xa7<T\xd8\xa5\xcb?\xc0'
tbag1008
(g1009
(I0
tS'b'
tRp1357
(I1
(I2
tg1012
I00
S'\xc0)H\x90\xe0\x82\x17@\x1a\x1b4\x14^\x8aB\xc0'
tbag1008
(g1009
(I0
tS'b'
tRp1358
(I1
(I2
tg1012
I00
S'0*\xe3\x10\xd9C\x03@\xc4\x12\xc1\xd3\x06\xd4@@'
tbag1008
(g1009
(I0
tS'b'
tRp1359
(I1
(I2
tg1012
I00
S'\x80V\xc5j\x95e\xeb\xbf\x80\x08Z\xa2\xf7\x85\x1a\xc0'
tbag1008
(g1009
(I0
tS'b'
tRp1360
(I1
(I2
tg1012
I00
S'@a\x9f\xf5\x9d\xf2\x17\xc0R\xfd\t?c\x9dJ@'
tbag1008
(g1009
(I0
tS'b'
tRp1361
(I1
(I2
tg1012
I00
S':\xbbB\x9e\x06\xb05\xc0\xac\xe7\xc5K\x95\x13G\xc0'
tbag1008
(g1009
(I0
tS'b'
tRp1362
(I1
(I2
tg1012
I00
S'hw\xdb\xd7\xf00@@\xd4\xddF\x86\xfa\x8f?\xc0'
tbag1008
(g1009
(I0
tS'b'
tRp1363
(I1
(I2
tg1012
I00
S'\xc06\xc5H\xb0\x1d\xef\xbf@b \x88YK6@'
tbag1008
(g1009
(I0
tS'b'
tRp1364
(I1
(I2
tg1012
I00
S'\x84+)\xdc\x8a\xa8?@\x82\rd\xbbU\x9cA\xc0'
tbag1008
(g1009
(I0
tS'b'
tRp1365
(I1
(I2
tg1012
I00
S'`\xb3\xcf\xb8\x87=\x01@\xa0Q*M\xb2\x9f\xf3\xbf'
tbag1008
(g1009
(I0
tS'b'
tRp1366
(I1
(I2
tg1012
I00
S'\xf0\xce&\xd4\x10RM@\xbc$\xc0\x8d\xd5;F\xc0'
tbag1008
(g1009
(I0
tS'b'
tRp1367
(I1
(I2
tg1012
I00
S'\x80u\xff\xd6\x8e\xe7\xf4?\x84\x9fT\xcd\x02\xe2F\xc0'
tbag1008
(g1009
(I0
tS'b'
tRp1368
(I1
(I2
tg1012
I00
S'\x00k\xbb"\xddx\x0e@\x08\xafI\x85.\xee6@'
tbag1008
(g1009
(I0
tS'b'
tRp1369
(I1
(I2
tg1012
I00
S"\xc0\xde\x1d\xed8\x8b'@x}!0_\xd33@"
tbag1008
(g1009
(I0
tS'b'
tRp1370
(I1
(I2
tg1012
I00
S'\xf4M\x06\x95\x14\x161@ \xe11\xbb\xbc\xb3\x05@'
tbag1008
(g1009
(I0
tS'b'
tRp1371
(I1
(I2
tg1012
I00
S'@J\x85-\xc6=+@\xe4\xe4\xf5\xc9Gp8@'
tbag1008
(g1009
(I0
tS'b'
tRp1372
(I1
(I2
tg1012
I00
S'\xcc,\xc2\x86HB9@k\xff\xca\x00\x1aNB\xc0'
tbag1008
(g1009
(I0
tS'b'
tRp1373
(I1
(I2
tg1012
I00
S'\xb81F-J\xce0@H\xaf\xbd\xb4\x85`C\xc0'
tbag1008
(g1009
(I0
tS'b'
tRp1374
(I1
(I2
tg1012
I00
S'D[i\x81\xecd5\xc0\x87v"\xf7\xf9\xfeA\xc0'
tbag1008
(g1009
(I0
tS'b'
tRp1375
(I1
(I2
tg1012
I00
S'\x00FO\x1d\xa1:\r@V\xfc.\xca\r\xd3G@'
tbag1008
(g1009
(I0
tS'b'
tRp1376
(I1
(I2
tg1012
I00
S'\x00\xa2_\xec\x0b?\x06@\xd0\xaaM\xe3\xdez1@'
tbag1008
(g1009
(I0
tS'b'
tRp1377
(I1
(I2
tg1012
I00
S't\xc2{\x91\x00\x1aB@\xf2\xd7\xc5\xda\xd8\x08D\xc0'
tbag1008
(g1009
(I0
tS'b'
tRp1378
(I1
(I2
tg1012
I00
S'lC\xae\xa6\x88\xe1"\xc0\t\xcf\x83\xb9\xe4!C\xc0'
tbag1008
(g1009
(I0
tS'b'
tRp1379
(I1
(I2
tg1012
I00
S' \xada\xc9\xbc_\x10@\xb8\xea\xad\x81\x1dL\x11\xc0'
tbag1008
(g1009
(I0
tS'b'
tRp1380
(I1
(I2
tg1012
I00
S'V\xc1\xc4\\\x91\x80A\xc0\xd9\xa7\xf4\xb0\xb4\xc6=\xc0'
tbag1008
(g1009
(I0
tS'b'
tRp1381
(I1
(I2
tg1012
I00
S'\x00\xb8@3S\x1d\xf9?\xdc\x00d\xec\x04\xfeA\xc0'
tbag1008
(g1009
(I0
tS'b'
tRp1382
(I1
(I2
tg1012
I00
S'\x88\x01{q\xd8\x940@6C\xe3\x83\xc1\xfdI\xc0'
tbag1008
(g1009
(I0
tS'b'
tRp1383
(I1
(I2
tg1012
I00
S'\xf00Q\x04C\x86\x16@\x80\x00\x95\xd3\xe2v\xfb?'
tbag1008
(g1009
(I0
tS'b'
tRp1384
(I1
(I2
tg1012
I00
S'\xc0\xd0\x96\x8b\xe4\xf85@\x82\x8c\x03\x1e\xae\xad@\xc0'
tbag1008
(g1009
(I0
tS'b'
tRp1385
(I1
(I2
tg1012
I00
S's\x03\x8b\xecP\xf2=\xc0.6\x19\xf0\x9a\xbbD\xc0'
tbag1008
(g1009
(I0
tS'b'
tRp1386
(I1
(I2
tg1012
I00
S'XW\x8a\xa0\xc6\xacM@\xc75\xed\xc3a\xea?\xc0'
tbag1008
(g1009
(I0
tS'b'
tRp1387
(I1
(I2
tg1012
I00
S'\xac\xa9\xa4\x93\xcf\\J@\n\x8034\x9aVC\xc0'
tbag1008
(g1009
(I0
tS'b'
tRp1388
(I1
(I2
tg1012
I00
S'\x801\x9d\xf9L\xb1:@\x06\x96\x19{\xde\x1cD\xc0'
tbag1008
(g1009
(I0
tS'b'
tRp1389
(I1
(I2
tg1012
I00
S'`cd\x0c}\xfaH@\xaeFZ\xcf\xe5\x13@\xc0'
tbag1008
(g1009
(I0
tS'b'
tRp1390
(I1
(I2
tg1012
I00
S'\xe0\xcc\xec\xcd\x93\xae\x05@\xc8\xd0\xed\x04}\xe1@\xc0'
tbag1008
(g1009
(I0
tS'b'
tRp1391
(I1
(I2
tg1012
I00
S'\xcef\xb3Q\x1e\xd4F\xc0\\!\x06_\x16\x16H\xc0'
tbag1008
(g1009
(I0
tS'b'
tRp1392
(I1
(I2
tg1012
I00
S'T\x15\x82\xd7\xc6\xe2B@\x81\xef\xcf\x12\xad1I\xc0'
tbag1008
(g1009
(I0
tS'b'
tRp1393
(I1
(I2
tg1012
I00
S'`\xbb%\r\x86\xf4\x0c@\xf6\xb8\x13w\xcb\x11D@'
tbag1008
(g1009
(I0
tS'b'
tRp1394
(I1
(I2
tg1012
I00
S'\xc2\x98\xb8R\x12\xa0<\xc0F\xfd\x8f\xf2@\x0eB\xc0'
tbag1008
(g1009
(I0
tS'b'
tRp1395
(I1
(I2
tg1012
I00
S'h\x85`\x7f:G/@\x8f{;\xc1ebF\xc0'
tbag1008
(g1009
(I0
tS'b'
tRp1396
(I1
(I2
tg1012
I00
S'\x80\xca\xc1\x05\xb7\x81\xe7?)\xc5\xf4\xf6\xee|B\xc0'
tbag1008
(g1009
(I0
tS'b'
tRp1397
(I1
(I2
tg1012
I00
S'\x80\xab\xe8X\xef\xdf\x1e@T[\xae\xbd-\xc6H@'
tbag1008
(g1009
(I0
tS'b'
tRp1398
(I1
(I2
tg1012
I00
S'\xe8h\xd3\xd7\xbb\x0f#@\xe8\xf6\xf1\xba\xe8\xfa-@'
tbag1008
(g1009
(I0
tS'b'
tRp1399
(I1
(I2
tg1012
I00
S'0\xb19\xce1\xc6\x12\xc0\\\xc31(\x1b\xbe=@'
tbag1008
(g1009
(I0
tS'b'
tRp1400
(I1
(I2
tg1012
I00
S'x\x15\xc9\x96\nV\x1d\xc04\xa3\xf9\x8a\xb5\x8dC@'
tbag1008
(g1009
(I0
tS'b'
tRp1401
(I1
(I2
tg1012
I00
S'\xa4\xfbe\x1bK".\xc0\xa5T\xe5\x1fh\x8fH\xc0'
tbag1008
(g1009
(I0
tS'b'
tRp1402
(I1
(I2
tg1012
I00
S'\xa0\r"\x9e\xa9\x1c\xf4?\xe2\xdc\xc5\xaf\xb85J@'
tbag1008
(g1009
(I0
tS'b'
tRp1403
(I1
(I2
tg1012
I00
S'\x10\x05)\x0b\x1f35@~E\xc7\xde\xe9HC\xc0'
tbag1008
(g1009
(I0
tS'b'
tRp1404
(I1
(I2
tg1012
I00
S'@k\xff\xdf\xe2\xab\xe2\xbf\xf6\x14\xc2\x95sSD\xc0'
tbag1008
(g1009
(I0
tS'b'
tRp1405
(I1
(I2
tg1012
I00
S'\x00\xb7w\x05\xf3\xe7\xd1?\xec\tL2\x95&B@'
tbag1008
(g1009
(I0
tS'b'
tRp1406
(I1
(I2
tg1012
I00
S'@7P\r\x85\xb5\x11@\xce\x16u\x03mHJ\xc0'
tbag1008
(g1009
(I0
tS'b'
tRp1407
(I1
(I2
tg1012
I00
S"\x98qq\x9d\xcfY0@\xb0\x88['\xdb\xa7\x0b\xc0"
tbag1008
(g1009
(I0
tS'b'
tRp1408
(I1
(I2
tg1012
I00
S'\xec\xc8\xa6.\xc5vD\xc0\xa0\xe5\xebU\x9f\xf6>\xc0'
tbag1008
(g1009
(I0
tS'b'
tRp1409
(I1
(I2
tg1012
I00
S'\xa0^%\xdcs\xf1\xfa?\x06m\x02Z\xece3\xc0'
tbag1008
(g1009
(I0
tS'b'
tRp1410
(I1
(I2
tg1012
I00
S'\xe0\\a"*N\xf5\xbf\x84\xb0\xed\x84\x9dg?@'
tbag1008
(g1009
(I0
tS'b'
tRp1411
(I1
(I2
tg1012
I00
S'\x80{\xa8\x08,\xee\xd7?\xe8%\xdfw-4=@'
tbag1008
(g1009
(I0
tS'b'
tRp1412
(I1
(I2
tg1012
I00
S'\xa0\xf6l\x8c\x01m\x00@\x90F\xdc\x1a\xf3%*\xc0'
tbag1008
(g1009
(I0
tS'b'
tRp1413
(I1
(I2
tg1012
I00
S'l5\xa9v\xb6\x9fD@\x90\xe2\x90\xacq\xcaI\xc0'
tbag1008
(g1009
(I0
tS'b'
tRp1414
(I1
(I2
tg1012
I00
S'\xb9{\x9f\xf5*2K\xc06Xqh8\xb1;\xc0'
tbag1008
(g1009
(I0
tS'b'
tRp1415
(I1
(I2
tg1012
I00
S'`\x81\xf4P\xee\xd5\n\xc0\x12|p\x8e\x98\xa9J@'
tbag1008
(g1009
(I0
tS'b'
tRp1416
(I1
(I2
tg1012
I00
S'\xe0?\x16.\xb6\\"\xc0\xaf\xe1\x10\x8by)@\xc0'
tbag1008
(g1009
(I0
tS'b'
tRp1417
(I1
(I2
tg1012
I00
S'\xf0\r\x9ff\xa7a\x0c@\xcab\x9f\x0c!\x9dC@'
tbag1008
(g1009
(I0
tS'b'
tRp1418
(I1
(I2
tg1012
I00
S'\\)\x06\x96\xf6\xa5D\xc0^\xed\xbf\xf7u\x8fI\xc0'
tbag1008
(g1009
(I0
tS'b'
tRp1419
(I1
(I2
tg1012
I00
S'@\xa5/\x83\xc6\x03\x1e@\xb0\x1d\xb9\xdb\r-\r\xc0'
tbag1008
(g1009
(I0
tS'b'
tRp1420
(I1
(I2
tg1012
I00
S'`\xcco>fs\x01\xc0\xe7;s\xab\xacI>\xc0'
tbag1008
(g1009
(I0
tS'b'
tRp1421
(I1
(I2
tg1012
I00
S'8{\xd6\xb3N\xf6\x1f\xc0\x10\xf6\xcan\x0e\x95.@'
tbag1008
(g1009
(I0
tS'b'
tRp1422
(I1
(I2
tg1012
I00
S'?\xcd#\xbeD[E\xc0\x98h\xe9aU\xffC\xc0'
tbag1008
(g1009
(I0
tS'b'
tRp1423
(I1
(I2
tg1012
I00
S'\xcc\xf5\xba"@/0@\x10/\xec\x9a\x08\x01\x1f@'
tbag1008
(g1009
(I0
tS'b'
tRp1424
(I1
(I2
tg1012
I00
S'\xa8\x90[o\xd4n)@\xc6m\xa4C\x1b\x903\xc0'
tbag1008
(g1009
(I0
tS'b'
tRp1425
(I1
(I2
tg1012
I00
S'X\x1a~\xefg5/@\xfc\x14o0\x8dz;@'
tbag1008
(g1009
(I0
tS'b'
tRp1426
(I1
(I2
tg1012
I00
S'PBTb\x82\xc4\x01@\x80T\xf6X\x0e\xb7>@'
tbag1008
(g1009
(I0
tS'b'
tRp1427
(I1
(I2
tg1012
I00
S'\x88OBO\xb2pE\xc0;\x8e\xe2o\xf5\x1c@\xc0'
tbag1008
(g1009
(I0
tS'b'
tRp1428
(I1
(I2
tg1012
I00
S'`\xcf\x02\xd0,\xb0!\xc0 \xdc\xa7\xfb"BD@'
tbag1008
(g1009
(I0
tS'b'
tRp1429
(I1
(I2
tg1012
I00
S'\x88\xbc q\xeaF#@\x00\xa0\xb3\x0e\x1d\xee\xfc\xbf'
tbag1008
(g1009
(I0
tS'b'
tRp1430
(I1
(I2
tg1012
I00
S'`k\x84Y\xa0=\n@\xf0\x16w\xcf^;F\xc0'
tbag1008
(g1009
(I0
tS'b'
tRp1431
(I1
(I2
tg1012
I00
S'`6-\xb5~G\x17@\xc0\xc7\x1eYE8@@'
tbag1008
(g1009
(I0
tS'b'
tRp1432
(I1
(I2
tg1012
I00
S'\x00U3\x98\x14`\xdc?\xfab\xd5\xf94\x1dG@'
tbag1008
(g1009
(I0
tS'b'
tRp1433
(I1
(I2
tg1012
I00
S'p\xd3\x8e\xc5\xb1o\x03\xc0\xe0\xe6\x92\xa27\xe9\x07@'
tbag1008
(g1009
(I0
tS'b'
tRp1434
(I1
(I2
tg1012
I00
S'\xd8\x9f\xf98Y\xbaI@\\\x14\xd3X\xca\xfdH\xc0'
tbag1008
(g1009
(I0
tS'b'
tRp1435
(I1
(I2
tg1012
I00
S'\xd0ew \x80A\x0c@\x1cE\x90\x1d \xf92\xc0'
tbag1008
(g1009
(I0
tS'b'
tRp1436
(I1
(I2
tg1012
I00
S'\xf8^|\x07\x8cv\x16\xc00\x19\x94\xb1\x93\xae\x1c@'
tbag1008
(g1009
(I0
tS'b'
tRp1437
(I1
(I2
tg1012
I00
S'\xd8\t!\xe0\xa5\xcf.@\x02\x80\x89\x944\xae@@'
tbag1008
(g1009
(I0
tS'b'
tRp1438
(I1
(I2
tg1012
I00
S'nH~@4\x17E@f\xb5\x01\xda\xe7n;\xc0'
tbag1008
(g1009
(I0
tS'b'
tRp1439
(I1
(I2
tg1012
I00
S'\x94P\xdd\x85!\xf82@\xf5\x1d::t"J\xc0'
tbag1008
(g1009
(I0
tS'b'
tRp1440
(I1
(I2
tg1012
I00
S'\xf8b\x1b\xf6Y\x8d"@\x06\x12\x0f\xf4\x10PJ@'
tbag1008
(g1009
(I0
tS'b'
tRp1441
(I1
(I2
tg1012
I00
S'\xc0\xda4\xbbk\x01\x1f@\x8e\x1e|\x9f\x0c\xffM@'
tbag1008
(g1009
(I0
tS'b'
tRp1442
(I1
(I2
tg1012
I00
S'\xd4\xa0S\xf7\xe8\xd39\xc0\xfcC\xb3\xaa\x12\xcdC\xc0'
tbag1008
(g1009
(I0
tS'b'
tRp1443
(I1
(I2
tg1012
I00
S'\rf\x80\xf6\x9d\xcbA\xc0\xa4\xdf5\xf2\x99\xce?\xc0'
tbag1008
(g1009
(I0
tS'b'
tRp1444
(I1
(I2
tg1012
I00
S'X\xd6\x1a\xacu)+@\xc80\x1ds1:,@'
tbag1008
(g1009
(I0
tS'b'
tRp1445
(I1
(I2
tg1012
I00
S'\x90\xe1\x82\x1a~\xdc)@\x00P\x1fi\x93\xc0\xa6\xbf'
tbag1008
(g1009
(I0
tS'b'
tRp1446
(I1
(I2
tg1012
I00
S'\x88/Z\x11lW&@\xa2\x90\xc6\xfb\xf8\xecM@'
tbag1008
(g1009
(I0
tS'b'
tRp1447
(I1
(I2
tg1012
I00
S'V{P\xaf_\x9eI@\xe4\xcb+\xeb\x95rJ\xc0'
tbag1008
(g1009
(I0
tS'b'
tRp1448
(I1
(I2
tg1012
I00
S'\x00\xb9\xa3\x18\xb8G&@\xd4s\x95\\"\xb7*\xc0'
tbag1008
(g1009
(I0
tS'b'
tRp1449
(I1
(I2
tg1012
I00
S'\x88\x13\xc3\x9dH\xf8!@|\x8a\xf0\xb0\xe3\xe9/\xc0'
tbag1008
(g1009
(I0
tS'b'
tRp1450
(I1
(I2
tg1012
I00
S'p\xcb\x9eT\xd0\xb3\x04@\xe0\xcbL\xfb\x96\x10\xf9?'
tbag1008
(g1009
(I0
tS'b'
tRp1451
(I1
(I2
tg1012
I00
S'h\xeah \xbf\x88%@\x80{\xdc\xc23(7\xc0'
tbag1008
(g1009
(I0
tS'b'
tRp1452
(I1
(I2
tg1012
I00
S"'R\xaf\x04!\x12H\xc0Z\xebj\xc9\x05}I\xc0"
tbag1008
(g1009
(I0
tS'b'
tRp1453
(I1
(I2
tg1012
I00
S'\xb4\x83\xe6\x8e\xc5-2@+@\x8d\x85E,D\xc0'
tbag1008
(g1009
(I0
tS'b'
tRp1454
(I1
(I2
tg1012
I00
S'\xc8\xe1\x02\xcb-\xb0\x1f\xc08i\xb5\x18\x97wB\xc0'
tbag1008
(g1009
(I0
tS'b'
tRp1455
(I1
(I2
tg1012
I00
S'\xc0\xbf\xd1?\xc9B\x1f@\xd8\x82]v\xa5\xfeA@'
tbag1008
(g1009
(I0
tS'b'
tRp1456
(I1
(I2
tg1012
I00
S'@\xe1\xbeg\xd5&\xe7\xbfd=S\xc6\xad\xff(\xc0'
tbag1008
(g1009
(I0
tS'b'
tRp1457
(I1
(I2
tg1012
I00
S'\xf0\xc6(\x19\xce(\x0f@\x15XGK\xe8\x8a?\xc0'
tbag1008
(g1009
(I0
tS'b'
tRp1458
(I1
(I2
tg1012
I00
S'\x00A\r\x9e\xac\xbd\xe4?D\x0c\xd5\xea\xcb\xcc;\xc0'
tbag1008
(g1009
(I0
tS'b'
tRp1459
(I1
(I2
tg1012
I00
S'hJ}\x9e\xd111@\x00U\x89o\xb5b\xe1\xbf'
tbag1008
(g1009
(I0
tS'b'
tRp1460
(I1
(I2
tg1012
I00
S'\xc0\\\x7f\xa9\xacZ\x11@d\xc0\xfbq\xf2L7@'
tbag1008
(g1009
(I0
tS'b'
tRp1461
(I1
(I2
tg1012
I00
S'\x80\x02\x1f\x82\xb0d\xe1\xbf\x9c3\x95=\x9bv?@'
tbag1008
(g1009
(I0
tS'b'
tRp1462
(I1
(I2
tg1012
I00
S'\xb8#2,.\xeb&@\x95C\xd0\xcb\xc6%I\xc0'
tbag1008
(g1009
(I0
tS'b'
tRp1463
(I1
(I2
tg1012
I00
S'\x84\xc1\x89\xab{\x8bL\xc0X\x94e\t\xe7\xddA\xc0'
tbag1008
(g1009
(I0
tS'b'
tRp1464
(I1
(I2
tg1012
I00
S'P\x99{\xe4i\x0b\x06\xc0\xe0j\xd09\x8eV\x11@'
tbag1008
(g1009
(I0
tS'b'
tRp1465
(I1
(I2
tg1012
I00
S'\xa4"\xd0\xbf\x11\x8d2@\xb2\xd3\x8e\xdf5\xeeB\xc0'
tbag1008
(g1009
(I0
tS'b'
tRp1466
(I1
(I2
tg1012
I00
S'\x10\xe1\xf5\xbf\x04\x7f\x1d\xc0H\xdcc\xa4\x1eL#@'
tbag1008
(g1009
(I0
tS'b'
tRp1467
(I1
(I2
tg1012
I00
S'Vf\xe5f\xe3\xd2J\xc0\xb2\x02\xa8\x0f\x1e\xaaH\xc0'
tbag1008
(g1009
(I0
tS'b'
tRp1468
(I1
(I2
tg1012
I00
S'\xb6C\xab\x99X\xd0I\xc0\x8c\xf5\x11\xa0\x07\xc7C\xc0'
tbag1008
(g1009
(I0
tS'b'
tRp1469
(I1
(I2
tg1012
I00
S'\xfeXB$9\xacI@\xa9\xd3\x02F\xb7jF\xc0'
tbag1008
(g1009
(I0
tS'b'
tRp1470
(I1
(I2
tg1012
I00
S'\xe0\x968\xac|\xad&\xc0|\xdc\xf1\xbf\x8e\xb4G\xc0'
tbag1008
(g1009
(I0
tS'b'
tRp1471
(I1
(I2
tg1012
I00
S'\x0c7\x8e\x9f\t\x00>@\x9d\xef\xf3\xd9i\xb2B\xc0'
tbag1008
(g1009
(I0
tS'b'
tRp1472
(I1
(I2
tg1012
I00
S'\xf0u_yhj.@\xc4\x8c+V\xd2K-\xc0'
tbag1008
(g1009
(I0
tS'b'
tRp1473
(I1
(I2
tg1012
I00
S'h\x14\xa9\x90\xc2f?@\x06,\xbe\xc1\r&A\xc0'
tbag1008
(g1009
(I0
tS'b'
tRp1474
(I1
(I2
tg1012
I00
S'\xba{\xdd\x16\x9a\xc0M@\xaaL3\x90\x1a\xe6:\xc0'
tbag1008
(g1009
(I0
tS'b'
tRp1475
(I1
(I2
tg1012
I00
S'pu`\x94\xeae\x05@\\X\xf7\nY\x9b1@'
tbag1008
(g1009
(I0
tS'b'
tRp1476
(I1
(I2
tg1012
I00
S'`\xc6\x9b\xcd\x8f\x80\n\xc0\xb6\x9d x\x06|B\xc0'
tbag1008
(g1009
(I0
tS'b'
tRp1477
(I1
(I2
tg1012
I00
S'L\x18T\xb5E\r7@\x98\x82\x16\x1b\xb3-J\xc0'
tbag1008
(g1009
(I0
tS'b'
tRp1478
(I1
(I2
tg1012
I00
S'@G\xd8-9&\xf7?\xff\x02Z\n/YE\xc0'
tbag1008
(g1009
(I0
tS'b'
tRp1479
(I1
(I2
tg1012
I00
S'\x90\x93\xac\x8a\xecd\x1d@:\xbcd\xe5W|D@'
tbag1008
(g1009
(I0
tS'b'
tRp1480
(I1
(I2
tg1012
I00
S'@\x19\xa5lHd\xf8?,<\xb63\x8d+C\xc0'
tbag1008
(g1009
(I0
tS'b'
tRp1481
(I1
(I2
tg1012
I00
S'\xd4o^,\x1fJ7@\xeb\xcd>\xbb6mF\xc0'
tbag1008
(g1009
(I0
tS'b'
tRp1482
(I1
(I2
tg1012
I00
S'\xb8\xdb\x0b\x06\xackC\xc0\xd4\xdf\xa5\x0c\x04\xf3J\xc0'
tbag1008
(g1009
(I0
tS'b'
tRp1483
(I1
(I2
tg1012
I00
S'8\xdb\xb0\'\xdc\x85"@\x98g\'\xf5\xbb\t3\xc0'
tbag1008
(g1009
(I0
tS'b'
tRp1484
(I1
(I2
tg1012
I00
S'\xb0\x92\x83\x07-\x7f\x08@\x0eN\xfeu3;M@'
tbag1008
(g1009
(I0
tS'b'
tRp1485
(I1
(I2
tg1012
I00
S'p\x80\x12\xa3\x15\x1e2@\x86P3(-\x84M@'
tbag1008
(g1009
(I0
tS'b'
tRp1486
(I1
(I2
tg1012
I00
S'PT\x1af\x93\x13"@X\xd2\x97\xcb7\x85%@'
tbag1008
(g1009
(I0
tS'b'
tRp1487
(I1
(I2
tg1012
I00
S'\xf0\xfd\x9a\xaer\xe3 \xc0\x98\xf8)\xd6\xda\xdf?@'
tbag1008
(g1009
(I0
tS'b'
tRp1488
(I1
(I2
tg1012
I00
S'\xf6\xb5\xe51\xc3\xfeF\xc0\xceA\xd3H1@I\xc0'
tbag1008
(g1009
(I0
tS'b'
tRp1489
(I1
(I2
tg1012
I00
S'\x97TX\xb5\\WF\xc0\xac\x9d\xf5pobF\xc0'
tbag1008
(g1009
(I0
tS'b'
tRp1490
(I1
(I2
tg1012
I00
S'\xa9O\x0e\xdb\xdf\x8cJ\xc0\x90\xe8c7#\x00?\xc0'
tbag1008
(g1009
(I0
tS'b'
tRp1491
(I1
(I2
tg1012
I00
S'x\t_T\x1d\x83B\xc0\x08\x18\xa0\x9aQ\x8b;\xc0'
tbag1008
(g1009
(I0
tS'b'
tRp1492
(I1
(I2
tg1012
I00
S':c\xf8\xbbw\x86L@\x92\x95<\x80F\x0fJ\xc0'
tbag1008
(g1009
(I0
tS'b'
tRp1493
(I1
(I2
tg1012
I00
S'\x00\xb4\xcbP\xea\x9c\x19@\x82\xf7\xf1/\xe7IJ@'
tbag1008
(g1009
(I0
tS'b'
tRp1494
(I1
(I2
tg1012
I00
S'P\n\x06\x10\xe7\xda\x1e@\xc4\x8a,8#\x0bM@'
tbag1008
(g1009
(I0
tS'b'
tRp1495
(I1
(I2
tg1012
I00
S'\x07\x9ed\xe5\x02~E\xc0<\xedL1\xceS9\xc0'
tbag1008
(g1009
(I0
tS'b'
tRp1496
(I1
(I2
tg1012
I00
S'\xb5\xc1:\xf1,g?\xc08\xbc\xec\xb3\x14\xa3<\xc0'
tbag1008
(g1009
(I0
tS'b'
tRp1497
(I1
(I2
tg1012
I00
S'\xb0\x08>\x80Ro\x0f@x$\xeb\xc0\x86\xa14@'
tbag1008
(g1009
(I0
tS'b'
tRp1498
(I1
(I2
tg1012
I00
S'\xc8\\\x0f\x0c\xb5\x86,@\x18\xac\x04x\xa5\x9c,@'
tbag1008
(g1009
(I0
tS'b'
tRp1499
(I1
(I2
tg1012
I00
S'\xa0e\xb0\xa1\xdc\xca\x17@0|f#|\x06K@'
tbag1008
(g1009
(I0
tS'b'
tRp1500
(I1
(I2
tg1012
I00
S'd\x1a*4q\xec7\xc0\x18\x99d\xb9\xe2V=\xc0'
tbag1008
(g1009
(I0
tS'b'
tRp1501
(I1
(I2
tg1012
I00
S'L\xfeV\x03F\xc0(\xc0>y\xab\xb0\ru;\xc0'
tbag1008
(g1009
(I0
tS'b'
tRp1502
(I1
(I2
tg1012
I00
S'@\x02\xa3\x8b\xb2\x8d&@.\xde\xdd\x97=CG\xc0'
tbag1008
(g1009
(I0
tS'b'
tRp1503
(I1
(I2
tg1012
I00
S'\xde\x80\x0c\x17\xbaCH\xc0\x122\x9ax\x81\x92E\xc0'
tbag1008
(g1009
(I0
tS'b'
tRp1504
(I1
(I2
tg1012
I00
S'|hm\xc5(\xa2M@\x02\xdd\xd5\xaf\xaffD\xc0'
tbag1008
(g1009
(I0
tS'b'
tRp1505
(I1
(I2
tg1012
I00
S'\xf0\xcb\xe0\xe0\xcf\x86\x08@\xa0\xd4\x9bw\x97j\x0f@'
tbag1008
(g1009
(I0
tS'b'
tRp1506
(I1
(I2
tg1012
I00
S'\x08\xea*\x03\tSD@lx\xe3\xc2I\x91B\xc0'
tbag1008
(g1009
(I0
tS'b'
tRp1507
(I1
(I2
tg1012
I00
S'xd\x03\xe1~\xc7%@\xc8F\x0e.)\xe4>@'
tbag1008
(g1009
(I0
tS'b'
tRp1508
(I1
(I2
tg1012
I00
S'0\xc1\xd4rz\x13\x18@\xf0\xcb\xa2:0\xfe(@'
tbag1008
(g1009
(I0
tS'b'
tRp1509
(I1
(I2
tg1012
I00
S' 9\xfd\x9e\xb3\xb9\x12@p!\xed\xac\xe4\xfc\t\xc0'
tbag1008
(g1009
(I0
tS'b'
tRp1510
(I1
(I2
tg1012
I00
S'6Z\x1c)@\x94A@Y\x0e\x96\x1e\xf2\x91@\xc0'
tbag1008
(g1009
(I0
tS'b'
tRp1511
(I1
(I2
tg1012
I00
S'\xb8\x94\xc5\x9a\xe6[(@\x00\x0c\x197b\xea\xf2\xbf'
tbag1008
(g1009
(I0
tS'b'
tRp1512
(I1
(I2
tg1012
I00
S"P\xfa\x83\xb4<'\x0b@\x12-l\x10\x00hF@"
tbag1008
(g1009
(I0
tS'b'
tRp1513
(I1
(I2
tg1012
I00
S'L\xc0)\xb0{VF\xc0MqUP\xdf\xfa?\xc0'
tbag1008
(g1009
(I0
tS'b'
tRp1514
(I1
(I2
tg1012
I00
S'\xd8]C\x9a\xdd/H@\x99\xf3/\xec\x91\x9eC\xc0'
tbag1008
(g1009
(I0
tS'b'
tRp1515
(I1
(I2
tg1012
I00
S'\x04\xa5\x8f+\x96\xe92@0"mC!\x96\'\xc0'
tbag1008
(g1009
(I0
tS'b'
tRp1516
(I1
(I2
tg1012
I00
S'p\x18\xd0\x8dW\xad*@\x18\xc1TY\xc6\xf1F\xc0'
tbag1008
(g1009
(I0
tS'b'
tRp1517
(I1
(I2
tg1012
I00
S"\xa0\x82\xb9\x86\xa0tH\xc0'\xce\x95\x8ex\xedJ\xc0"
tbag1008
(g1009
(I0
tS'b'
tRp1518
(I1
(I2
tg1012
I00
S'\x00gy\x98\x86\xd5\xd8?T\xdc\xb3%K\xd64\xc0'
tbag1008
(g1009
(I0
tS'b'
tRp1519
(I1
(I2
tg1012
I00
S'\x00f\x0f\tT\xe2\xbd\xbf|R\r|;R4@'
tbag1008
(g1009
(I0
tS'b'
tRp1520
(I1
(I2
tg1012
I00
S'l\x17\xa1\x0fM<4\xc0r6\xb7\xb3\xba\x80B\xc0'
tbag1008
(g1009
(I0
tS'b'
tRp1521
(I1
(I2
tg1012
I00
S'-;\xcb@K\xdeJ\xc0\x04\x7fJn\xc14B\xc0'
tbag1008
(g1009
(I0
tS'b'
tRp1522
(I1
(I2
tg1012
I00
S'Xd~]\x9a\\ \xc0h\xca\x8ef\xd9\xbc$\xc0'
tbag1008
(g1009
(I0
tS'b'
tRp1523
(I1
(I2
tg1012
I00
S'x\xa6%/`89@fajp\xf9\xd3@\xc0'
tbag1008
(g1009
(I0
tS'b'
tRp1524
(I1
(I2
tg1012
I00
S"\xd8-\xce(B\xd5'\xc0\x1d~rBf{E\xc0"
tbag1008
(g1009
(I0
tS'b'
tRp1525
(I1
(I2
tg1012
I00
S'\x94\xaf\xcfq9*!\xc0\xc3\xf1\x88\xf3\xf8\x85C\xc0'
tbag1008
(g1009
(I0
tS'b'
tRp1526
(I1
(I2
tg1012
I00
S'i\xfd\x87\x05\x81CL\xc0\x1c\xee\t\xc7\x85zE\xc0'
tbag1008
(g1009
(I0
tS'b'
tRp1527
(I1
(I2
tg1012
I00
S'\xb0\xa5\x8c\xb9l\xaa\x15@\x00\x18\xa7H\x83\xfe\xad?'
tbag1008
(g1009
(I0
tS'b'
tRp1528
(I1
(I2
tg1012
I00
S'\xc8K\x829\xc9\x8c-@\xa86\xa8\x181\x87G@'
tbag1008
(g1009
(I0
tS'b'
tRp1529
(I1
(I2
tg1012
I00
S'\xf8X1\xfd0\x1e\x12\xc0\xf6"\xf7f\x9f\xa92\xc0'
tbag1008
(g1009
(I0
tS'b'
tRp1530
(I1
(I2
tg1012
I00
S'h\x9ct\x85q\xfe#@\x8e\x9e\xd1\x8b\x054C\xc0'
tbag1008
(g1009
(I0
tS'b'
tRp1531
(I1
(I2
tg1012
I00
S'\xc8C\xdeIj^4@\x1eb\x94\x0c\xbe\x1eC\xc0'
tbag1008
(g1009
(I0
tS'b'
tRp1532
(I1
(I2
tg1012
I00
S'~\x19\xd5+C\xf9G\xc0\x15#\t\xac\x1c\x97E\xc0'
tbag1008
(g1009
(I0
tS'b'
tRp1533
(I1
(I2
tg1012
I00
S'\xea\x8a\xd6\x9b{\x104\xc0n\x8d\xcf\xef\x1a\xc8>\xc0'
tbag1008
(g1009
(I0
tS'b'
tRp1534
(I1
(I2
tg1012
I00
S'\x90\x10\x07p\xe1Q\x01@\xb8\xc41f\x81\x06C\xc0'
tbag1008
(g1009
(I0
tS'b'
tRp1535
(I1
(I2
tg1012
I00
S'N\x0f\xf6\x07\xee/F\xc0n\x83\xbc\x85\xf6/C\xc0'
tbag1008
(g1009
(I0
tS'b'
tRp1536
(I1
(I2
tg1012
I00
S'\xc6I*\x08\xb6\x0eI\xc0\xc9\xfcT\x0f\x19u>\xc0'
tbag1008
(g1009
(I0
tS'b'
tRp1537
(I1
(I2
tg1012
I00
S'\xb0^c!\xaf?2@><\x1a\xef*\xa6C@'
tbag1008
(g1009
(I0
tS'b'
tRp1538
(I1
(I2
tg1012
I00
S'\x00N\xad\x92\xb6\\2@<Q\xf9\xb0D"J@'
tbag1008
(g1009
(I0
tS'b'
tRp1539
(I1
(I2
tg1012
I00
S'\x00\x06\x83\xe9|\xfe\x03@.\x19\xd3\x8d\xde\x052\xc0'
tbag1008
(g1009
(I0
tS'b'
tRp1540
(I1
(I2
tg1012
I00
S'0\xa7\x9az\x00\xed!@\xc0\xcc\xaa\xeb\xe1\xbd\x1c@'
tbag1008
(g1009
(I0
tS'b'
tRp1541
(I1
(I2
tg1012
I00
S'TX\xe48\x1578\xc0\x96\xb66\x14?;A\xc0'
tbag1008
(g1009
(I0
tS'b'
tRp1542
(I1
(I2
tg1012
I00
S'X\xd1X\xe4\xa2q\x1c\xc0\x95\x16\x04b\x0c\xbaH\xc0'
tbag1008
(g1009
(I0
tS'b'
tRp1543
(I1
(I2
tg1012
I00
S'\xef\x83\xf0g\x19\xc1K\xc0\n\x1c\x1c\xa3\xba\x1dC\xc0'
tbag1008
(g1009
(I0
tS'b'
tRp1544
(I1
(I2
tg1012
I00
S"h\xa8\x1dgv\x11'@\xd6<y\xa6\xfb\x1fD\xc0"
tbag1008
(g1009
(I0
tS'b'
tRp1545
(I1
(I2
tg1012
I00
S't\xa8\x13\xea\xcb\xe71@\xaci\xe6=\xd3\x93L@'
tbag1008
(g1009
(I0
tS'b'
tRp1546
(I1
(I2
tg1012
I00
S'\x00\xcbe\xe7\xbc\xaf+@ \x05\x19^X\x12E\xc0'
tbag1008
(g1009
(I0
tS'b'
tRp1547
(I1
(I2
tg1012
I00
S'P\xfeRJ\xe8\xa3\x05\xc0b2M7\xd0\xb7M@'
tbag1008
(g1009
(I0
tS'b'
tRp1548
(I1
(I2
tg1012
I00
S'\x106\xc4\xd4\xdb\xc2J\xc08\xde\x15\x9e\xadb9\xc0'
tbag1008
(g1009
(I0
tS'b'
tRp1549
(I1
(I2
tg1012
I00
S'\x00\x00\xcd\x83\xa2\x05V?Z\xe4\n|9\xa8A@'
tbag1008
(g1009
(I0
tS'b'
tRp1550
(I1
(I2
tg1012
I00
S'P\x8dRe\xb8 /@\x9c\xc0$)U\xfeJ@'
tbag1008
(g1009
(I0
tS'b'
tRp1551
(I1
(I2
tg1012
I00
S'\x90\x94\x13\xa1\xca\xdd*@F\xec\xb8}2\xe3F@'
tbag1008
(g1009
(I0
tS'b'
tRp1552
(I1
(I2
tg1012
I00
S'*<\xfcqP\x86@\xc0\xbd\x87J&\xaaQB\xc0'
tbag1008
(g1009
(I0
tS'b'
tRp1553
(I1
(I2
tg1012
I00
S' \x04\xeb\xa1\x91.\r\xc0\xdc\xd1\x18\xc1J^E@'
tbag1008
(g1009
(I0
tS'b'
tRp1554
(I1
(I2
tg1012
I00
S'\xd0X)f\x91\x0e#\xc0MR%;\x8f\xbe?\xc0'
tbag1008
(g1009
(I0
tS'b'
tRp1555
(I1
(I2
tg1012
I00
S'\xfa\xbf\xbe/]\xa9@\xc0\xc090\\\xbd\x93@\xc0'
tbag1008
(g1009
(I0
tS'b'
tRp1556
(I1
(I2
tg1012
I00
S'\xac\xc4x$r\x962@\xb4\x01{\xae\xb7O=\xc0'
tbag1008
(g1009
(I0
tS'b'
tRp1557
(I1
(I2
tg1012
I00
S'\x18)\x9a<\xe3u0@\xd0\xde\x13\xb3\xe2\x1aJ\xc0'
tbag1008
(g1009
(I0
tS'b'
tRp1558
(I1
(I2
tg1012
I00
S'\x11v~\xdb>\xdbG\xc0|g\x01\xd0\xc61:\xc0'
tbag1008
(g1009
(I0
tS'b'
tRp1559
(I1
(I2
tg1012
I00
S'\x80\x98DJA\xc2\xd9\xbf\xf2\xc4\xb0\xfe_ZG@'
tbag1008
(g1009
(I0
tS'b'
tRp1560
(I1
(I2
tg1012
I00
S'xN\xd5?\x8c\xf20@$\x90\xd2<\x12\x1c6@'
tbag1008
(g1009
(I0
tS'b'
tRp1561
(I1
(I2
tg1012
I00
S'\xec\xdfUM\xa6\xa1E@\xc6\xc5(\xde\xf0\x13H\xc0'
tbag1008
(g1009
(I0
tS'b'
tRp1562
(I1
(I2
tg1012
I00
S'\xb0n\xf8\xcf\x98\x852@\x05A\x94\xa4\x0fFJ\xc0'
tbag1008
(g1009
(I0
tS'b'
tRp1563
(I1
(I2
tg1012
I00
S'\x80\xf9<\x9d)\xdf&@PgO+\x97@*\xc0'
tbag1008
(g1009
(I0
tS'b'
tRp1564
(I1
(I2
tg1012
I00
S'\xa07/\xeed\xe9\xf9?HV\x91\xff\xe6I8\xc0'
tbag1008
(g1009
(I0
tS'b'
tRp1565
(I1
(I2
tg1012
I00
S'\xc0;H\x11\\p\xf7\xbf\x8e#\xa5\x95b\x85K@'
tbag1008
(g1009
(I0
tS'b'
tRp1566
(I1
(I2
tg1012
I00
S"\x88\xfc\xf3lUL'\xc0\t\x04\x00\xc0\xefJD\xc0"
tbag1008
(g1009
(I0
tS'b'
tRp1567
(I1
(I2
tg1012
I00
S'8\xd90\xf0\xc4(>@\xe9j\xc0P  A\xc0'
tbag1008
(g1009
(I0
tS'b'
tRp1568
(I1
(I2
tg1012
I00
S'd\x18Yx\x1d\xbaM\xc0\xe3\x9e%\x05\x14\x04=\xc0'
tbag1008
(g1009
(I0
tS'b'
tRp1569
(I1
(I2
tg1012
I00
S'\xba\xbeO\xb7\xa4\xa0F@\xacP\x1e\xb1\x8d\x15;\xc0'
tbag1008
(g1009
(I0
tS'b'
tRp1570
(I1
(I2
tg1012
I00
S'`\xbc_\xd5\xd0\xdf\x18@\xfcq\x94\xb9\x81\xa29@'
tbag1008
(g1009
(I0
tS'b'
tRp1571
(I1
(I2
tg1012
I00
S'\x14\xc6\xd7uI:(\xc0\xe9\xda\xdb\xaeRXE\xc0'
tbag1008
(g1009
(I0
tS'b'
tRp1572
(I1
(I2
tg1012
I00
S'\x08\x8e\x8c\x89d\xc4J@\x1c\xb2\xe9\xa5.&G\xc0'
tbag1008
(g1009
(I0
tS'b'
tRp1573
(I1
(I2
tg1012
I00
S'@c\xbbvL\x99\x01@\xe0\xe2^-C\xdeJ@'
tbag1008
(g1009
(I0
tS'b'
tRp1574
(I1
(I2
tg1012
I00
S'\x00\x95;\x1b\x89e\x19\xc0r\xe2<\x831gA\xc0'
tbag1008
(g1009
(I0
tS'b'
tRp1575
(I1
(I2
tg1012
I00
S'\xc4\x1a/E\xba)3@\xc6\xe8#\xa01\xbdF\xc0'
tbag1008
(g1009
(I0
tS'b'
tRp1576
(I1
(I2
tg1012
I00
S'6\xae\xda\x1e\xfb\xccK@s\x1c\x92\xd9\x94z>\xc0'
tbag1008
(g1009
(I0
tS'b'
tRp1577
(I1
(I2
tg1012
I00
S'\xcc\xbb$\x07\xe9.G@\xcbM\xe8\x14&OH\xc0'
tbag1008
(g1009
(I0
tS'b'
tRp1578
(I1
(I2
tg1012
I00
S'P~\xf7\x87\xc2\xb4\x1f@\xe8\xd9\x98\xf0lHF@'
tbag1008
(g1009
(I0
tS'b'
tRp1579
(I1
(I2
tg1012
I00
S'\xa4#\xff\x1e\xd3\x910@\xac\x9c\xd8\x19\x98\xf70@'
tbag1008
(g1009
(I0
tS'b'
tRp1580
(I1
(I2
tg1012
I00
S'\x8cB\xe8\xba2]J@\xb8\xff!\xbe\xca\xc3<\xc0'
tbag1008
(g1009
(I0
tS'b'
tRp1581
(I1
(I2
tg1012
I00
S'8\xdce(/\xd5\x19\xc0\xe8\xf0\xc1\x88\xdax0@'
tbag1008
(g1009
(I0
tS'b'
tRp1582
(I1
(I2
tg1012
I00
S'$\x9e\xebx4\xee2@dJX\xfb\x07\xfa9@'
tbag1008
(g1009
(I0
tS'b'
tRp1583
(I1
(I2
tg1012
I00
S'PIP\xac\x1c\xc44\xc0X\xae\x8b\x1b(\xe39\xc0'
tbag1008
(g1009
(I0
tS'b'
tRp1584
(I1
(I2
tg1012
I00
S'0\xdc\xc8\x0fH*\x16@\xdc,\xa3\x18\xee\xac4\xc0'
tbag1008
(g1009
(I0
tS'b'
tRp1585
(I1
(I2
tg1012
I00
S'p\x91\x91\x1cp\xc6\x0b@\xf4?c\xa2\x05\xa7"\xc0'
tbag1008
(g1009
(I0
tS'b'
tRp1586
(I1
(I2
tg1012
I00
S'\x00\x8e\xce:\xdb\x89\xc4\xbf$\x9a-\xfc\x80\xc3J\xc0'
tbag1008
(g1009
(I0
tS'b'
tRp1587
(I1
(I2
tg1012
I00
S'P\xffIz\x0cI\x14@`\x96w)\x96\xc5H@'
tbag1008
(g1009
(I0
tS'b'
tRp1588
(I1
(I2
tg1012
I00
S'TvY\xc2\xf1\x80E@\x84\x0f\r:\x84\xd6<\xc0'
tbag1008
(g1009
(I0
tS'b'
tRp1589
(I1
(I2
tg1012
I00
S'@\xcao,\xe0\xfb\xfb? \xbf\xee\xc9\xb3\xae\xf0?'
tbag1008
(g1009
(I0
tS'b'
tRp1590
(I1
(I2
tg1012
I00
S"N'm\xfeU\xceF@\x08\xd5\xee\x06\x99\x0eH\xc0"
tbag1008
(g1009
(I0
tS'b'
tRp1591
(I1
(I2
tg1012
I00
S'6\x84\xa0\xcf~=E\xc0\xe2H|\x8a\x08\xdc=\xc0'
tbag1008
(g1009
(I0
tS'b'
tRp1592
(I1
(I2
tg1012
I00
S'\xd0i\x1bke\x12\x11@\x0b\x14\x0f\x81\xce\x13@\xc0'
tbag1008
(g1009
(I0
tS'b'
tRp1593
(I1
(I2
tg1012
I00
S'\xe87\xbcA\xb0\x00A\xc0)\xff<k\x88H>\xc0'
tbag1008
(g1009
(I0
tS'b'
tRp1594
(I1
(I2
tg1012
I00
S'\xa8q\x990\x10b:\xc0\xe9\x1a\\i3\xc9G\xc0'
tbag1008
(g1009
(I0
tS'b'
tRp1595
(I1
(I2
tg1012
I00
S'\xec\xb2\xfa\xb8\xe1\xb8I\xc0\x80\x06$\x0e\xa8mI\xc0'
tbag1008
(g1009
(I0
tS'b'
tRp1596
(I1
(I2
tg1012
I00
S'\x9evw\xcb\xa5+A\xc0\xea\xf8\xc81\xa1P@\xc0'
tbag1008
(g1009
(I0
tS'b'
tRp1597
(I1
(I2
tg1012
I00
S"\x00{\xb1\xe2\x9e\x00,@\x80U[\xdb\x9c\xc5'@"
tbag1008
(g1009
(I0
tS'b'
tRp1598
(I1
(I2
tg1012
I00
S'\x00\x1e\xfa>\xcf\xee\xcb\xbf\xda\xc5\x16\x0fS\xdfJ\xc0'
tbag1008
(g1009
(I0
tS'b'
tRp1599
(I1
(I2
tg1012
I00
S'\xf0\x8b\xb9\xaa\x1a\x89>@\xc1\xc2\xee\xe9IaJ\xc0'
tbag1008
(g1009
(I0
tS'b'
tRp1600
(I1
(I2
tg1012
I00
S'\x14i\xb0\xfd\xf9\x1d-\xc0o*\x1c\xae+jA\xc0'
tbag1008
(g1009
(I0
tS'b'
tRp1601
(I1
(I2
tg1012
I00
S'(u\xfe(\x109\x1e\xc0C4\rf\xfb\xb4E\xc0'
tbag1008
(g1009
(I0
tS'b'
tRp1602
(I1
(I2
tg1012
I00
S'3\xe6\x17\x06A\xe0M\xc0\xe5\x84g\xed\xab\x17B\xc0'
tbag1008
(g1009
(I0
tS'b'
tRp1603
(I1
(I2
tg1012
I00
S'\xe8\x03;\xd9i++@\xc0z\xb6?X\xe3\x10@'
tbag1008
(g1009
(I0
tS'b'
tRp1604
(I1
(I2
tg1012
I00
S'\xd0\xe02mT\xfa\x14\xc0\xaa\xf0\xd7XE\xe3@\xc0'
tbag1008
(g1009
(I0
tS'b'
tRp1605
(I1
(I2
tg1012
I00
S'@\xe0\xee\xf3U\x83\xf3?\xf6<J\xe7\xc9\xb9>\xc0'
tbag1008
(g1009
(I0
tS'b'
tRp1606
(I1
(I2
tg1012
I00
S'\xdb\xf1\x9d\x12\xfd\x11I\xc0\xf3\xb3\xc9\x1e\x1d!B\xc0'
tbag1008
(g1009
(I0
tS'b'
tRp1607
(I1
(I2
tg1012
I00
S'\xf4\xef\x04\xc3\xec28@~\xc50\xa8\xa1CB\xc0'
tbag1008
(g1009
(I0
tS'b'
tRp1608
(I1
(I2
tg1012
I00
S'R\xa8\xf6\x9d\xd2V2\xc0\x0crJN\xd43H\xc0'
tbag1008
(g1009
(I0
tS'b'
tRp1609
(I1
(I2
tg1012
I00
S'\xb8@\x98>\xfb\xd4%@\x80\x9c\x9a\xbbm\x1e<@'
tbag1008
(g1009
(I0
tS'b'
tRp1610
(I1
(I2
tg1012
I00
S'\x00\xda\xe5\xef\xad/\xf1?t#X\xc1\x9d\xde:\xc0'
tbag1008
(g1009
(I0
tS'b'
tRp1611
(I1
(I2
tg1012
I00
S'\x80\xf6\xc6\xdb\xbb\xeaK@\xe5\xf5mTo\xd2J\xc0'
tbag1008
(g1009
(I0
tS'b'
tRp1612
(I1
(I2
tg1012
I00
S'\x1c4\xb5\x8c<\xc8K\xc0\xdeI0\xda\xc3\xc9H\xc0'
tbag1008
(g1009
(I0
tS'b'
tRp1613
(I1
(I2
tg1012
I00
S'\x1cuQ\xd5648@\x04\xcd\x92\xab@A;\xc0'
tbag1008
(g1009
(I0
tS'b'
tRp1614
(I1
(I2
tg1012
I00
S'\xdc:o\xcb\xe0\xd4@@\xfd\xfd\xf1J#\x96@\xc0'
tbag1008
(g1009
(I0
tS'b'
tRp1615
(I1
(I2
tg1012
I00
S'xT\xd4\xf3\xc5z\x18\xc0\xd3\x92\xac+\x0f\xed@\xc0'
tbag1008
(g1009
(I0
tS'b'
tRp1616
(I1
(I2
tg1012
I00
S'B\x08Zx\xea\xfd0\xc0\x01\xa0\x12r\xde4F\xc0'
tbag1008
(g1009
(I0
tS'b'
tRp1617
(I1
(I2
tg1012
I00
S'\xc8\x17]m\x8a\xb8K@\x960\xaaX\x01eG\xc0'
tbag1008
(g1009
(I0
tS'b'
tRp1618
(I1
(I2
tg1012
I00
S' |\xdc"\xdc_\r@P\x03/\x97u"A@'
tbag1008
(g1009
(I0
tS'b'
tRp1619
(I1
(I2
tg1012
I00
S'\xbe\xbci\x9a\xe8+B@8\x14\x96\x8e\x8a\x7fD\xc0'
tbag1008
(g1009
(I0
tS'b'
tRp1620
(I1
(I2
tg1012
I00
S'\xb8\xbd\xab\x9f/\xce?@\xb0e"\x02AgB\xc0'
tbag1008
(g1009
(I0
tS'b'
tRp1621
(I1
(I2
tg1012
I00
S'\xf2\x81\xa2\xc3\x96\xbcK\xc0b\xae\xd0\xfb\xd9\xd9D\xc0'
tbag1008
(g1009
(I0
tS'b'
tRp1622
(I1
(I2
tg1012
I00
S'\x10q\xd57\x0fl@@\x1e\r\x1bCY\x97E\xc0'
tbag1008
(g1009
(I0
tS'b'
tRp1623
(I1
(I2
tg1012
I00
S'(\xdfHy\xc3\x84%@\xdc\xa1G\xf4\x15\xccC@'
tbag1008
(g1009
(I0
tS'b'
tRp1624
(I1
(I2
tg1012
I00
S'\xdf\xf3\xabr\x8c\xc3<\xc0\xc9\xdc]\xcb\x17\xa0J\xc0'
tbag1008
(g1009
(I0
tS'b'
tRp1625
(I1
(I2
tg1012
I00
S'h\x1a\xb2q\x99\x7f\x1f\xc0\xac\x96\x86\xdb\x18A3\xc0'
tbag1008
(g1009
(I0
tS'b'
tRp1626
(I1
(I2
tg1012
I00
S':\xee^\xa3\xb9\x8fM@\x82\x8e\x12\x88\xa1\x9d=\xc0'
tbag1008
(g1009
(I0
tS'b'
tRp1627
(I1
(I2
tg1012
I00
S'\xe0+B\xf3z`$@\x14Z\xc5\x8f\x94\xd12@'
tbag1008
(g1009
(I0
tS'b'
tRp1628
(I1
(I2
tg1012
I00
S'\xc0\x95\xcd\x8e2\xb1\x0c@P\x89\x13\xa7@\xc3\x01\xc0'
tbag1008
(g1009
(I0
tS'b'
tRp1629
(I1
(I2
tg1012
I00
S'\xccQ\xe3\x1c\xcd\xfaI\xc0\x1e1^\x17LTC\xc0'
tbag1008
(g1009
(I0
tS'b'
tRp1630
(I1
(I2
tg1012
I00
S'`\xac\x87\n\xd3j\xf8\xbf\x08\r\xb8\xce\xcf\xbe8@'
tbag1008
(g1009
(I0
tS'b'
tRp1631
(I1
(I2
tg1012
I00
S'\xf1\x1aj\x08\xd7gK\xc0\xc9\r\xbf\x88\xb6\xbaG\xc0'
tbag1008
(g1009
(I0
tS'b'
tRp1632
(I1
(I2
tg1012
I00
S'<\x17\x8b\xc0\xe7\x99@\xc0\xd2\x8a\x8e\x8e\x80pJ\xc0'
tbag1008
(g1009
(I0
tS'b'
tRp1633
(I1
(I2
tg1012
I00
S'\x00\x08M\xe3\xc7\x1c\x11\xc0H\xbc\x87\x89L\xa3D@'
tbag1008
(g1009
(I0
tS'b'
tRp1634
(I1
(I2
tg1012
I00
S'l\x99[\x0c\x90?-\xc0\xe7\xa2\xbfpI&=\xc0'
tbag1008
(g1009
(I0
tS'b'
tRp1635
(I1
(I2
tg1012
I00
S'\xe0\xed\x1dq\xc0\x16,@@12\xbb\xd1\xd5\x03\xc0'
tbag1008
(g1009
(I0
tS'b'
tRp1636
(I1
(I2
tg1012
I00
S"0\x9c\x1a'\xc1\x04\x0b@\xfcFQ\x14\x82~E\xc0"
tbag1008
(g1009
(I0
tS'b'
tRp1637
(I1
(I2
tg1012
I00
S'\x04\xbe4\x9dw\xaa2@\x90\xe4\xc5(\xa1\xb5,@'
tbag1008
(g1009
(I0
tS'b'
tRp1638
(I1
(I2
tg1012
I00
S'\x10\x1fn\xd7\xebYL\xc0\xf2\x93\xb4\xb8IT@\xc0'
tbag1008
(g1009
(I0
tS'b'
tRp1639
(I1
(I2
tg1012
I00
S'\x9c\xab\x8e\x14\xaa\x9f=@\xaeQ\xbbE\x17\xbcJ\xc0'
tbag1008
(g1009
(I0
tS'b'
tRp1640
(I1
(I2
tg1012
I00
S'0K\xfeh\xa7\x9d\x08@\x90Pl_\xfaAA\xc0'
tbag1008
(g1009
(I0
tS'b'
tRp1641
(I1
(I2
tg1012
I00
S'\xa0\xff\xbb\xd1`\xd5\x11@XW\xe3.V\xcc@@'
tbag1008
(g1009
(I0
tS'b'
tRp1642
(I1
(I2
tg1012
I00
S'\xdc\x94aoP\xabA@~O\x94\xe2n\x14C\xc0'
tbag1008
(g1009
(I0
tS'b'
tRp1643
(I1
(I2
tg1012
I00
S'pQx\\\xd5g\x1c@\x00O\x03Rw\xee0@'
tbag1008
(g1009
(I0
tS'b'
tRp1644
(I1
(I2
tg1012
I00
S'\xbe\xce\x08E}\xa9D@\x8b\x8ba\xda\x16EG\xc0'
tbag1008
(g1009
(I0
tS'b'
tRp1645
(I1
(I2
tg1012
I00
S'\x80\x14q\xd9c\t\xf6\xbf\xd2.\x84\xf3\xbd\x7f@@'
tbag1008
(g1009
(I0
tS'b'
tRp1646
(I1
(I2
tg1012
I00
S"\xa0/I\xab\xb7\xef'@\x18\xd0\xf5\xf5\xc9\xb50@"
tbag1008
(g1009
(I0
tS'b'
tRp1647
(I1
(I2
tg1012
I00
S'\xa0_\x07\x1e\xdfb!\xc0\xf4\xc1\xaf\xe3:HA@'
tbag1008
(g1009
(I0
tS'b'
tRp1648
(I1
(I2
tg1012
I00
S'\x96\x99\xb7S\xd0\x85D\xc0\x02}\xd7\x05\xc4NF\xc0'
tbag1008
(g1009
(I0
tS'b'
tRp1649
(I1
(I2
tg1012
I00
S'`\x07\xf4\xcc\xb6\x170@r0>\x7f\xea\xe9C@'
tbag1008
(g1009
(I0
tS'b'
tRp1650
(I1
(I2
tg1012
I00
S' !7X\x13\xb8\x14\xc0\xc2*2>\x16\x16I@'
tbag1008
(g1009
(I0
tS'b'
tRp1651
(I1
(I2
tg1012
I00
S'h\x7f\x89\xa2\x94u:\xc0\xdcZ}\xb6V\xe09\xc0'
tbag1008
(g1009
(I0
tS'b'
tRp1652
(I1
(I2
tg1012
I00
S'h\x95\x9b\xe3E\x82-\xc0\xca\x89`\x98\xaerE\xc0'
tbag1008
(g1009
(I0
tS'b'
tRp1653
(I1
(I2
tg1012
I00
S'\xd0/h\x83\xd8\x00\x19@\xb8d\xba\xd4\xd2u9@'
tbag1008
(g1009
(I0
tS'b'
tRp1654
(I1
(I2
tg1012
I00
S'\xe2]\xc6I\x05|?\xc0\xd0\xce\xd4\x03E6<\xc0'
tbag1008
(g1009
(I0
tS'b'
tRp1655
(I1
(I2
tg1012
I00
S'\x18\x10$\xe6\xcaL(@\x00I\xd6\xc6\xf2\xb0\xeb\xbf'
tbag1008
(g1009
(I0
tS'b'
tRp1656
(I1
(I2
tg1012
I00
S'\xa2@\xcdwE\xd4<\xc0\xc7\xd3\x1d\xd7\xd9\x0b=\xc0'
tbag1008
(g1009
(I0
tS'b'
tRp1657
(I1
(I2
tg1012
I00
S'\x00]\xaa\x147\xa4(@4\xccY\xefv\x1d3\xc0'
tbag1008
(g1009
(I0
tS'b'
tRp1658
(I1
(I2
tg1012
I00
S'(\xe0\x12\x89y\xe1\x1f\xc0(\x9b\xa5O\xb7\xe1%@'
tbag1008
(g1009
(I0
tS'b'
tRp1659
(I1
(I2
tg1012
I00
S'\xd8\x96\xc74\xcb\xfa0@X\xa2\n{\x06y3@'
tbag1008
(g1009
(I0
tS'b'
tRp1660
(I1
(I2
tg1012
I00
S'$u\xf6\xa4\xd1\xdb<@\xe7\x03\xd4x\xa7\xa4F\xc0'
tbag1008
(g1009
(I0
tS'b'
tRp1661
(I1
(I2
tg1012
I00
S'\x00\xc6\x84\xb1\x91\x96\x0b\xc0\xde\xa5\xdeR\x84\xe2@@'
tbag1008
(g1009
(I0
tS'b'
tRp1662
(I1
(I2
tg1012
I00
S'F\xa5\n\xd9\t\xf8E@d\x87\xbd\xa3i\xd4>\xc0'
tbag1008
(g1009
(I0
tS'b'
tRp1663
(I1
(I2
tg1012
I00
S'^\xae!D\xd2\x1dM@\x17M\r\xbbr2@\xc0'
tbag1008
(g1009
(I0
tS'b'
tRp1664
(I1
(I2
tg1012
I00
S'\xd29\x98\xa1\nG@@\x02\x86\xeb\xfc~/@\xc0'
tbag1008
(g1009
(I0
tS'b'
tRp1665
(I1
(I2
tg1012
I00
S'\xa0\xb5s\xec\xf1\xe1\x12@$\xf0\xa6Bb\xe9F\xc0'
tbag1008
(g1009
(I0
tS'b'
tRp1666
(I1
(I2
tg1012
I00
S'\x00\x0710\x08\xb6\xe4\xbf\x10\x81\x97Q*[J@'
tbag1008
(g1009
(I0
tS'b'
tRp1667
(I1
(I2
tg1012
I00
S'\x98\xf6Lyy\xd1K\xc0\x18J\xb7\x07[\xf0E\xc0'
tbag1008
(g1009
(I0
tS'b'
tRp1668
(I1
(I2
tg1012
I00
S'\xda\xfb)jf\x8c7\xc0\xe1\xd6I\xe6\x06\xe6G\xc0'
tbag1008
(g1009
(I0
tS'b'
tRp1669
(I1
(I2
tg1012
I00
S'X\xd0\x94e\xcaFA@_\x03\x89\x8b\x85*I\xc0'
tbag1008
(g1009
(I0
tS'b'
tRp1670
(I1
(I2
tg1012
I00
S'\xe0\xefGQ\xfaR\xf8\xbf($\xec\xfd\x15^B@'
tbag1008
(g1009
(I0
tS'b'
tRp1671
(I1
(I2
tg1012
I00
S'>\n2\xd2U\xadH@W\xed\xdc\x0f\xc7^F\xc0'
tbag1008
(g1009
(I0
tS'b'
tRp1672
(I1
(I2
tg1012
I00
S'\x80\xb7\x9aZ\xae\x1b\x10@0\xcabe\xa7\xe64\xc0'
tbag1008
(g1009
(I0
tS'b'
tRp1673
(I1
(I2
tg1012
I00
S'(\x87\xe4\xcc\xc3\x08G\xc0\xa4\xe9\xf0\xeeH\x81A\xc0'
tbag1008
(g1009
(I0
tS'b'
tRp1674
(I1
(I2
tg1012
I00
S"\x9e%5f\x9b01\xc0\xaa\xb0Jc'\x16?\xc0"
tbag1008
(g1009
(I0
tS'b'
tRp1675
(I1
(I2
tg1012
I00
S'\xd0\xd3\xd1\x08\x04]\x17@\x92\xf7\x06\x08\xbe\x957\xc0'
tbag1008
(g1009
(I0
tS'b'
tRp1676
(I1
(I2
tg1012
I00
S'\xa0F&\xebL\xbd\xf7?\xb21z\x05\xe4\xd75\xc0'
tbag1008
(g1009
(I0
tS'b'
tRp1677
(I1
(I2
tg1012
I00
S'16\xbb\xbb6OJ\xc0\x9a\xda\xe4\x87\xb8w?\xc0'
tbag1008
(g1009
(I0
tS'b'
tRp1678
(I1
(I2
tg1012
I00
S'`\x81JMx\x04\r\xc0vk\x1f}\x13\x90J@'
tbag1008
(g1009
(I0
tS'b'
tRp1679
(I1
(I2
tg1012
I00
S'\xd4\x80\xf0\\.\xe0=@#\xd9\xc3\x96\x1e\xa1B\xc0'
tbag1008
(g1009
(I0
tS'b'
tRp1680
(I1
(I2
tg1012
I00
S'PG7\xe7\xf3H\x0e\xc0\xe4!\xa7\xf2\xf4\xc8F@'
tbag1008
(g1009
(I0
tS'b'
tRp1681
(I1
(I2
tg1012
I00
S'\xc0z["\x12A\x1a@v\x06\x95H\x04\xd5J@'
tbag1008
(g1009
(I0
tS'b'
tRp1682
(I1
(I2
tg1012
I00
S'\xb8\x84X\xdf_\xa9\x19\xc0\x90\xee\x1c\xa1\x93\x02\x16@'
tbag1008
(g1009
(I0
tS'b'
tRp1683
(I1
(I2
tg1012
I00
S'\xf0\x15>\xc8\xcc\xea&@${|@\xaa\xd3E@'
tbag1008
(g1009
(I0
tS'b'
tRp1684
(I1
(I2
tg1012
I00
S'\xc6&t\\\xb3\x802\xc0\x8eF\x18\xfb\xf4RE\xc0'
tbag1008
(g1009
(I0
tS'b'
tRp1685
(I1
(I2
tg1012
I00
S'\xe0[1\xcc\xcar\x02@\xca\x1b\xc0\x04\x0e\xdf0\xc0'
tbag1008
(g1009
(I0
tS'b'
tRp1686
(I1
(I2
tg1012
I00
S'\x88\xbe\xea\xc8@U&\xc0\xd2)\xf1?\x03\xeeE\xc0'
tbag1008
(g1009
(I0
tS'b'
tRp1687
(I1
(I2
tg1012
I00
S'\xa0\xaf}\xdd\xaf)=@\xa2\xe6\x9aA\xf2\x03@\xc0'
tbag1008
(g1009
(I0
tS'b'
tRp1688
(I1
(I2
tg1012
I00
S'\xf8\xe4U1\x87\xde/@X\xa4\xef{|T<@'
tbag1008
(g1009
(I0
tS'b'
tRp1689
(I1
(I2
tg1012
I00
S'\xa0\xca \x01)!;@~P\x00\xfc\xc8QA\xc0'
tbag1008
(g1009
(I0
tS'b'
tRp1690
(I1
(I2
tg1012
I00
S' \x88\xfc;K\xae5@N\xba\xa9\x7f7vA\xc0'
tbag1008
(g1009
(I0
tS'b'
tRp1691
(I1
(I2
tg1012
I00
S'\xc0t\xf7\xff:.\x12\xc0\x14>P2\x96qE@'
tbag1008
(g1009
(I0
tS'b'
tRp1692
(I1
(I2
tg1012
I00
S'X\xa87\x16\xfc\x04(@\xd8/\xa6|,\xc2)\xc0'
tbag1008
(g1009
(I0
tS'b'
tRp1693
(I1
(I2
tg1012
I00
S"'\x8f\xb4\xdbm\x1bB\xc0m\xbc\r\xe2I,F\xc0"
tbag1008
(g1009
(I0
tS'b'
tRp1694
(I1
(I2
tg1012
I00
S'\x88Z\xa3\x08\x8b\x16D@\r\x97\x9c\x18\xbf\x1aJ\xc0'
tbag1008
(g1009
(I0
tS'b'
tRp1695
(I1
(I2
tg1012
I00
S' \xc8v\xa6\xb1\xf4\x1b@\x9c\t!\xf4\x8e\x02L@'
tbag1008
(g1009
(I0
tS'b'
tRp1696
(I1
(I2
tg1012
I00
S"\xf8\x18'\xb6\xfc\xbe0@\xa0$\xed\xe7|\xc8,@"
tbag1008
(g1009
(I0
tS'b'
tRp1697
(I1
(I2
tg1012
I00
S'\xd9\x98\xff\xe0\xd6|M\xc0\xea\x86\x84]\x85SH\xc0'
tbag1008
(g1009
(I0
tS'b'
tRp1698
(I1
(I2
tg1012
I00
S'\xa8\x83\xc3\xa6\x14\xb4#@\xfe8\xfd\x18N\x8aJ\xc0'
tbag1008
(g1009
(I0
tS'b'
tRp1699
(I1
(I2
tg1012
I00
S'\xc8\xf0:\xd8\xf5n\x18\xc0NG\xe1&e$A@'
tbag1008
(g1009
(I0
tS'b'
tRp1700
(I1
(I2
tg1012
I00
S'\xb0\x90\x08\x82\xd3\xa4)@\xf4\x84\x9aj\xf6DB\xc0'
tbag1008
(g1009
(I0
tS'b'
tRp1701
(I1
(I2
tg1012
I00
S'\xc0\tA\x8f\xccz\x1a\xc0P?\xada\x00\xfb\x19@'
tbag1008
(g1009
(I0
tS'b'
tRp1702
(I1
(I2
tg1012
I00
S'\xb0\x98\xd3\xd6~u:@\xa0\xa5\x1f\xbd\xd4E=\xc0'
tbag1008
(g1009
(I0
tS'b'
tRp1703
(I1
(I2
tg1012
I00
S'\xe0E\x04x`\x88F\xc0\xd3\xa8\x91\x84\xf8\xdd>\xc0'
tbag1008
(g1009
(I0
tS'b'
tRp1704
(I1
(I2
tg1012
I00
S'@\x1dn&"q+@\xd8\xfb\x80\x81\xef\x82"\xc0'
tbag1008
(g1009
(I0
tS'b'
tRp1705
(I1
(I2
tg1012
I00
S'\x9cU\x86\xcc\xc5\xecA@\xb0rRq\xc3\xf1<\xc0'
tbag1008
(g1009
(I0
tS'b'
tRp1706
(I1
(I2
tg1012
I00
S'\x93VR\x0f\x9d\xbfI\xc0\x84\xd7D\xf8\xa7!F\xc0'
tbag1008
(g1009
(I0
tS'b'
tRp1707
(I1
(I2
tg1012
I00
S'\xf4\x99\x0e\xa9\x07\x1eE\xc0\xb9\xc8\xdc7\x19\x7f<\xc0'
tbag1008
(g1009
(I0
tS'b'
tRp1708
(I1
(I2
tg1012
I00
S"\xb0W\xa5\x1cv\x19'@Nx\x05#\naE@"
tbag1008
(g1009
(I0
tS'b'
tRp1709
(I1
(I2
tg1012
I00
S'\x80m\xc6\xaaJ\xad\x0f@\x88iM\xcf\xcf\x18\x19\xc0'
tbag1008
(g1009
(I0
tS'b'
tRp1710
(I1
(I2
tg1012
I00
S'\x88\xc6\xbf\xe1\xc7\xc2\x1e\xc0\xc0s\xa2\xfcH\xb6\x18@'
tbag1008
(g1009
(I0
tS'b'
tRp1711
(I1
(I2
tg1012
I00
S'\xec\xed\xa8u\xb1;0@\xfd\xb1\xc2S\xa0\xc1@\xc0'
tbag1008
(g1009
(I0
tS'b'
tRp1712
(I1
(I2
tg1012
I00
S'@\xeef\xe1\xff\xe6I@\x97\xae\xdf\xa7\xc7\x1dC\xc0'
tbag1008
(g1009
(I0
tS'b'
tRp1713
(I1
(I2
tg1012
I00
S'P\x8a\x10v\xf7\x9f\x12@>_\xa0\x88\xcce6\xc0'
tbag1008
(g1009
(I0
tS'b'
tRp1714
(I1
(I2
tg1012
I00
S'\xb0\xc4\xd3\x86\xe1\x86.@\xe5\x96h8\x8e\xb7A\xc0'
tbag1008
(g1009
(I0
tS'b'
tRp1715
(I1
(I2
tg1012
I00
S'\xec\xf9Wh\xf5\xbaI@\x00l\x8eV\rfI\xc0'
tbag1008
(g1009
(I0
tS'b'
tRp1716
(I1
(I2
tg1012
I00
S'\xe0,\xbf\x0eZ\xc22@2\xe4\x01\xec\xae\xc3?\xc0'
tbag1008
(g1009
(I0
tS'b'
tRp1717
(I1
(I2
tg1012
I00
S'\x80>K:\xdb\xf5G@\xfa\xbe\xad\x90\xff\x86@\xc0'
tbag1008
(g1009
(I0
tS'b'
tRp1718
(I1
(I2
tg1012
I00
S'\xe8\xfe\xe3\xe7\t)&@\xcaD\xab\x93\x13\x1dF@'
tbag1008
(g1009
(I0
tS'b'
tRp1719
(I1
(I2
tg1012
I00
S'\xb8b/3\xb91 @\xccN\x103\x80\xe38@'
tbag1008
(g1009
(I0
tS'b'
tRp1720
(I1
(I2
tg1012
I00
S'\xae\x87\xfb\xc8\x1a\xd7C@d\x1aU\xe2\xcb\\9\xc0'
tbag1008
(g1009
(I0
tS'b'
tRp1721
(I1
(I2
tg1012
I00
S'H\xef\xbe%\xf8\x17(@\x10r\xf66\xc26\x1f\xc0'
tbag1008
(g1009
(I0
tS'b'
tRp1722
(I1
(I2
tg1012
I00
S'\x9c\x06\x0b\xf6\xa8?F@\xe8\xd1\x11\x17\xbbGH\xc0'
tbag1008
(g1009
(I0
tS'b'
tRp1723
(I1
(I2
tg1012
I00
S'\xc8\x8e\x05\xa5\xc9=M\xc0\xf4\xe9\xf8c\x0e\tE\xc0'
tbag1008
(g1009
(I0
tS'b'
tRp1724
(I1
(I2
tg1012
I00
S'\x06\x05\x07k\x8e\xb7H@nO\x1ak\x1b\x9a:\xc0'
tbag1008
(g1009
(I0
tS'b'
tRp1725
(I1
(I2
tg1012
I00
S'P`\xef\x8a?$\x11@-\xc0\x93\x9b\xad\xf3@\xc0'
tbag1008
(g1009
(I0
tS'b'
tRp1726
(I1
(I2
tg1012
I00
S'\x00\xa1\x19\x08z|1\xc0f\x86\x0c\xd5A\x04A\xc0'
tbag1008
(g1009
(I0
tS'b'
tRp1727
(I1
(I2
tg1012
I00
S'y\xe2E\xa0\xd4\xebG\xc0\x99A\xa6\xae6@I\xc0'
tbag1008
(g1009
(I0
tS'b'
tRp1728
(I1
(I2
tg1012
I00
S' \xc1\xe0\xc8d\xcc\x18@\xf8\xb9\x1d\xcfH\xf9L@'
tbag1008
(g1009
(I0
tS'b'
tRp1729
(I1
(I2
tg1012
I00
S'@\x1d\xfe\xe6\xfc\xb7$@F6\xc5\xc14^I\xc0'
tbag1008
(g1009
(I0
tS'b'
tRp1730
(I1
(I2
tg1012
I00
S'\xa06\x02\xdf\x04\xbaG@\xaf\x05z\xc4~\x05B\xc0'
tbag1008
(g1009
(I0
tS'b'
tRp1731
(I1
(I2
tg1012
I00
S'\x88\xb5\xdb\x8f\x97nJ\xc0Z|\xee\xaec\xafD\xc0'
tbag1008
(g1009
(I0
tS'b'
tRp1732
(I1
(I2
tg1012
I00
S'\xf0\x1d\xbd\x90\x9ez$@0\xfc\x12\xb1I\xf1\x1f\xc0'
tbag1008
(g1009
(I0
tS'b'
tRp1733
(I1
(I2
tg1012
I00
S'\xd0\xe3\xb5\x87\xccN\x1a@<J\xf0pU\x9e@\xc0'
tbag1008
(g1009
(I0
tS'b'
tRp1734
(I1
(I2
tg1012
I00
S'\x86b\xf1K\x80(B@\x12\xa8|\x12\xfe\xdaA\xc0'
tbag1008
(g1009
(I0
tS'b'
tRp1735
(I1
(I2
tg1012
I00
S'\x8e\x90J\xc3\xdc\xdcI@R[s\x11\xe7\xf8H\xc0'
tbag1008
(g1009
(I0
tS'b'
tRp1736
(I1
(I2
tg1012
I00
S'\x86!\xe3C\xf6/F\xc0\x15\x92\xd7f\xb6\x85J\xc0'
tbag1008
(g1009
(I0
tS'b'
tRp1737
(I1
(I2
tg1012
I00
S'\xc0T\xfd\xd8\x16\xcd\xe8?\xf0c\xea\xfd\xf3\xac;\xc0'
tbag1008
(g1009
(I0
tS'b'
tRp1738
(I1
(I2
tg1012
I00
S'\x84k\xc1bJ`K\xc0r\xaa<3\xe8\xe5F\xc0'
tbag1008
(g1009
(I0
tS'b'
tRp1739
(I1
(I2
tg1012
I00
S'P\xdb/.\x14\r\r@(\xaf\xa9e\xb7\x03I@'
tbag1008
(g1009
(I0
tS'b'
tRp1740
(I1
(I2
tg1012
I00
S'\xaaCs.e\xab0\xc0A\x07\x8b%\xb9\xb3F\xc0'
tbag1008
(g1009
(I0
tS'b'
tRp1741
(I1
(I2
tg1012
I00
S'P\xea83T\xd6\x17@\x80\x06\xc2\xfa\x1e\xf4\x1e\xc0'
tbag1008
(g1009
(I0
tS'b'
tRp1742
(I1
(I2
tg1012
I00
S'\x98\xee\x0e|\xd1\x1e,@Zm\xb3\xf7\xbc\xd0M@'
tbag1008
(g1009
(I0
tS'b'
tRp1743
(I1
(I2
tg1012
I00
S'(\x9eC\x0b\xbd,H\xc0\x8e\x8e\x04\xb7\xbc\xc0A\xc0'
tbag1008
(g1009
(I0
tS'b'
tRp1744
(I1
(I2
tg1012
I00
S'\xb8\xc1E\x89\x1e\x8f&@\xac\xdf\x8c\xf0\xe5y0@'
tbag1008
(g1009
(I0
tS'b'
tRp1745
(I1
(I2
tg1012
I00
S'\x00\xa5\x8a\t$\\\x0b@\x8et\xa6B\xad\xb9J@'
tbag1008
(g1009
(I0
tS'b'
tRp1746
(I1
(I2
tg1012
I00
S'0\xc1\xc4\xc0A\x94\x0e\xc0\xcaD]\xb3\x89Z6\xc0'
tbag1008
(g1009
(I0
tS'b'
tRp1747
(I1
(I2
tg1012
I00
S'\xd8\xb6\x87[\x15tA@c0\xa1a1\xb4H\xc0'
tbag1008
(g1009
(I0
tS'b'
tRp1748
(I1
(I2
tg1012
I00
S'\x00\xc8e\xd84\n@\xc0\x8cz\x8e\xc6V\xa0B\xc0'
tbag1008
(g1009
(I0
tS'b'
tRp1749
(I1
(I2
tg1012
I00
S'\xc0\xee\xdf\x1c\xb9\x9c/@@\xec\x86\xa6\xc06D\xc0'
tbag1008
(g1009
(I0
tS'b'
tRp1750
(I1
(I2
tg1012
I00
S'\xa0\x03V\x88\xf9}\x1e@\x806\x15\x06\xacJ\xe9\xbf'
tbag1008
(g1009
(I0
tS'b'
tRp1751
(I1
(I2
tg1012
I00
S'`@_\x91\x04Y,@hu\xb7}\x92h@@'
tbag1008
(g1009
(I0
tS'b'
tRp1752
(I1
(I2
tg1012
I00
S'\xa0\x02\xcb(}S\xf5? \xaf\xc2\x95-\xc0=@'
tbag1008
(g1009
(I0
tS'b'
tRp1753
(I1
(I2
tg1012
I00
S' \xe6}\xd4bY\x1c\xc0\xc8K\x18\x9b\xc7\xbcD@'
tbag1008
(g1009
(I0
tS'b'
tRp1754
(I1
(I2
tg1012
I00
S'@\xc6fcu\xde\x15\xc0r\xfd\x18w]\xadI@'
tbag1008
(g1009
(I0
tS'b'
tRp1755
(I1
(I2
tg1012
I00
S'T\x0cQ\xc1\xcc_L@\xc2\x87\xfc\x02\xd2\xf5D\xc0'
tbag1008
(g1009
(I0
tS'b'
tRp1756
(I1
(I2
tg1012
I00
S'\x10\xd2hz\x0b\x1f\r\xc0*\xf3\x83\x02}\xa0F\xc0'
tbag1008
(g1009
(I0
tS'b'
tRp1757
(I1
(I2
tg1012
I00
S'\x80\xa3wuU\xc5\xd1?\xb0\x19\xff\xc9\x18\x99!@'
tbag1008
(g1009
(I0
tS'b'
tRp1758
(I1
(I2
tg1012
I00
S'\xc8\x8b-\xf0\xec\x05/@P\xce\xe6\xc3,~"@'
tbag1008
(g1009
(I0
tS'b'
tRp1759
(I1
(I2
tg1012
I00
S'P\xc4\xed\x1f\t%>@\\\xfe\x9bE}\xe8=\xc0'
tbag1008
(g1009
(I0
tS'b'
tRp1760
(I1
(I2
tg1012
I00
S'\xf8{Y!}\xb8>\xc0\xbe)\x88\xe8\xf3\xf9E\xc0'
tbag1008
(g1009
(I0
tS'b'
tRp1761
(I1
(I2
tg1012
I00
S'\xa0\xe1\x1e\xbf\xfc\x06\x1a@\xebI\xe3\x0eh\x18J\xc0'
tbag1008
(g1009
(I0
tS'b'
tRp1762
(I1
(I2
tg1012
I00
S'`J\xcd{L\x19 @($qU\xc1O(@'
tbag1008
(g1009
(I0
tS'b'
tRp1763
(I1
(I2
tg1012
I00
S'\x00,\x1b\xa5\xba7\x1a@\xe2\x8c6\x81%\xe2G@'
tbag1008
(g1009
(I0
tS'b'
tRp1764
(I1
(I2
tg1012
I00
S'@m\x97(\x12\xd6\x1b@C\x14\xc4\xce\xfc\x92<\xc0'
tbag1008
(g1009
(I0
tS'b'
tRp1765
(I1
(I2
tg1012
I00
S'\x90w\x91{\xde\xc4\x01\xc0\xdc\xba\x9e\xfb\xb2EH@'
tbag1008
(g1009
(I0
tS'b'
tRp1766
(I1
(I2
tg1012
I00
S'pW\x03\xd9\xa3gB@\xd6\xb0Z\xdc\t\x94F\xc0'
tbag1008
(g1009
(I0
tS'b'
tRp1767
(I1
(I2
tg1012
I00
S'\xd0b\xab:fP\x18@|\xcc\xf7/\x1f\x84L@'
tbag1008
(g1009
(I0
tS'b'
tRp1768
(I1
(I2
tg1012
I00
S'\xec\x90\xfeOZ_K@\x08<\xba\xd4%\x149\xc0'
tbag1008
(g1009
(I0
tS'b'
tRp1769
(I1
(I2
tg1012
I00
S'@4\x12\xf0|\x96\x05\xc0\xa2iy\x125sD\xc0'
tbag1008
(g1009
(I0
tS'b'
tRp1770
(I1
(I2
tg1012
I00
S'\xb0\\\x0b\xdf%\x1c+@\x04\x91\xb8}\xab\x07H\xc0'
tbag1008
(g1009
(I0
tS'b'
tRp1771
(I1
(I2
tg1012
I00
S'\xb0\x9b\xbd\xefr./@dW\xe70B\xb93@'
tbag1008
(g1009
(I0
tS'b'
tRp1772
(I1
(I2
tg1012
I00
S'\x189\x8d~1CB@\xa2\xf7d2\xf9\x0eB\xc0'
tbag1008
(g1009
(I0
tS'b'
tRp1773
(I1
(I2
tg1012
I00
S' \x9c\xedf*\x9d\x1c\xc0(\x81-\xfa<\x04I@'
tbag1008
(g1009
(I0
tS'b'
tRp1774
(I1
(I2
tg1012
I00
S'\xe0\xcb\x8b};R\x03@\x9a\x92\x13\x05\n\xec>\xc0'
tbag1008
(g1009
(I0
tS'b'
tRp1775
(I1
(I2
tg1012
I00
S'\x98\xc0\x0e\xc1\xb2\x1c,@\x80\x96\xc6\x87Or:@'
tbag1008
(g1009
(I0
tS'b'
tRp1776
(I1
(I2
tg1012
I00
S'\xb0\x14\xae\xf5%\x139@fU\xe4]G\xe0B\xc0'
tbag1008
(g1009
(I0
tS'b'
tRp1777
(I1
(I2
tg1012
I00
S',\xc7es\xca\xaaA\xc0\x00\xe7\xc3\xf4\xbdcE\xc0'
tbag1008
(g1009
(I0
tS'b'
tRp1778
(I1
(I2
tg1012
I00
S'\xf0\xe0[6Hi!@*\xbe`\xc4\xd6\xde:\xc0'
tbag1008
(g1009
(I0
tS'b'
tRp1779
(I1
(I2
tg1012
I00
S'\xf4\xe58\xd11\xc12@\xc4B\xda\x95\xd6\xeaD\xc0'
tbag1008
(g1009
(I0
tS'b'
tRp1780
(I1
(I2
tg1012
I00
S'\x90\xe1\x08D\x05C(@\xd85\x1aO\x9a\xf1$@'
tbag1008
(g1009
(I0
tS'b'
tRp1781
(I1
(I2
tg1012
I00
S'\x00Em\xde\x86\x13\x07\xc0H\xcb\xcc\x1a\xf9\xb9$\xc0'
tbag1008
(g1009
(I0
tS'b'
tRp1782
(I1
(I2
tg1012
I00
S'\xdc\x06\xd5U\n\xf0>@pHn\xb1E\xcbF\xc0'
tbag1008
(g1009
(I0
tS'b'
tRp1783
(I1
(I2
tg1012
I00
S"\xf8-\x02\xea'\x9c\x17\xc0\xac\xd7\x1a\xf0\xb7\xbf;@"
tbag1008
(g1009
(I0
tS'b'
tRp1784
(I1
(I2
tg1012
I00
S'X\xff-+\x01\xa00@p2V\xe8\xef\x1c(@'
tbag1008
(g1009
(I0
tS'b'
tRp1785
(I1
(I2
tg1012
I00
S'\xd0\\\xcc\xc5#48@4\xcc]\xe8KV@\xc0'
tbag1008
(g1009
(I0
tS'b'
tRp1786
(I1
(I2
tg1012
I00
S'@=SQ\xbb\xde\x06@l\x0b}\x19\xf9`/\xc0'
tbag1008
(g1009
(I0
tS'b'
tRp1787
(I1
(I2
tg1012
I00
S'\xe0\xfc+\xbck\xd4\x0e\xc00y\xa8\xca4\xe4D@'
tbag1008
(g1009
(I0
tS'b'
tRp1788
(I1
(I2
tg1012
I00
S'\xfc\x1e\x05V\x15\xe82@\xe2T\xba3Q F@'
tbag1008
(g1009
(I0
tS'b'
tRp1789
(I1
(I2
tg1012
I00
S'\xd0\x0en\xdf\xdf\xffD@\x18\xd9\xa3\x98\xd0h9\xc0'
tbag1008
(g1009
(I0
tS'b'
tRp1790
(I1
(I2
tg1012
I00
S'4*GuB3%\xc0tW\xd8\\>\xd9I\xc0'
tbag1008
(g1009
(I0
tS'b'
tRp1791
(I1
(I2
tg1012
I00
S'p\xd7\'"ev!\xc0\xd4u\x1f\xab\x16\xa6B\xc0'
tbag1008
(g1009
(I0
tS'b'
tRp1792
(I1
(I2
tg1012
I00
S'\xd0\xb4\x1f\xfa\x93\xda)@\x98\xc4=<]\xf3#\xc0'
tbag1008
(g1009
(I0
tS'b'
tRp1793
(I1
(I2
tg1012
I00
S'\x00\x1b\x12vU\xfd\x06\xc0\x061:\xddD\xfcA@'
tbag1008
(g1009
(I0
tS'b'
tRp1794
(I1
(I2
tg1012
I00
S'<\xf5W!\xdc\xe6 \xc0\x9c\xbd\xb8\xe7\t.A\xc0'
tbag1008
(g1009
(I0
tS'b'
tRp1795
(I1
(I2
tg1012
I00
S'\xd8\x0em\xe0\x96\xe7@\xc0\xe4+u\xdd\xed\xe2E\xc0'
tbag1008
(g1009
(I0
tS'b'
tRp1796
(I1
(I2
tg1012
I00
S'\x08\\a\xf4\xf7\xb03@j\rD\x90\xed\rI\xc0'
tbag1008
(g1009
(I0
tS'b'
tRp1797
(I1
(I2
tg1012
I00
S'\x80\xeb\x9d\xf28\xf9\x1b@`\xe8}|}m\xf6?'
tbag1008
(g1009
(I0
tS'b'
tRp1798
(I1
(I2
tg1012
I00
S'\tX\x86\xcb\x02\x7fH\xc0l\x13\xeb\xd3X\xdd=\xc0'
tbag1008
(g1009
(I0
tS'b'
tRp1799
(I1
(I2
tg1012
I00
S'\x00\\\xc2u`\xc5\xa0\xbf\xa8\x15o\x92\x91\xc5 @'
tbag1008
(g1009
(I0
tS'b'
tRp1800
(I1
(I2
tg1012
I00
S'X\n\x82+l\xb38@\x12\xc8hwa\x85E\xc0'
tbag1008
(g1009
(I0
tS'b'
tRp1801
(I1
(I2
tg1012
I00
S'\xe0\xe2c\xc5\xbc\x81\x12@&\x1d\xa9\xd9\xfdz@\xc0'
tbag1008
(g1009
(I0
tS'b'
tRp1802
(I1
(I2
tg1012
I00
S'\x00\x85&a\\\xf1\xe6\xbf\x00\xd0\xaa\x19Ft\xca?'
tbag1008
(g1009
(I0
tS'b'
tRp1803
(I1
(I2
tg1012
I00
S"\x88~\x14\xd0'\xd4\x18\xc0>\xf2\xc8?\xf3wB@"
tbag1008
(g1009
(I0
tS'b'
tRp1804
(I1
(I2
tg1012
I00
S'\xd8,\x0c\x92\x90\xe1&@\x82\x83\x85!J\xaf6\xc0'
tbag1008
(g1009
(I0
tS'b'
tRp1805
(I1
(I2
tg1012
I00
S'\xf0\xf2\x95\x87\xaa\xb61@hr\x10O\nr0@'
tbag1008
(g1009
(I0
tS'b'
tRp1806
(I1
(I2
tg1012
I00
S'\x08,\x86\xfd\xad\xb95@\xacu\x8d\x16S[>\xc0'
tbag1008
(g1009
(I0
tS'b'
tRp1807
(I1
(I2
tg1012
I00
S'\xa8s\xba\x81>\x1aI@\x9a\xbao\xce0|>\xc0'
tbag1008
(g1009
(I0
tS'b'
tRp1808
(I1
(I2
tg1012
I00
S'\x88\x15\xcf6\xd0\xa8\x13\xc0\x08_j\xdcs\xd6I@'
tbag1008
(g1009
(I0
tS'b'
tRp1809
(I1
(I2
tg1012
I00
S"\x18\xa3\xc1\xa9\xe8b'@\xa0\x90D\xd7\xbdq5@"
tbag1008
(g1009
(I0
tS'b'
tRp1810
(I1
(I2
tg1012
I00
S'f\xf7\xf8\xed\x89bB\xc0\x91\xf0$$\x11\\E\xc0'
tbag1008
(g1009
(I0
tS'b'
tRp1811
(I1
(I2
tg1012
I00
S'\x90\x85\x82f\x16\xd3\r@X!\x07\xc8F\x9b\x13\xc0'
tbag1008
(g1009
(I0
tS'b'
tRp1812
(I1
(I2
tg1012
I00
S"<u'2\xbc)2@\xa0\xca\xe1\xa9\x1c\xad(\xc0"
tbag1008
(g1009
(I0
tS'b'
tRp1813
(I1
(I2
tg1012
I00
S'\xcc!Dv\xb0\x911@\x1a\xe6WE\xa6e@@'
tbag1008
(g1009
(I0
tS'b'
tRp1814
(I1
(I2
tg1012
I00
S'\x88\xe3L\xbc\xf2,.@\x9a+\x85P\xab\x7f@\xc0'
tbag1008
(g1009
(I0
tS'b'
tRp1815
(I1
(I2
tg1012
I00
S'#$\x0b\xee\xdd\x93J\xc0\xe2\x92\xbc\xb8\xfa\xe1B\xc0'
tbag1008
(g1009
(I0
tS'b'
tRp1816
(I1
(I2
tg1012
I00
S'\xbe\x96\xb2\xab\xb1@:\xc0\x12\x10F\xbf\xc8\x12A\xc0'
tbag1008
(g1009
(I0
tS'b'
tRp1817
(I1
(I2
tg1012
I00
S'\xe0r0w\xabG\x10\xc0\xb7\xf6\xe7\xb4v\xccG\xc0'
tbag1008
(g1009
(I0
tS'b'
tRp1818
(I1
(I2
tg1012
I00
S'\x00\xa5\x1f,8\x0e\x1d@\x00\xd7\x1aIx\xe4\x11\xc0'
tbag1008
(g1009
(I0
tS'b'
tRp1819
(I1
(I2
tg1012
I00
S'\xec\x97\xf2"\x9ap8@\x8a\\l\xc4!\xfbA\xc0'
tbag1008
(g1009
(I0
tS'b'
tRp1820
(I1
(I2
tg1012
I00
S'\x94\xc2\xe4\x96\x11\xb1/\xc0X\xb8\xcb\x9d\x88eG\xc0'
tbag1008
(g1009
(I0
tS'b'
tRp1821
(I1
(I2
tg1012
I00
S'\xdc\x99\xd7\tS\x86H@t~75\xa1iF\xc0'
tbag1008
(g1009
(I0
tS'b'
tRp1822
(I1
(I2
tg1012
I00
S'xCO8\xe8n\x19\xc0\xc0V\xf7\x0f\xd4\xa8/@'
tbag1008
(g1009
(I0
tS'b'
tRp1823
(I1
(I2
tg1012
I00
S"P\x1cr\x9ab\x93D\xc0\xbe\xe1\x05'\xf6\xc9F\xc0"
tbag1008
(g1009
(I0
tS'b'
tRp1824
(I1
(I2
tg1012
I00
S'\xb2}\x96\xaeZRE@\x90\x9e_\xd2C\xfdB\xc0'
tbag1008
(g1009
(I0
tS'b'
tRp1825
(I1
(I2
tg1012
I00
S'\x80;\xeb\xfd\x7f\xa9\x1e@\xe2\x91\x9a\xd7\xc9\xdaH\xc0'
tbag1008
(g1009
(I0
tS'b'
tRp1826
(I1
(I2
tg1012
I00
S'\xa4VH\x8a\x0cB2@T\x8b\x80\x8d\xa8\x9aL@'
tbag1008
(g1009
(I0
tS'b'
tRp1827
(I1
(I2
tg1012
I00
S'\x00\xf5yy\xd5\\\x1c@\x14\x12^\xcaA\xe0B\xc0'
tbag1008
(g1009
(I0
tS'b'
tRp1828
(I1
(I2
tg1012
I00
S'\xb8\xe6\xfb\x14\xfa5-@pslZ\xd4UC@'
tbag1008
(g1009
(I0
tS'b'
tRp1829
(I1
(I2
tg1012
I00
S'\x00\xc0z\xcem\x94\xa3\xbf\x00\x9c\xf4Ok~\xba?'
tbag1008
(g1009
(I0
tS'b'
tRp1830
(I1
(I2
tg1012
I00
S'F\xa9\x93\xfd\x96\xd8L@{\x10%\xfb\xdf/G\xc0'
tbag1008
(g1009
(I0
tS'b'
tRp1831
(I1
(I2
tg1012
I00
S'\xa0\x8e\xe9r\x19\xc4\x03\xc0w\xa3\xbe\xf8^\x87H\xc0'
tbag1008
(g1009
(I0
tS'b'
tRp1832
(I1
(I2
tg1012
I00
S'<<\x12\xdd\xf5!1@h\x18\xb6\xfcO\x90E\xc0'
tbag1008
(g1009
(I0
tS'b'
tRp1833
(I1
(I2
tg1012
I00
S'\xe0`\xee7\xe5\x96\x18\xc0\x00s\x14t\xbd.\xce\xbf'
tbag1008
(g1009
(I0
tS'b'
tRp1834
(I1
(I2
tg1012
I00
S'\xc8\xd6o\xd1\xa2\x03 \xc0`\xa4\x92\x9b\x949D\xc0'
tbag1008
(g1009
(I0
tS'b'
tRp1835
(I1
(I2
tg1012
I00
S't\x90\x05RL\x0b5@0\xe7\x13i\xb2\x0c9\xc0'
tbag1008
(g1009
(I0
tS'b'
tRp1836
(I1
(I2
tg1012
I00
S'\xf6\x1a\x1cPg\xa3B\xc0\xd0\x82DJh\xaeJ\xc0'
tbag1008
(g1009
(I0
tS'b'
tRp1837
(I1
(I2
tg1012
I00
S'\xf0\x89\x99\x0fp\x1f \xc0\x00\xe2[G\xe9\xfd"\xc0'
tbag1008
(g1009
(I0
tS'b'
tRp1838
(I1
(I2
tg1012
I00
S'\xa0\xf7\xebn\x19\x94@@\x85\\4\xc6X,I\xc0'
tbag1008
(g1009
(I0
tS'b'
tRp1839
(I1
(I2
tg1012
I00
S'\x10\xe6\xbe-\x95\x9c-@\xca\xf9\xe23\x16\x99E@'
tbag1008
(g1009
(I0
tS'b'
tRp1840
(I1
(I2
tg1012
I00
S'\x04\xa5|as\x0fE@\n!\xd2\xecX@G\xc0'
tbag1008
(g1009
(I0
tS'b'
tRp1841
(I1
(I2
tg1012
I00
S'`\x94\xa0A\xbd*(@\xa8\xab\xde\xe7\xa5\x95-@'
tbag1008
(g1009
(I0
tS'b'
tRp1842
(I1
(I2
tg1012
I00
S'\x80\x01\xb3X\xe6\xf22@\xd0,\x01\x81\x9d\x18\x00\xc0'
tbag1008
(g1009
(I0
tS'b'
tRp1843
(I1
(I2
tg1012
I00
S'\xf8\xce+\xf7\xf3\r\x17\xc0\x88\x89\xc675\xb1\x19\xc0'
tbag1008
(g1009
(I0
tS'b'
tRp1844
(I1
(I2
tg1012
I00
S'\x8c\x0f\x95\xf0\xc5R@@Nn\xaa\x13\xd01C\xc0'
tbag1008
(g1009
(I0
tS'b'
tRp1845
(I1
(I2
tg1012
I00
S'p\x91\x94\x07\xc3>\x01\xc0\xcaz0\xd8\xab~C@'
tbag1008
(g1009
(I0
tS'b'
tRp1846
(I1
(I2
tg1012
I00
S'$#A\xb2glF\xc0\xd2G\x99q\x8e\xcdE\xc0'
tbag1008
(g1009
(I0
tS'b'
tRp1847
(I1
(I2
tg1012
I00
S' \xd97\n\xb4S5@\xad)\x16\xeeH\xefE\xc0'
tbag1008
(g1009
(I0
tS'b'
tRp1848
(I1
(I2
tg1012
I00
S'\xa9\xceR$\xcf)D\xc0L\x82e\xe4\xf7\xcfD\xc0'
tbag1008
(g1009
(I0
tS'b'
tRp1849
(I1
(I2
tg1012
I00
S'\xb4W\xdf\x16\xed\xde2@r\x9et\xb4\xf1mG@'
tbag1008
(g1009
(I0
tS'b'
tRp1850
(I1
(I2
tg1012
I00
S'`\x87\x8b\xe1\xbfs\x1e@\xde\x88\x97v\x81RH\xc0'
tbag1008
(g1009
(I0
tS'b'
tRp1851
(I1
(I2
tg1012
I00
S'\x80\xa5\n\xd68\xb1\x03@\xa2E\xab@Ec>\xc0'
tbag1008
(g1009
(I0
tS'b'
tRp1852
(I1
(I2
tg1012
I00
S'X\xa1\x15\xce\xa7x)@\xf0\x18\x97\x9c\xb7h*@'
tbag1008
(g1009
(I0
tS'b'
tRp1853
(I1
(I2
tg1012
I00
S'\xc0\xb0,&\xfeH#@\xd4\xc4\xbc\x18\xce\x8aH@'
tbag1008
(g1009
(I0
tS'b'
tRp1854
(I1
(I2
tg1012
I00
S'\xa8\x1b\x97\xa8\x9b@-@\xdck0\x14UM7@'
tbag1008
(g1009
(I0
tS'b'
tRp1855
(I1
(I2
tg1012
I00
S'\x94M\xa8\x0b\xd7-+\xc0\x93\xe6\xf5\x14XUE\xc0'
tbag1008
(g1009
(I0
tS'b'
tRp1856
(I1
(I2
tg1012
I00
S'\xa8N\xc40X\x8f@\xc0@\x9a\x83\x00\xc5A>\xc0'
tbag1008
(g1009
(I0
tS'b'
tRp1857
(I1
(I2
tg1012
I00
S'\xa0B\xbe\x0c\x81\xde@@\xb8z\xc5\x02\x0c~9\xc0'
tbag1008
(g1009
(I0
tS'b'
tRp1858
(I1
(I2
tg1012
I00
S'\x08?\xf8\xc7\xee\xa0-@\x88\x02\xe3\xe5X\xe93@'
tbag1008
(g1009
(I0
tS'b'
tRp1859
(I1
(I2
tg1012
I00
S'\xecBf\xd0B\x7fH\xc0<\xf1\xfb\xdc\xe2\xa1E\xc0'
tbag1008
(g1009
(I0
tS'b'
tRp1860
(I1
(I2
tg1012
I00
S'85\xc9\x1c\xc8R$@\xa7\x94R\xdbO\x04C\xc0'
tbag1008
(g1009
(I0
tS'b'
tRp1861
(I1
(I2
tg1012
I00
S'pH\x9b\xe3\xc4\x929\xc0\xad\xc6^\xcc*MJ\xc0'
tbag1008
(g1009
(I0
tS'b'
tRp1862
(I1
(I2
tg1012
I00
S'\xa0<\xb4;\xfc4\x1b@2\xa5\x84\xfe\x8b\xa5B\xc0'
tbag1008
(g1009
(I0
tS'b'
tRp1863
(I1
(I2
tg1012
I00
S'\x10\x18\xecE\xaa\r\x19\xc0\xd8\x8d>\x15\x9f\x02&@'
tbag1008
(g1009
(I0
tS'b'
tRp1864
(I1
(I2
tg1012
I00
S'\xfe8\xd5\xdd31C@\xa6\xe7\xaa:\x17\x1bC\xc0'
tbag1008
(g1009
(I0
tS'b'
tRp1865
(I1
(I2
tg1012
I00
S'xW%\xe1\x15-$\xc0D:\x1a\n+r9\xc0'
tbag1008
(g1009
(I0
tS'b'
tRp1866
(I1
(I2
tg1012
I00
S"\x89'\xbd\xcf\xad\x9eM\xc0\xbb\xe8:\xcf\xe4\x86E\xc0"
tbag1008
(g1009
(I0
tS'b'
tRp1867
(I1
(I2
tg1012
I00
S'p~\xf3\xd4\x0c1!@$\x07\x8f% \xeaA@'
tbag1008
(g1009
(I0
tS'b'
tRp1868
(I1
(I2
tg1012
I00
S'\x1c\x97D\xd3\xf1\x82<@,\x10\x8b2xgC\xc0'
tbag1008
(g1009
(I0
tS'b'
tRp1869
(I1
(I2
tg1012
I00
S' \xb2\xdd\xf3\t\xa5\x12\xc0\x06\xeeK\xeb\xa21@@'
tbag1008
(g1009
(I0
tS'b'
tRp1870
(I1
(I2
tg1012
I00
S',\x99\xd4.\xc1\xd3H\xc0\xf1\x07\xf37H\xf9@\xc0'
tbag1008
(g1009
(I0
tS'b'
tRp1871
(I1
(I2
tg1012
I00
S'\x82\x1a5\xf5\x15\x92E@s\x03\xddg\x96\xc5I\xc0'
tbag1008
(g1009
(I0
tS'b'
tRp1872
(I1
(I2
tg1012
I00
S'\x80\xb5Z\x86h\xea\x15@$]|\xe2k9?@'
tbag1008
(g1009
(I0
tS'b'
tRp1873
(I1
(I2
tg1012
I00
S'l\xcc\x0b&\x06\x9fH\xc0\xf0Pe\x01\x976F\xc0'
tbag1008
(g1009
(I0
tS'b'
tRp1874
(I1
(I2
tg1012
I00
S'\xb2\xc3\xe7\xc2*\xeeF@\xdc\x96\x8b\x8bA\x1d>\xc0'
tbag1008
(g1009
(I0
tS'b'
tRp1875
(I1
(I2
tg1012
I00
S'4\x13\x10K\x16\x8fC@\xa8\xfc\xd7\xb8\xd6\x13C\xc0'
tbag1008
(g1009
(I0
tS'b'
tRp1876
(I1
(I2
tg1012
I00
S'\xb4m|\x0b)\xe6 \xc0\xa0\xfc\xcb@I\x8c\xff?'
tbag1008
(g1009
(I0
tS'b'
tRp1877
(I1
(I2
tg1012
I00
S'\x08=dU\xa8\x04\x17\xc0\xe4\\\x00\xfc\x91"H@'
tbag1008
(g1009
(I0
tS'b'
tRp1878
(I1
(I2
tg1012
I00
S"\x00\xc8'\xa5i\xe5\xf4?p.8\xb3\xf6\xed5\xc0"
tbag1008
(g1009
(I0
tS'b'
tRp1879
(I1
(I2
tg1012
I00
S'\x9e\xd8\xde\xaa\xedU6\xc0T\x82\x8a\xdf\xf6\xf5:\xc0'
tbag1008
(g1009
(I0
tS'b'
tRp1880
(I1
(I2
tg1012
I00
S'\xd0O9\xf23\xca\x04\xc0\xf0\x8ab\x7f\xe0s6\xc0'
tbag1008
(g1009
(I0
tS'b'
tRp1881
(I1
(I2
tg1012
I00
S'\xc0\xa1\xc4\x88\xf2\x9c\xfc?\xbe\x06\x89\xbc\xfb\xb7?\xc0'
tbag1008
(g1009
(I0
tS'b'
tRp1882
(I1
(I2
tg1012
I00
S"\xb0c\xa63\xa4\xd3'@]\xeay\x169\x17J\xc0"
tbag1008
(g1009
(I0
tS'b'
tRp1883
(I1
(I2
tg1012
I00
S'\x06\xb5\xddT\x92\x84F@#=l\xe1\xe9\xc7<\xc0'
tbag1008
(g1009
(I0
tS'b'
tRp1884
(I1
(I2
tg1012
I00
S'8\xa1m\xc5\xc1\xcdD@ab-\x913\xf8E\xc0'
tbag1008
(g1009
(I0
tS'b'
tRp1885
(I1
(I2
tg1012
I00
S'D^\x05R\x8dz-\xc0\xabZ\x80P\x0eCH\xc0'
tbag1008
(g1009
(I0
tS'b'
tRp1886
(I1
(I2
tg1012
I00
S'\xb0m\x98\x02\xfe5\x0c@\x08C\xb7\xc2Ut@@'
tbag1008
(g1009
(I0
tS'b'
tRp1887
(I1
(I2
tg1012
I00
S'\x88\xa2\xfe\x03\x7fz0@\x00W\x03\x12(\x94*\xc0'
tbag1008
(g1009
(I0
tS'b'
tRp1888
(I1
(I2
tg1012
I00
S'\x04\x11\xe9\x07\x9e\x822\xc0\xacM\x07v\x1b\xbd=\xc0'
tbag1008
(g1009
(I0
tS'b'
tRp1889
(I1
(I2
tg1012
I00
S'0\xef\xc2\xe2\xb2\xb2>@\xce4\xf4\xf3\xf0*A\xc0'
tbag1008
(g1009
(I0
tS'b'
tRp1890
(I1
(I2
tg1012
I00
S'\x0ebQ>\xf3)H\xc0\xdc\xec\x10\x0eQL9\xc0'
tbag1008
(g1009
(I0
tS'b'
tRp1891
(I1
(I2
tg1012
I00
S'\x10\xe3m\xbc\x0cD\t@(\xa1\x9c\xc8\x1e\n1\xc0'
tbag1008
(g1009
(I0
tS'b'
tRp1892
(I1
(I2
tg1012
I00
S'\x00X0/\nY\xd2\xbf\xc0\'\xbf\xaac"*\xc0'
tbag1008
(g1009
(I0
tS'b'
tRp1893
(I1
(I2
tg1012
I00
S'\xd2$\x97\x80\x96\x0fI\xc0,rH\x19eg@\xc0'
tbag1008
(g1009
(I0
tS'b'
tRp1894
(I1
(I2
tg1012
I00
S'\x82\xfaV\xef\x9f=D@\xa9\xcb\xa0\xcb\xcd6>\xc0'
tbag1008
(g1009
(I0
tS'b'
tRp1895
(I1
(I2
tg1012
I00
S'c\x8b\x89z\xa6\xb7H\xc0\x9cdC\xb4wYB\xc0'
tbag1008
(g1009
(I0
tS'b'
tRp1896
(I1
(I2
tg1012
I00
S'.\x8a\xf5\xf0\xa1\xeaH@2\xb4\x8b\xc3\xc3\xdcE\xc0'
tbag1008
(g1009
(I0
tS'b'
tRp1897
(I1
(I2
tg1012
I00
S'\xa8Y\x8bD\xc7a\x13\xc0pV\x87\x0c\xf9s.@'
tbag1008
(g1009
(I0
tS'b'
tRp1898
(I1
(I2
tg1012
I00
S'<\xfc\xe6\xe0KP4\xc0\x8a\xf6\xeb\xcc\xbf\xccB\xc0'
tbag1008
(g1009
(I0
tS'b'
tRp1899
(I1
(I2
tg1012
I00
S'\x10\xe4\x1c\x06OA.@\x04\x17\x87\xe2\xae\x846@'
tbag1008
(g1009
(I0
tS'b'
tRp1900
(I1
(I2
tg1012
I00
S'\x08\xc2\xdfy\xf3.\x14\xc0\x9a/\xdd/_\x91F@'
tbag1008
(g1009
(I0
tS'b'
tRp1901
(I1
(I2
tg1012
I00
S'`R\xf9\x01\x14L\x04@@\xf4\x87[\x1dX\x10@'
tbag1008
(g1009
(I0
tS'b'
tRp1902
(I1
(I2
tg1012
I00
S'\xe6b_Oq\x86I@\xdc:\xd5\x18Gu<\xc0'
tbag1008
(g1009
(I0
tS'b'
tRp1903
(I1
(I2
tg1012
I00
S'0e\xb8\x11\xdb\x07,@\x8c_?T\xd6"C\xc0'
tbag1008
(g1009
(I0
tS'b'
tRp1904
(I1
(I2
tg1012
I00
S'\\\xb2\xf8\x10\xea\x147@\xb0\xe4\x03\x83\nvD\xc0'
tbag1008
(g1009
(I0
tS'b'
tRp1905
(I1
(I2
tg1012
I00
S'0Y\xe4\x08\x91\xbe\x1e@\x066\xfd\x1b\xea\x9b=\xc0'
tbag1008
(g1009
(I0
tS'b'
tRp1906
(I1
(I2
tg1012
I00
S'\xee\x05|\xc7\xaa!3\xc0&d\x97\xcd\xd8\xb8G\xc0'
tbag1008
(g1009
(I0
tS'b'
tRp1907
(I1
(I2
tg1012
I00
S"2XK\x99s\xbe7\xc0\xa2\xcd\x86}'IF\xc0"
tbag1008
(g1009
(I0
tS'b'
tRp1908
(I1
(I2
tg1012
I00
S'\x11\x03\xef\xc1\xccGC\xc0\xe4\xbd\x8avF.I\xc0'
tbag1008
(g1009
(I0
tS'b'
tRp1909
(I1
(I2
tg1012
I00
S'\x9aX\xdb6H\xfd>\xc0F0\xd54k\xb4F\xc0'
tbag1008
(g1009
(I0
tS'b'
tRp1910
(I1
(I2
tg1012
I00
S'E\xc1\x00\xff}\x10J\xc0%po\x00v\x07B\xc0'
tbag1008
(g1009
(I0
tS'b'
tRp1911
(I1
(I2
tg1012
I00
S'\xa0\xd9\x8a\x88\xa7\xed \xc0\x00T\xb2:{\xd4\xbf?'
tbag1008
(g1009
(I0
tS'b'
tRp1912
(I1
(I2
tg1012
I00
S'n\x9e\x82\xdaW\x031\xc0N\x15H\xd3q?D\xc0'
tbag1008
(g1009
(I0
tS'b'
tRp1913
(I1
(I2
tg1012
I00
S'\xec\xa0\xf3\xd0*\'"\xc0R\'yq\xc3$E\xc0'
tbag1008
(g1009
(I0
tS'b'
tRp1914
(I1
(I2
tg1012
I00
S"`\xa9lXv '@(M\x89\xb4\xdfH'\xc0"
tbag1008
(g1009
(I0
tS'b'
tRp1915
(I1
(I2
tg1012
I00
S'\x98v65\x01\xa91@\x8f\xbaxx4\x11F\xc0'
tbag1008
(g1009
(I0
tS'b'
tRp1916
(I1
(I2
tg1012
I00
S'\x94~ieD\x891@\x82\x05_\xcc\xe9_H\xc0'
tbag1008
(g1009
(I0
tS'b'
tRp1917
(I1
(I2
tg1012
I00
S'\xa0|\x8b\xfe\xb5\xa9;\xc0\xf2R\xa337QF\xc0'
tbag1008
(g1009
(I0
tS'b'
tRp1918
(I1
(I2
tg1012
I00
S'\xd2\xbc$\xd2[\x0fI@\x87\xb7\xa4\x1c\xff\xcf=\xc0'
tbag1008
(g1009
(I0
tS'b'
tRp1919
(I1
(I2
tg1012
I00
S'\xb6\xb9\xc3\xb0\xaa\xc9D@\x1egmr\xb1\x8aG\xc0'
tbag1008
(g1009
(I0
tS'b'
tRp1920
(I1
(I2
tg1012
I00
S' O\n\xb0\xd8\xb6\xfc\xbfD\x10\x16\xadV\x9eE\xc0'
tbag1008
(g1009
(I0
tS'b'
tRp1921
(I1
(I2
tg1012
I00
S'p.\xcc\x97\xb8i)@\x106R\xf3\xd7\xc7G\xc0'
tbag1008
(g1009
(I0
tS'b'
tRp1922
(I1
(I2
tg1012
I00
S'dG\x1b\xa4\x0f>0@\xee\xea\xb2G\xebHC@'
tbag1008
(g1009
(I0
tS'b'
tRp1923
(I1
(I2
tg1012
I00
S'\xb0\xf1a\xc6:9C@%\x99\xe4\x03M\x7f?\xc0'
tbag1008
(g1009
(I0
tS'b'
tRp1924
(I1
(I2
tg1012
I00
S'\xa0\xbc\xc8\xa0\xc8\x8f\x1a\xc0pn\xce\x11@\xa4\x11@'
tbag1008
(g1009
(I0
tS'b'
tRp1925
(I1
(I2
tg1012
I00
S'\x8c5}q\x1d\xedD@\x81\x95\rd]\x9cH\xc0'
tbag1008
(g1009
(I0
tS'b'
tRp1926
(I1
(I2
tg1012
I00
S'@\x98U"\xd1( \xc0\xc01\x9aEu\x87\x16@'
tbag1008
(g1009
(I0
tS'b'
tRp1927
(I1
(I2
tg1012
I00
S'O\xb0\x9b\xbd\x1bBA\xc0\xa2>\xa7\x98+OG\xc0'
tbag1008
(g1009
(I0
tS'b'
tRp1928
(I1
(I2
tg1012
I00
S'\xe0\x01\xe4\x07<\x86\x14@8\\\xc3\xd3\xfb@K@'
tbag1008
(g1009
(I0
tS'b'
tRp1929
(I1
(I2
tg1012
I00
S'\x80C\x1d\x98\xb8\x91\x0e\xc0\xd8 p!a\xc9*@'
tbag1008
(g1009
(I0
tS'b'
tRp1930
(I1
(I2
tg1012
I00
S'\xb8\xed\xf6\xb2\x80,9\xc0R\xfe$\xb0\x9d\x15<\xc0'
tbag1008
(g1009
(I0
tS'b'
tRp1931
(I1
(I2
tg1012
I00
S'P\xeb\x07`f,\x0e@\xc85>\xa0\xf844\xc0'
tbag1008
(g1009
(I0
tS'b'
tRp1932
(I1
(I2
tg1012
I00
S'`\x19J\x1f\x1c\x90\x1c@\xe0\xeb\x97\xc2\xd9J\x1f@'
tbag1008
(g1009
(I0
tS'b'
tRp1933
(I1
(I2
tg1012
I00
S'\xa8\x8f;RQ(\x19\xc0\x88\xc7\xf4\x08\x82\x1b,\xc0'
tbag1008
(g1009
(I0
tS'b'
tRp1934
(I1
(I2
tg1012
I00
S'\xb8\x01KK\xe1\xdf=@\xd0\xa6\x9cF\x1c\x9bF\xc0'
tbag1008
(g1009
(I0
tS'b'
tRp1935
(I1
(I2
tg1012
I00
S'\xab\x7f+\xa9\x81cM\xc0\xf8?\xc6\xf0S\xc0J\xc0'
tbag1008
(g1009
(I0
tS'b'
tRp1936
(I1
(I2
tg1012
I00
S'\xac\xa0\x9c\xa2E\x070@\xcc\nU1\xb4\xf5>\xc0'
tbag1008
(g1009
(I0
tS'b'
tRp1937
(I1
(I2
tg1012
I00
S'`V\xc6\xd1\x80\xf0\x00@\xa0+;\xff\xc9\x87.@'
tbag1008
(g1009
(I0
tS'b'
tRp1938
(I1
(I2
tg1012
I00
S'@N{|\xcc<\x0c\xc0\xe0\x9b\x0b\x80\x9aw9@'
tbag1008
(g1009
(I0
tS'b'
tRp1939
(I1
(I2
tg1012
I00
S', \xa4|\x17\xf77@rwy\x1f\xaf\xc9A\xc0'
tbag1008
(g1009
(I0
tS'b'
tRp1940
(I1
(I2
tg1012
I00
S'@\xeba\x94\x9f\xe7"@48{\nP\x1e6@'
tbag1008
(g1009
(I0
tS'b'
tRp1941
(I1
(I2
tg1012
I00
S"`'O\xcd\x9d],@@S\x19\xe8\x849\n\xc0"
tbag1008
(g1009
(I0
tS'b'
tRp1942
(I1
(I2
tg1012
I00
S'\xa00S!\xa6_*@K\xc2\x1dF\xf3{B\xc0'
tbag1008
(g1009
(I0
tS'b'
tRp1943
(I1
(I2
tg1012
I00
S'\x06\xe2\x88\x02JP8\xc0z\xfal1)\x1cG\xc0'
tbag1008
(g1009
(I0
tS'b'
tRp1944
(I1
(I2
tg1012
I00
S'0Td\xfd\xc2\x9f!@\xb0q\x10\xcdT\xca2\xc0'
tbag1008
(g1009
(I0
tS'b'
tRp1945
(I1
(I2
tg1012
I00
S'\xf8\x86\x00\xf2\x85\x95J@\x90\x9e\xd8\x10\xaf\xafE\xc0'
tbag1008
(g1009
(I0
tS'b'
tRp1946
(I1
(I2
tg1012
I00
S'(#DL\x15B@\xc0Z\x95\x06)\xae\xb2=\xc0'
tbag1008
(g1009
(I0
tS'b'
tRp1947
(I1
(I2
tg1012
I00
S'\x80\xe4\xa8%\x0c\x931@b\xd24S\xe2\xf8B\xc0'
tbag1008
(g1009
(I0
tS'b'
tRp1948
(I1
(I2
tg1012
I00
S'(2]\x12\x19\xff$@Pn\xa4d\xe8\xf0H@'
tbag1008
(g1009
(I0
tS'b'
tRp1949
(I1
(I2
tg1012
I00
S'8\x17\x87\x0cR\x87 @\xa0\xf8\x1d\xab\x01-\x16@'
tbag1008
(g1009
(I0
tS'b'
tRp1950
(I1
(I2
tg1012
I00
S"0\x0b\xc4\x82\xce#\x13\xc0 j\xad\xc7\x85G'@"
tbag1008
(g1009
(I0
tS'b'
tRp1951
(I1
(I2
tg1012
I00
S'\x08S\xdb%\xec\xf8/@T\xc4\xbe\x15\x11#?\xc0'
tbag1008
(g1009
(I0
tS'b'
tRp1952
(I1
(I2
tg1012
I00
S'@E"\xc6\xd5\xa4\xfa\xbf\xa4\x10\xf5\xf3aS9\xc0'
tbag1008
(g1009
(I0
tS'b'
tRp1953
(I1
(I2
tg1012
I00
S'\xa4S\x01\xa4{yH@<\xca\xbe\x1d\x93\x1dD\xc0'
tbag1008
(g1009
(I0
tS'b'
tRp1954
(I1
(I2
tg1012
I00
S'\x10E w\x04\xca\x1c@\xaeb\xe5s\x87\x89I\xc0'
tbag1008
(g1009
(I0
tS'b'
tRp1955
(I1
(I2
tg1012
I00
S'\x8c\xf3Y\xd9\x82\x14.\xc0,\xd0Yz\x1f_F\xc0'
tbag1008
(g1009
(I0
tS'b'
tRp1956
(I1
(I2
tg1012
I00
S'\xa0\xc2V\x91\xe6]\x19@,&\xce@\xb3vE@'
tbag1008
(g1009
(I0
tS'b'
tRp1957
(I1
(I2
tg1012
I00
S'\xd0\x0f\x95\xf3[\xfd\x0f\xc0\x1c\x17\xfc\x96\x80\xa8=@'
tbag1008
(g1009
(I0
tS'b'
tRp1958
(I1
(I2
tg1012
I00
S'\x80(1:K\xc4\x06@\x94O\xc1\xdf\xb7\xd7!\xc0'
tbag1008
(g1009
(I0
tS'b'
tRp1959
(I1
(I2
tg1012
I00
S'\xd9I\xf3+\xf5\xb4A\xc0\xf7\xbf\x1az?\x91?\xc0'
tbag1008
(g1009
(I0
tS'b'
tRp1960
(I1
(I2
tg1012
I00
S'\x10\x9a\x8a\xc3\x91\x9d\x12@\xa8\x16\xa7\xfa\xd4LF\xc0'
tbag1008
(g1009
(I0
tS'b'
tRp1961
(I1
(I2
tg1012
I00
S'P\x12\xa4\xe9\xb8\x04\x16\xc0J\xce\xbb\x0f\xc2\x848\xc0'
tbag1008
(g1009
(I0
tS'b'
tRp1962
(I1
(I2
tg1012
I00
S'\xb0\n\xc4\x1a\x1d6\x05\xc0t\x15\xa3\xbei\xfc8\xc0'
tbag1008
(g1009
(I0
tS'b'
tRp1963
(I1
(I2
tg1012
I00
S',c\xa0\x9eH\xc72@\x88"bp\x8c\xcfD@'
tbag1008
(g1009
(I0
tS'b'
tRp1964
(I1
(I2
tg1012
I00
S'@\xdc\xe5\xca\xd5\xc9-@ \x98\x05\x9b9\xf69\xc0'
tbag1008
(g1009
(I0
tS'b'
tRp1965
(I1
(I2
tg1012
I00
S'@\xbd\x8bs\x98z\x11\xc0rF/\x07\x18\xad:\xc0'
tbag1008
(g1009
(I0
tS'b'
tRp1966
(I1
(I2
tg1012
I00
S'\xb8D7\xd5\xb4\x9e,@`\xea\x0b\xc6eu!@'
tbag1008
(g1009
(I0
tS'b'
tRp1967
(I1
(I2
tg1012
I00
S'\xc8\x99\xdb\x98\x99\xc9\x1e\xc0\xfe\xe3\x00\xf1\x81WF@'
tbag1008
(g1009
(I0
tS'b'
tRp1968
(I1
(I2
tg1012
I00
S'x\xca\x01\x12\x87\xd5\x1e\xc0*\x992\xceK\xb5A\xc0'
tbag1008
(g1009
(I0
tS'b'
tRp1969
(I1
(I2
tg1012
I00
S'lL\xa4\xe3\xf3\xff@\xc0\xc2\x1d\xd2\x88\x14gA\xc0'
tbag1008
(g1009
(I0
tS'b'
tRp1970
(I1
(I2
tg1012
I00
S'\x04\xcbi0\xcd*=@\xd0Ha%*2C\xc0'
tbag1008
(g1009
(I0
tS'b'
tRp1971
(I1
(I2
tg1012
I00
S't\xc5\xd6\x94\x93e0@\xfa\xf2\x08\xc9[\x1bI@'
tbag1008
(g1009
(I0
tS'b'
tRp1972
(I1
(I2
tg1012
I00
S'\xe4\x9a\x1c\x83\xd4\xf8J@\xd6\xc2r\xd4\x85\xa6H\xc0'
tbag1008
(g1009
(I0
tS'b'
tRp1973
(I1
(I2
tg1012
I00
S'x\xfd\xce\x1d\xbc\xf9/@\xa8cL\xa3.$"@'
tbag1008
(g1009
(I0
tS'b'
tRp1974
(I1
(I2
tg1012
I00
S'\x9e\xea\x9d\xd4\xa2.I@\xe7Nk`\xde\xeeD\xc0'
tbag1008
(g1009
(I0
tS'b'
tRp1975
(I1
(I2
tg1012
I00
S'pR\xcbI\x81\x03\x19\xc0&\xadm\xfeg\x947\xc0'
tbag1008
(g1009
(I0
tS'b'
tRp1976
(I1
(I2
tg1012
I00
S'\xae\x13\x86\x17\xc2\xbb@@\xe1\xd6\x01\xd5\xe9\xe8F\xc0'
tbag1008
(g1009
(I0
tS'b'
tRp1977
(I1
(I2
tg1012
I00
S'\x80k[\x10\xebq,@\xf0\xc2I\xc7\x8dp3\xc0'
tbag1008
(g1009
(I0
tS'b'
tRp1978
(I1
(I2
tg1012
I00
S' Nt\x8b\x1b\xf0\x1a@j\xc1\xbf\xb4L4G\xc0'
tbag1008
(g1009
(I0
tS'b'
tRp1979
(I1
(I2
tg1012
I00
S'\xde4L\xbczb6\xc0\x0b\x18\x0e\x9c\xc5$G\xc0'
tbag1008
(g1009
(I0
tS'b'
tRp1980
(I1
(I2
tg1012
I00
S'\x80\xfe\xa8\x150\xd2\xe1?\xe0\xc8^\x13\xde\x96A\xc0'
tbag1008
(g1009
(I0
tS'b'
tRp1981
(I1
(I2
tg1012
I00
S'P\x13\x84\xf6k`\x16\xc0\x8e0\xcc_\x14\x1a0\xc0'
tbag1008
(g1009
(I0
tS'b'
tRp1982
(I1
(I2
tg1012
I00
S"\xcc6\xce'\xc8!:@\xda\x8d\xb7|\xc7NH\xc0"
tbag1008
(g1009
(I0
tS'b'
tRp1983
(I1
(I2
tg1012
I00
S'\xa6\x14\x81\xc8\xfa\xc8A@\xa2\x94\xa7ir\xd3:\xc0'
tbag1008
(g1009
(I0
tS'b'
tRp1984
(I1
(I2
tg1012
I00
S'F,\x96\xe1wTI@\x97\xbd\xaa\x9e<MJ\xc0'
tbag1008
(g1009
(I0
tS'b'
tRp1985
(I1
(I2
tg1012
I00
S'L31\x13k7A@\xe7U\x0blE(J\xc0'
tbag1008
(g1009
(I0
tS'b'
tRp1986
(I1
(I2
tg1012
I00
S'\x94\xac\x03\xe9\x03gA\xc04\xb3\xdcz*\x86B\xc0'
tbag1008
(g1009
(I0
tS'b'
tRp1987
(I1
(I2
tg1012
I00
S"\xd89\x8fm6\xfd*@\xb5\x08\xa8H',J\xc0"
tbag1008
(g1009
(I0
tS'b'
tRp1988
(I1
(I2
tg1012
I00
S'\x00\xa0E\x96/\xe8\x11\xc0r\x18\x84d[\xef0\xc0'
tbag1008
(g1009
(I0
tS'b'
tRp1989
(I1
(I2
tg1012
I00
S'\xb0\xf0\x9f\x16\xe5\x02\x15@ \xa9\x1eEK\xf2>@'
tbag1008
(g1009
(I0
tS'b'
tRp1990
(I1
(I2
tg1012
I00
S'\xdb}`|\xc4\xf8G\xc0\xb8\xc6\xcf\xd4\xbd\xc4E\xc0'
tbag1008
(g1009
(I0
tS'b'
tRp1991
(I1
(I2
tg1012
I00
S'\xdcI\xbe\x9eae5@\x16\x95\xfb<\xcdvD\xc0'
tbag1008
(g1009
(I0
tS'b'
tRp1992
(I1
(I2
tg1012
I00
S'\xc0e\xcf)Z\xe9\x0e\xc0r\xb0_y\xaa>E\xc0'
tbag1008
(g1009
(I0
tS'b'
tRp1993
(I1
(I2
tg1012
I00
S'|\x85\x02}\xd7\xc5&\xc0B\xdd\xe0:\x84\xb4E\xc0'
tbag1008
(g1009
(I0
tS'b'
tRp1994
(I1
(I2
tg1012
I00
S'P\xab\x0f\xb6$\x08\x1d@\xf8>\xd7\xddV\x15H\xc0'
tbag1008
(g1009
(I0
tS'b'
tRp1995
(I1
(I2
tg1012
I00
S'XO-\xb1n\x8c#@}\xc3Tc\xc2xG\xc0'
tbag1008
(g1009
(I0
tS'b'
tRp1996
(I1
(I2
tg1012
I00
S'\x002x\x9f\xf55\xdd\xbfts\xabY]58\xc0'
tbag1008
(g1009
(I0
tS'b'
tRp1997
(I1
(I2
tg1012
I00
S'\xa6;\x88\x7f\xa1\xbc9\xc0\xaa\x12\xd3X\x01==\xc0'
tbag1008
(g1009
(I0
tS'b'
tRp1998
(I1
(I2
tg1012
I00
S'(\xb6-\xe7\x91\xf3;@8n\xb1\xbc\xdc\x03@\xc0'
tbag1008
(g1009
(I0
tS'b'
tRp1999
(I1
(I2
tg1012
I00
S'\xf0e\xaa\xf4:t\x14@(\x8f\xebo\xfe\xba#@'
tbag1008
(g1009
(I0
tS'b'
tRp2000
(I1
(I2
tg1012
I00
S'@p\x00`\x8a\r3\xc0\x91\xbe\xa7\x9f8z@\xc0'
tbag1008
(g1009
(I0
tS'b'
tRp2001
(I1
(I2
tg1012
I00
S']\xb4\\(%n=\xc0v\x9c<\xfc\xc4xF\xc0'
tbag1008
(g1009
(I0
tS'b'
tRp2002
(I1
(I2
tg1012
I00
S'@\xe9.z\xba.4@\n\x9fO.9\x85B\xc0'
tbag1008
(g1009
(I0
tS'b'
tRp2003
(I1
(I2
tg1012
I00
S'\xb1Z\x9f\x98~I@\xc0\x83\x10\xde\x87^9B\xc0'
tbag1008
(g1009
(I0
tS'b'
tRp2004
(I1
(I2
tg1012
I00
S'\x08\xa1U\tw\xe2+@\x90\xec\xc6-Q>5\xc0'
tbag1008
(g1009
(I0
tS'b'
tRp2005
(I1
(I2
tg1012
I00
S'\x901\x0bK\x9c\x85\x1f\xc0\xde\xf9^p\xe2\xa6K@'
tbag1008
(g1009
(I0
tS'b'
tRp2006
(I1
(I2
tg1012
I00
S' \xec\x1d\xcb\xc5\xed\x04@n!\xe9\xe6\x98\x101\xc0'
tbag1008
(g1009
(I0
tS'b'
tRp2007
(I1
(I2
tg1012
I00
S'8\x0b\x19,v\x110@ \x90\xe8X`\xb9\x1e@'
tbag1008
(g1009
(I0
tS'b'
tRp2008
(I1
(I2
tg1012
I00
S' \x97 h\xa3\x9a\n@\x98Z\xc4N\x9d\x8b/@'
tbag1008
(g1009
(I0
tS'b'
tRp2009
(I1
(I2
tg1012
I00
S'p#e_B\xb87\xc0\x98\x86+\xf5\x90\xbbD\xc0'
tbag1008
(g1009
(I0
tS'b'
tRp2010
(I1
(I2
tg1012
I00
S'\xbcH\x1b\xef\xd9\x1c1\xc0Z\x86\xf4o\x10\xf6B\xc0'
tbag1008
(g1009
(I0
tS'b'
tRp2011
(I1
(I2
tg1012
I00
S'\x98\xb6\x05\xed\xc7\xb0A\xc0\xd2B\xbe\x03\xaf\xd0I\xc0'
tbas.