(dp1
S'edges'
p2
ccollections
defaultdict
p3
(c__builtin__
list
p4
tRp5
I0
(lp6
I0
aI0
aI1
aI2
aI3
aI4
aI1
aI2
aI3
aI4
asI1
(lp7
I0
aI0
aI1
aI1
aI2
aI3
aI4
aI2
aI3
aI4
asI2
(lp8
I0
aI1
aI0
aI1
aI2
aI2
aI3
aI4
aI5
aI6
aI3
aI4
aI5
aI6
asI3
(lp9
I0
aI1
aI2
aI0
aI1
aI2
aI3
aI3
aI4
aI4
asI4
(lp10
I0
aI1
aI2
aI3
aI0
aI1
aI2
aI3
aI4
aI4
asI5
(lp11
I2
aI2
aI5
aI5
aI6
aI6
asI6
(lp12
I2
aI5
aI2
aI5
aI6
aI6
assS'vertices'
p13
(lp14
cnumpy.core.multiarray
_reconstruct
p15
(cnumpy
ndarray
p16
(I0
tS'b'
tRp17
(I1
(I2
tcnumpy
dtype
p18
(S'f8'
I0
I1
tRp19
(I3
S'<'
NNNI-1
I-1
I0
tbI00
S'333333\xd3\xbf\x9a\x99\x99\x99\x99\x99\xa9\xbf'
tbag15
(g16
(I0
tS'b'
tRp20
(I1
(I2
tg19
I00
S'333333\xc3\xbf\x9a\x99\x99\x99\x99\x99\xa9\xbf'
tbag15
(g16
(I0
tS'b'
tRp21
(I1
(I2
tg19
I00
S'\x00\x00\x00\x00\x00\x00\x00\x00\x9a\x99\x99\x99\x99\x99\xa9\xbf'
tbag15
(g16
(I0
tS'b'
tRp22
(I1
(I2
tg19
I00
S'333333\xc3?\x9a\x99\x99\x99\x99\x99\xa9\xbf'
tbag15
(g16
(I0
tS'b'
tRp23
(I1
(I2
tg19
I00
S'333333\xd3?\x9a\x99\x99\x99\x99\x99\xa9\xbf'
tbag15
(g16
(I0
tS'b'
tRp24
(I1
(I2
tg19
I00
S'\x00\x00\x00\x00\x00\x00\x00\x00333333\xc3?'
tbag15
(g16
(I0
tS'b'
tRp25
(I1
(I2
tg19
I00
S'\x00\x00\x00\x00\x00\x00\x00\x00333333\xd3?'
tbas.