(dp0
S'edges'
p1
ccollections
defaultdict
p2
(c__builtin__
list
p3
tp4
Rp5
I0
(lp6
I12
aI59
aI79
aI124
aI176
aI211
aI220
aI223
aI230
asI1
(lp7
I10
aI22
aI65
aI71
aI144
aI178
aI180
aI196
aI285
asI2
(lp8
I35
aI51
aI62
aI67
aI69
aI96
aI110
aI138
aI171
aI191
aI221
aI224
aI260
aI266
aI267
aI284
aI299
asI3
(lp9
I104
aI118
aI121
aI127
aI134
aI156
aI157
aI274
asI4
(lp10
I13
aI37
aI45
aI187
aI190
aI227
aI273
asI5
(lp11
I38
aI84
aI98
aI112
aI182
aI201
aI214
aI232
aI280
aI294
asI6
(lp12
I29
aI46
aI81
aI88
aI100
aI136
aI137
aI186
aI218
aI229
asI7
(lp13
I63
aI78
aI135
aI160
aI197
aI234
aI242
asI8
(lp14
I38
aI42
aI76
aI84
aI142
aI182
aI188
aI201
aI268
asI9
(lp15
I143
aI244
asI10
(lp16
I1
aI65
aI71
aI180
aI192
aI239
aI245
asI11
(lp17
I14
aI21
aI23
aI82
aI129
aI164
aI202
aI241
aI269
asI12
(lp18
I0
aI58
aI79
aI124
aI125
aI176
aI220
aI223
aI230
asI13
(lp19
I4
aI39
aI45
aI77
aI155
aI227
aI253
asI14
(lp20
I11
aI21
aI23
aI82
aI129
aI164
aI241
aI259
aI269
asI15
(lp21
I21
aI22
aI23
aI83
aI139
aI152
aI164
aI202
aI269
asI16
(lp22
I17
aI78
aI92
aI160
aI204
asI17
(lp23
I16
aI78
aI92
aI160
aI204
asI18
(lp24
I30
aI87
aI115
aI147
aI209
aI256
aI257
aI287
asI19
(lp25
I48
aI95
aI121
aI130
aI134
aI156
aI275
aI283
asI20
(lp26
I34
aI50
aI53
aI61
aI67
aI70
aI96
aI99
aI110
aI113
aI138
aI193
aI228
aI279
asI21
(lp27
I11
aI14
aI15
aI23
aI82
aI164
aI241
aI269
asI22
(lp28
I1
aI15
aI83
aI139
aI144
aI152
aI178
aI180
aI196
aI202
aI285
asI23
(lp29
I11
aI14
aI15
aI21
aI80
aI83
aI129
aI164
aI202
aI269
aI285
asI24
(lp30
I44
asI25
(lp31
I55
aI56
aI132
aI140
aI148
aI272
asI26
(lp32
I123
aI142
aI225
aI292
asI27
(lp33
I60
aI113
aI199
aI207
aI237
asI28
(lp34
I94
aI173
aI192
aI215
aI239
aI271
asI29
(lp35
I6
aI39
aI46
aI186
aI218
asI30
(lp36
I18
aI44
aI87
aI133
aI172
aI179
aI222
aI256
aI257
aI261
aI288
asI31
(lp37
I37
aI45
aI151
aI162
aI187
aI190
aI227
aI258
asI32
(lp38
I103
aI111
aI121
aI168
aI170
aI183
aI213
aI216
aI296
asI33
(lp39
I35
aI42
aI73
aI154
aI167
aI171
aI221
aI264
aI266
aI270
asI34
(lp40
I20
aI50
aI53
aI60
aI61
aI70
aI96
aI99
aI113
aI193
aI228
aI279
aI281
asI35
(lp41
I2
aI33
aI51
aI62
aI69
aI171
aI191
aI221
aI224
aI260
aI266
aI267
aI284
aI299
asI36
(lp42
I41
aI153
aI163
aI189
aI214
aI277
aI289
asI37
(lp43
I4
aI31
aI39
aI45
aI75
aI190
aI194
aI227
aI258
aI295
asI38
(lp44
I5
aI8
aI52
aI84
aI97
aI112
aI201
aI226
aI268
aI280
aI282
asI39
(lp45
I13
aI29
aI37
aI46
aI190
aI218
aI227
aI295
asI40
(lp46
I41
aI148
aI181
aI189
aI239
asI41
(lp47
I36
aI40
aI148
aI153
aI189
aI214
aI277
asI42
(lp48
I8
aI33
aI97
aI154
aI171
aI188
aI248
aI249
aI266
asI43
(lp49
I74
aI93
aI107
aI131
aI146
aI174
aI179
aI200
aI256
aI265
asI44
(lp50
I24
aI30
aI133
aI222
aI257
aI261
aI288
asI45
(lp51
I4
aI13
aI31
aI37
aI162
aI187
aI190
aI227
aI273
asI46
(lp52
I6
aI29
aI39
aI77
aI218
aI253
asI47
(lp53
I92
aI105
aI117
aI217
asI48
(lp54
I19
aI95
aI99
aI130
aI193
aI275
aI281
aI283
asI49
(lp55
I131
aI139
aI146
aI174
aI200
aI265
asI50
(lp56
I20
aI34
aI53
aI67
aI70
aI96
aI101
aI110
aI138
aI224
aI228
aI255
aI260
aI267
aI290
aI291
aI299
asI51
(lp57
I2
aI35
aI62
aI69
aI191
aI221
aI260
aI266
aI267
aI284
asI52
(lp58
I38
aI91
aI101
aI106
aI112
aI150
aI166
aI201
aI205
aI226
aI254
aI268
aI280
aI282
asI53
(lp59
I20
aI34
aI50
aI60
aI61
aI67
aI70
aI90
aI96
aI110
aI113
aI138
aI228
asI54
(lp60
I82
aI85
aI128
aI129
aI141
aI236
aI240
aI241
aI259
aI262
asI55
(lp61
I25
aI56
aI108
aI153
aI169
aI247
aI289
aI293
asI56
(lp62
I25
aI55
aI132
aI140
aI148
aI272
asI57
(lp63
I123
aI159
aI232
aI244
aI294
asI58
(lp64
I12
aI80
aI125
aI129
aI223
asI59
(lp65
I0
aI119
aI145
aI168
aI176
aI185
aI211
aI215
aI220
aI230
asI60
(lp66
I27
aI34
aI53
aI113
aI199
aI207
aI228
aI237
aI279
asI61
(lp67
I20
aI34
aI53
aI70
aI99
aI193
aI228
aI279
aI281
asI62
(lp68
I2
aI35
aI51
aI67
aI69
aI138
aI171
aI191
aI221
aI224
aI260
aI266
aI267
aI284
aI299
asI63
(lp69
I7
aI68
aI135
aI197
aI210
aI234
aI242
asI64
(lp70
I91
aI102
aI106
aI166
aI175
aI184
aI206
aI243
aI252
aI254
asI65
(lp71
I1
aI10
aI71
aI122
aI144
aI158
aI180
aI196
aI265
asI66
(lp72
I89
aI141
aI212
aI217
asI67
(lp73
I2
aI20
aI50
aI53
aI62
aI70
aI90
aI96
aI110
aI138
aI224
aI260
aI267
aI284
aI299
asI68
(lp74
I63
aI81
aI88
aI186
aI197
aI229
aI242
asI69
(lp75
I2
aI35
aI51
aI62
aI90
aI110
aI191
aI284
aI299
asI70
(lp76
I20
aI34
aI50
aI53
aI61
aI67
aI99
aI113
aI193
aI279
asI71
(lp77
I1
aI10
aI65
aI144
aI178
aI180
aI192
aI245
asI72
(lp78
I85
aI105
aI128
aI203
aI240
aI262
asI73
(lp79
I33
aI126
aI167
aI264
aI270
asI74
(lp80
I43
aI93
aI107
aI131
aI132
aI140
aI146
aI158
aI174
aI179
aI200
aI256
aI265
asI75
(lp81
I37
aI114
aI151
aI190
aI194
aI258
aI278
aI295
asI76
(lp82
I8
aI142
aI182
aI188
aI232
aI248
aI249
aI292
aI294
asI77
(lp83
I13
aI46
aI136
aI155
aI253
aI275
asI78
(lp84
I7
aI16
aI17
aI109
aI135
aI160
aI204
aI210
aI234
asI79
(lp85
I0
aI12
aI124
aI176
aI223
aI230
asI80
(lp86
I23
aI58
aI125
aI164
aI231
aI285
asI81
(lp87
I6
aI68
aI88
aI137
aI186
aI229
asI82
(lp88
I11
aI14
aI21
aI54
aI129
aI241
aI259
aI269
asI83
(lp89
I15
aI22
aI23
aI139
aI152
aI178
aI180
aI202
aI285
asI84
(lp90
I5
aI8
aI38
aI112
aI182
aI201
aI226
aI268
aI280
asI85
(lp91
I54
aI72
aI105
aI128
aI223
aI240
aI262
asI86
(lp92
I101
aI102
aI106
aI127
aI157
aI166
aI205
aI251
aI255
aI274
aI282
aI290
aI291
asI87
(lp93
I18
aI30
aI147
aI209
aI257
aI287
asI88
(lp94
I6
aI68
aI81
aI137
aI186
aI229
asI89
(lp95
I66
aI141
aI212
aI236
asI90
(lp96
I53
aI67
aI69
asI91
(lp97
I52
aI64
aI102
aI106
aI127
aI166
aI175
aI177
aI184
aI206
aI243
aI252
aI254
asI92
(lp98
I16
aI17
aI47
aI105
aI117
aI160
aI195
aI203
aI204
asI93
(lp99
I43
aI74
aI107
aI131
aI144
aI146
aI158
aI174
aI179
aI196
aI200
aI256
aI265
asI94
(lp100
I28
aI119
aI145
aI215
aI271
asI95
(lp101
I19
aI48
aI121
aI130
aI156
aI275
aI283
asI96
(lp102
I2
aI20
aI34
aI50
aI53
aI67
aI224
aI255
aI290
asI97
(lp103
I38
aI42
aI150
aI171
aI201
aI268
aI282
asI98
(lp104
I5
aI182
aI214
aI232
asI99
(lp105
I20
aI34
aI48
aI61
aI70
aI130
aI193
aI251
aI255
aI279
aI281
asI100
(lp106
I6
aI116
aI136
aI233
asI101
(lp107
I50
aI52
aI86
aI150
aI205
aI255
aI282
aI290
aI291
asI102
(lp108
I64
aI86
aI91
aI104
aI106
aI118
aI127
aI166
aI205
aI206
aI243
aI254
aI274
asI103
(lp109
I32
aI111
aI168
aI170
aI183
aI211
aI213
aI216
aI233
aI246
aI296
asI104
(lp110
I3
aI102
aI106
aI118
aI127
aI134
aI157
aI166
aI243
aI251
aI274
asI105
(lp111
I47
aI72
aI85
aI92
aI117
aI203
aI217
aI240
asI106
(lp112
I52
aI64
aI86
aI91
aI102
aI104
aI118
aI127
aI205
aI206
aI243
aI254
aI274
asI107
(lp113
I43
aI74
aI93
aI115
aI131
aI132
aI140
aI158
aI179
aI256
asI108
(lp114
I55
aI143
aI163
aI169
aI289
aI293
asI109
(lp115
I78
aI135
aI161
aI195
aI198
aI210
aI238
aI250
aI263
asI110
(lp116
I2
aI20
aI50
aI53
aI67
aI69
asI111
(lp117
I32
aI103
aI121
aI168
aI183
aI213
aI216
aI296
asI112
(lp118
I5
aI38
aI52
aI84
aI226
aI268
aI280
asI113
(lp119
I20
aI27
aI34
aI53
aI60
aI70
aI199
aI237
asI114
(lp120
I75
aI120
aI194
aI278
aI295
asI115
(lp121
I18
aI107
aI132
aI140
aI147
aI209
aI287
asI116
(lp122
I100
aI170
aI213
aI216
aI233
aI246
asI117
(lp123
I47
aI92
aI105
aI217
asI118
(lp124
I3
aI102
aI104
aI106
aI134
aI157
aI243
aI274
asI119
(lp125
I59
aI94
aI145
aI168
aI183
aI185
aI215
aI296
asI120
(lp126
I114
aI278
aI295
asI121
(lp127
I3
aI19
aI32
aI95
aI111
aI134
aI156
aI170
aI213
aI216
aI283
asI122
(lp128
I65
aI132
aI140
aI158
aI181
aI239
aI272
asI123
(lp129
I26
aI57
aI225
asI124
(lp130
I0
aI12
aI79
aI161
aI176
aI195
aI211
aI223
aI238
aI263
asI125
(lp131
I12
aI58
aI80
aI220
aI230
aI231
aI245
asI126
(lp132
I73
aI149
aI165
aI167
aI219
aI264
aI270
asI127
(lp133
I3
aI86
aI91
aI102
aI104
aI106
aI134
aI157
aI205
aI251
asI128
(lp134
I54
aI72
aI85
aI240
aI259
aI262
asI129
(lp135
I11
aI14
aI23
aI54
aI58
aI82
aI241
aI259
aI262
asI130
(lp136
I19
aI48
aI95
aI99
aI156
aI157
aI251
aI283
asI131
(lp137
I43
aI49
aI74
aI93
aI107
aI146
aI174
aI179
aI200
aI265
asI132
(lp138
I25
aI56
aI74
aI107
aI115
aI122
aI158
aI272
asI133
(lp139
I30
aI44
aI172
aI222
aI261
aI288
asI134
(lp140
I3
aI19
aI104
aI118
aI121
aI127
aI156
aI251
aI283
asI135
(lp141
I7
aI63
aI78
aI109
aI197
aI198
aI210
aI234
aI242
asI136
(lp142
I6
aI77
aI100
aI186
aI229
asI137
(lp143
I6
aI81
aI88
aI229
asI138
(lp144
I2
aI20
aI50
aI53
aI62
aI67
asI139
(lp145
I15
aI22
aI49
aI83
aI152
asI140
(lp146
I25
aI56
aI74
aI107
aI115
aI122
aI272
asI141
(lp147
I54
aI66
aI89
aI212
aI236
aI240
asI142
(lp148
I8
aI26
aI76
aI182
aI188
aI232
aI292
aI294
asI143
(lp149
I9
aI108
aI163
aI244
aI293
asI144
(lp150
I1
aI22
aI65
aI71
aI93
aI152
aI178
aI196
aI200
asI145
(lp151
I59
aI94
aI119
aI168
aI183
aI185
aI215
aI220
aI230
asI146
(lp152
I43
aI49
aI74
aI93
aI131
aI174
asI147
(lp153
I18
aI87
aI115
aI208
aI209
aI247
aI287
asI148
(lp154
I25
aI40
aI41
aI56
aI181
aI189
aI272
asI149
(lp155
I126
aI165
aI219
aI264
aI286
aI297
aI298
asI150
(lp156
I52
aI97
aI101
aI282
aI290
aI291
asI151
(lp157
I31
aI75
aI162
aI194
aI258
asI152
(lp158
I15
aI22
aI83
aI139
aI144
aI178
aI196
aI202
aI285
asI153
(lp159
I36
aI41
aI55
aI163
aI214
aI289
asI154
(lp160
I33
aI42
aI188
aI235
aI248
aI249
aI264
aI298
asI155
(lp161
I13
aI77
aI253
aI275
asI156
(lp162
I3
aI19
aI95
aI121
aI130
aI134
aI275
asI157
(lp163
I3
aI86
aI104
aI118
aI127
aI130
asI158
(lp164
I65
aI74
aI93
aI107
aI122
aI132
asI159
(lp165
I57
aI232
aI244
aI294
asI160
(lp166
I7
aI16
aI17
aI78
aI92
aI204
asI161
(lp167
I109
aI124
aI176
aI195
aI198
aI238
aI250
aI263
asI162
(lp168
I31
aI45
aI151
aI187
aI258
aI273
asI163
(lp169
I36
aI108
aI143
aI153
aI214
aI289
aI293
asI164
(lp170
I11
aI14
aI15
aI21
aI23
aI80
asI165
(lp171
I126
aI149
aI219
aI264
aI286
aI297
asI166
(lp172
I52
aI64
aI86
aI91
aI102
aI104
aI206
aI254
asI167
(lp173
I33
aI73
aI126
aI270
asI168
(lp174
I32
aI59
aI103
aI111
aI119
aI145
aI183
aI185
aI211
aI296
asI169
(lp175
I55
aI108
aI247
aI276
aI289
aI293
asI170
(lp176
I32
aI103
aI116
aI121
aI213
aI216
aI233
aI246
asI171
(lp177
I2
aI33
aI35
aI42
aI62
aI97
aI221
asI172
(lp178
I30
aI133
aI222
aI261
aI288
asI173
(lp179
I28
aI192
aI215
aI220
aI231
aI245
aI271
asI174
(lp180
I43
aI49
aI74
aI93
aI131
aI146
aI288
asI175
(lp181
I64
aI91
aI177
aI184
aI206
aI252
aI277
asI176
(lp182
I0
aI12
aI59
aI79
aI124
aI161
aI185
aI211
aI238
aI250
aI263
asI177
(lp183
I91
aI175
aI184
aI226
aI277
aI280
asI178
(lp184
I1
aI22
aI71
aI83
aI144
aI152
asI179
(lp185
I30
aI43
aI74
aI93
aI107
aI131
aI288
asI180
(lp186
I1
aI10
aI22
aI65
aI71
aI83
asI181
(lp187
I40
aI122
aI148
aI189
aI239
asI182
(lp188
I5
aI8
aI76
aI84
aI98
aI142
aI188
aI294
asI183
(lp189
I32
aI103
aI111
aI119
aI145
aI168
aI185
aI296
asI184
(lp190
I64
aI91
aI175
aI177
aI226
aI277
asI185
(lp191
I59
aI119
aI145
aI168
aI176
aI183
asI186
(lp192
I6
aI29
aI68
aI81
aI88
aI136
asI187
(lp193
I4
aI31
aI45
aI162
aI207
aI273
asI188
(lp194
I8
aI42
aI76
aI142
aI154
aI182
aI235
aI248
aI249
asI189
(lp195
I36
aI40
aI41
aI148
aI181
aI277
asI190
(lp196
I4
aI31
aI37
aI39
aI45
aI75
aI194
aI258
aI295
asI191
(lp197
I2
aI35
aI51
aI62
aI69
asI192
(lp198
I10
aI28
aI71
aI173
aI231
aI245
asI193
(lp199
I20
aI34
aI48
aI61
aI70
aI99
aI281
asI194
(lp200
I37
aI75
aI114
aI151
aI190
aI278
asI195
(lp201
I92
aI109
aI124
aI161
aI203
aI204
aI238
aI263
asI196
(lp202
I1
aI22
aI65
aI93
aI144
aI152
asI197
(lp203
I7
aI63
aI68
aI135
aI210
aI234
aI242
asI198
(lp204
I109
aI135
aI161
aI210
aI238
aI250
aI263
asI199
(lp205
I27
aI60
aI113
aI237
asI200
(lp206
I43
aI49
aI74
aI93
aI131
aI144
asI201
(lp207
I5
aI8
aI38
aI52
aI84
aI97
asI202
(lp208
I11
aI15
aI22
aI23
aI83
aI152
asI203
(lp209
I72
aI92
aI105
aI195
asI204
(lp210
I16
aI17
aI78
aI92
aI160
aI195
asI205
(lp211
I52
aI86
aI101
aI102
aI106
aI127
aI255
aI290
aI291
asI206
(lp212
I64
aI91
aI102
aI106
aI166
aI175
aI252
asI207
(lp213
I27
aI60
aI187
aI237
aI273
asI208
(lp214
I147
aI247
aI276
aI287
asI209
(lp215
I18
aI87
aI115
aI147
aI287
asI210
(lp216
I63
aI78
aI109
aI135
aI197
aI198
aI234
aI242
asI211
(lp217
I0
aI59
aI103
aI124
aI168
aI176
aI250
asI212
(lp218
I66
aI89
aI141
aI236
asI213
(lp219
I32
aI103
aI111
aI116
aI121
aI170
aI233
aI246
asI214
(lp220
I5
aI36
aI41
aI98
aI153
aI163
asI215
(lp221
I28
aI59
aI94
aI119
aI145
aI173
aI271
asI216
(lp222
I32
aI103
aI111
aI116
aI121
aI170
aI233
aI246
asI217
(lp223
I47
aI66
aI105
aI117
asI218
(lp224
I6
aI29
aI39
aI46
aI253
asI219
(lp225
I126
aI149
aI165
aI286
aI297
asI220
(lp226
I0
aI12
aI59
aI125
aI145
aI173
aI231
aI245
asI221
(lp227
I2
aI33
aI35
aI51
aI62
aI171
asI222
(lp228
I30
aI44
aI133
aI172
aI261
asI223
(lp229
I0
aI12
aI58
aI79
aI85
aI124
asI224
(lp230
I2
aI35
aI50
aI62
aI67
aI96
asI225
(lp231
I26
aI123
aI292
asI226
(lp232
I38
aI52
aI84
aI112
aI177
aI184
asI227
(lp233
I4
aI13
aI31
aI37
aI39
aI45
asI228
(lp234
I20
aI34
aI50
aI53
aI60
aI61
aI281
asI229
(lp235
I6
aI68
aI81
aI88
aI136
aI137
asI230
(lp236
I0
aI12
aI59
aI79
aI125
aI145
aI231
asI231
(lp237
I80
aI125
aI173
aI192
aI220
aI230
asI232
(lp238
I5
aI57
aI76
aI98
aI142
aI159
asI233
(lp239
I100
aI103
aI116
aI170
aI213
aI216
aI246
asI234
(lp240
I7
aI63
aI78
aI135
aI197
aI210
asI235
(lp241
I154
aI188
aI248
aI249
aI286
aI298
asI236
(lp242
I54
aI89
aI141
aI212
aI259
aI262
asI237
(lp243
I27
aI60
aI113
aI199
aI207
asI238
(lp244
I109
aI124
aI161
aI176
aI195
aI198
aI250
asI239
(lp245
I10
aI28
aI40
aI122
aI181
aI271
asI240
(lp246
I54
aI72
aI85
aI105
aI128
aI141
asI241
(lp247
I11
aI14
aI21
aI54
aI82
aI129
asI242
(lp248
I7
aI63
aI68
aI135
aI197
aI210
asI243
(lp249
I64
aI91
aI102
aI104
aI106
aI118
aI252
asI244
(lp250
I9
aI57
aI143
aI159
asI245
(lp251
I10
aI71
aI125
aI173
aI192
aI220
asI246
(lp252
I103
aI116
aI170
aI213
aI216
aI233
asI247
(lp253
I55
aI147
aI169
aI208
aI276
asI248
(lp254
I42
aI76
aI154
aI188
aI235
aI249
aI292
aI298
asI249
(lp255
I42
aI76
aI154
aI188
aI235
aI248
aI298
asI250
(lp256
I109
aI161
aI176
aI198
aI211
aI238
asI251
(lp257
I86
aI99
aI104
aI127
aI130
aI134
aI291
asI252
(lp258
I64
aI91
aI175
aI206
aI243
asI253
(lp259
I13
aI46
aI77
aI155
aI218
asI254
(lp260
I52
aI64
aI91
aI102
aI106
aI166
asI255
(lp261
I50
aI86
aI96
aI99
aI101
aI205
asI256
(lp262
I18
aI30
aI43
aI74
aI93
aI107
asI257
(lp263
I18
aI30
aI44
aI87
asI258
(lp264
I31
aI37
aI75
aI151
aI162
aI190
asI259
(lp265
I14
aI54
aI82
aI128
aI129
aI236
asI260
(lp266
I2
aI35
aI50
aI51
aI62
aI67
asI261
(lp267
I30
aI44
aI133
aI172
aI222
asI262
(lp268
I54
aI72
aI85
aI128
aI129
aI236
asI263
(lp269
I109
aI124
aI161
aI176
aI195
aI198
asI264
(lp270
I33
aI73
aI126
aI149
aI154
aI165
aI270
aI298
asI265
(lp271
I43
aI49
aI65
aI74
aI93
aI131
asI266
(lp272
I2
aI33
aI35
aI42
aI51
aI62
asI267
(lp273
I2
aI35
aI50
aI51
aI62
aI67
asI268
(lp274
I8
aI38
aI52
aI84
aI97
aI112
asI269
(lp275
I11
aI14
aI15
aI21
aI23
aI82
asI270
(lp276
I33
aI73
aI126
aI167
aI264
asI271
(lp277
I28
aI94
aI173
aI215
aI239
asI272
(lp278
I25
aI56
aI122
aI132
aI140
aI148
asI273
(lp279
I4
aI45
aI162
aI187
aI207
asI274
(lp280
I3
aI86
aI102
aI104
aI106
aI118
asI275
(lp281
I19
aI48
aI77
aI95
aI155
aI156
asI276
(lp282
I169
aI208
aI247
asI277
(lp283
I36
aI41
aI175
aI177
aI184
aI189
asI278
(lp284
I75
aI114
aI120
aI194
asI279
(lp285
I20
aI34
aI60
aI61
aI70
aI99
asI280
(lp286
I5
aI38
aI52
aI84
aI112
aI177
asI281
(lp287
I34
aI48
aI61
aI99
aI193
aI228
asI282
(lp288
I38
aI52
aI86
aI97
aI101
aI150
asI283
(lp289
I19
aI48
aI95
aI121
aI130
aI134
asI284
(lp290
I2
aI35
aI51
aI62
aI67
aI69
asI285
(lp291
I1
aI22
aI23
aI80
aI83
aI152
asI286
(lp292
I149
aI165
aI219
aI235
aI297
asI287
(lp293
I18
aI87
aI115
aI147
aI208
aI209
asI288
(lp294
I30
aI44
aI133
aI172
aI174
aI179
asI289
(lp295
I36
aI55
aI108
aI153
aI163
aI169
aI293
asI290
(lp296
I50
aI86
aI96
aI101
aI150
aI205
asI291
(lp297
I50
aI86
aI101
aI150
aI205
aI251
asI292
(lp298
I26
aI76
aI142
aI225
aI248
asI293
(lp299
I55
aI108
aI143
aI163
aI169
aI289
asI294
(lp300
I5
aI57
aI76
aI142
aI159
aI182
asI295
(lp301
I37
aI39
aI75
aI114
aI120
aI190
asI296
(lp302
I32
aI103
aI111
aI119
aI168
aI183
asI297
(lp303
I149
aI165
aI219
aI286
asI298
(lp304
I149
aI154
aI235
aI248
aI249
aI264
asI299
(lp305
I2
aI35
aI50
aI62
aI67
aI69
assS'vertices'
p306
(lp307
cnumpy.core.multiarray
_reconstruct
p308
(cnumpy
ndarray
p309
(I0
tp310
S'b'
p311
tp312
Rp313
(I1
(I2
tp314
cnumpy
dtype
p315
(S'f8'
p316
I0
I1
tp317
Rp318
(I3
S'<'
p319
NNNI-1
I-1
I0
tp320
bI00
S'\xf0\xb8\xc9V\xcc\xdb1@ \xa1Av\xed$5@'
p321
tp322
bag308
(g309
(I0
tp323
g311
tp324
Rp325
(I1
(I2
tp326
g318
I00
S'\x90\x80\x13>\xb8\x8a\x14\xc0\xd2\xffZ;]\xee@@'
p327
tp328
bag308
(g309
(I0
tp329
g311
tp330
Rp331
(I1
(I2
tp332
g318
I00
S'\xc4C\xd2 \xddG-\xc0] Z\xc5B\x1dC\xc0'
p333
tp334
bag308
(g309
(I0
tp335
g311
tp336
Rp337
(I1
(I2
tp338
g318
I00
S'Hs\xce\xf6\x95\x93\x16@\xa4\xe2\x08\x06\xd2\xd2#\xc0'
p339
tp340
bag308
(g309
(I0
tp341
g311
tp342
Rp343
(I1
(I2
tp344
g318
I00
S'T\xf8\xcd\x82f\x0b;@,\x8f\xfc\x91\x9c\x86B\xc0'
p345
tp346
bag308
(g309
(I0
tp347
g311
tp348
Rp349
(I1
(I2
tp350
g318
I00
S'k-4\xc9R\x11>\xc0\x98\xf6k\x00\xf6\xf6%\xc0'
p351
tp352
bag308
(g309
(I0
tp353
g311
tp354
Rp355
(I1
(I2
tp356
g318
I00
S'\xbcN\xf8\x1c-`C@\x10\x17\x9e\x80\xdd3/\xc0'
p357
tp358
bag308
(g309
(I0
tp359
g311
tp360
Rp361
(I1
(I2
tp362
g318
I00
S'\x8c\xaa\xbd\xa2E\xf2F@\x18\xc0\x0cY\xe36!@'
p363
tp364
bag308
(g309
(I0
tp365
g311
tp366
Rp367
(I1
(I2
tp368
g318
I00
S'\xd0\x00:l\xcf\xc7=\xc0\x18\x0e\x00y\xb2\x915\xc0'
p369
tp370
bag308
(g309
(I0
tp371
g311
tp372
Rp373
(I1
(I2
tp374
g318
I00
S'\xf0\x80\xe11\xd3\x8eH\xc0\x00s\x1a\x98\xe0H\xf3?'
p375
tp376
bag308
(g309
(I0
tp377
g311
tp378
Rp379
(I1
(I2
tp380
g318
I00
S'\x80\x04*\x1e\x98\x9a\x18\xc0`\xec~\xa7]+<@'
p381
tp382
bag308
(g309
(I0
tp383
g311
tp384
Rp385
(I1
(I2
tp386
g318
I00
S',\xca`\xac\xd1\xde)@z&\x1e\xbeN\x8aE@'
p387
tp388
bag308
(g309
(I0
tp389
g311
tp390
Rp391
(I1
(I2
tp392
g318
I00
S'\xdc\x9d\xb6[s\x851@\x94\xaf\xb5;\x18\xe87@'
p393
tp394
bag308
(g309
(I0
tp395
g311
tp396
Rp397
(I1
(I2
tp398
g318
I00
S'\x08e\x85\x9by\xf8;@K\r%\x03\x90\xad?\xc0'
p399
tp400
bag308
(g309
(I0
tp401
g311
tp402
Rp403
(I1
(I2
tp404
g318
I00
S'4\x98\xa6N\x06\xa0*@\x08\xa8\x85eo\xd0E@'
p405
tp406
bag308
(g309
(I0
tp407
g311
tp408
Rp409
(I1
(I2
tp410
g318
I00
S'\xe0\xb9\x8b\xc1qy\xf8?\n`gp\xe8\xb0H@'
p411
tp412
bag308
(g309
(I0
tp413
g311
tp414
Rp415
(I1
(I2
tp416
g318
I00
S'B\x13h\xc82\xf1E@4\xcf\xe2\x8d\x92Z4@'
p417
tp418
bag308
(g309
(I0
tp419
g311
tp420
Rp421
(I1
(I2
tp422
g318
I00
S'\x10\xed\xeb\x95\xc6\xf4F@\xb4\xd8<\x1bt\x143@'
p423
tp424
bag308
(g309
(I0
tp425
g311
tp426
Rp427
(I1
(I2
tp428
g318
I00
S'\xf8\x04\x03l\x05\xa4B\xc0\xceq\n6\x03\x12B@'
p429
tp430
bag308
(g309
(I0
tp431
g311
tp432
Rp433
(I1
(I2
tp434
g318
I00
S'\xc0\xc4\x06\x036\xb0(@\xf0\xfe\x93\x95Hm3\xc0'
p435
tp436
bag308
(g309
(I0
tp437
g311
tp438
Rp439
(I1
(I2
tp440
g318
I00
S'\x00H6\x8fe}\xa4\xbf\x80M\xd2BdWA\xc0'
p441
tp442
bag308
(g309
(I0
tp443
g311
tp444
Rp445
(I1
(I2
tp446
g318
I00
S'0\xe3|\xd8?\x97"@\xdc\x13$S\x82\xf3H@'
p447
tp448
bag308
(g309
(I0
tp449
g311
tp450
Rp451
(I1
(I2
tp452
g318
I00
S'x\xdeA\xa5\xbc\x12\x17\xc0\xbe~`2&TE@'
p453
tp454
bag308
(g309
(I0
tp455
g311
tp456
Rp457
(I1
(I2
tp458
g318
I00
S'\xc0\xdb\x00\xe8,\x8f\x1c@\xae\x03\x1a{\x03\xb0D@'
p459
tp460
bag308
(g309
(I0
tp461
g311
tp462
Rp463
(I1
(I2
tp464
g318
I00
S'jn\xa9\xc8\xb2\x9cH\xc0\xcc(p\x9f\xfb\xd4G@'
p465
tp466
bag308
(g309
(I0
tp467
g311
tp468
Rp469
(I1
(I2
tp470
g318
I00
S'\x0ew\xbdS9\x83;\xc0h\xde\t\x18\r\x912@'
p471
tp472
bag308
(g309
(I0
tp473
g311
tp474
Rp475
(I1
(I2
tp476
g318
I00
S'2t\xc4~\xbf\xd6G\xc0\xd4\xd2?\x03i\xfd6\xc0'
p477
tp478
bag308
(g309
(I0
tp479
g311
tp480
Rp481
(I1
(I2
tp482
g318
I00
S'\xec\x9a\x83\x9c\xe2\x80 @:\x19\xdc\xc1-\xe5G\xc0'
p483
tp484
bag308
(g309
(I0
tp485
g311
tp486
Rp487
(I1
(I2
tp488
g318
I00
S'\xe0\x83\x03\xa2\xfd\x16\x15\xc0\xe8w\x1f\x11\xf5h0@'
p489
tp490
bag308
(g309
(I0
tp491
g311
tp492
Rp493
(I1
(I2
tp494
g318
I00
S'\x02\xaew\x06R\xb1C@\x9b\x90\x0c1\xb2\xd66\xc0'
p495
tp496
bag308
(g309
(I0
tp497
g311
tp498
Rp499
(I1
(I2
tp500
g318
I00
S'Sp\x9cUAXA\xc0\xd2\x80g\x8c,\x02E@'
p501
tp502
bag308
(g309
(I0
tp503
g311
tp504
Rp505
(I1
(I2
tp506
g318
I00
S'J\xad%\xcb\xf5)@@\xc2\x8c.\x8a\xb5hG\xc0'
p507
tp508
bag308
(g309
(I0
tp509
g311
tp510
Rp511
(I1
(I2
tp512
g318
I00
S"\xd8\x08\xd5[/'(@\xe0&E~\xdfr\xf4\xbf"
p513
tp514
bag308
(g309
(I0
tp515
g311
tp516
Rp517
(I1
(I2
tp518
g318
I00
S'\x86\xa8\x17\xfc\xf1\x10;\xc0\xf8\xfc\x15kL\xd6C\xc0'
p519
tp520
bag308
(g309
(I0
tp521
g311
tp522
Rp523
(I1
(I2
tp524
g318
I00
S'\xc00\xe18jT\x06@\xa7\x95@\xfe\xb1HA\xc0'
p525
tp526
bag308
(g309
(I0
tp527
g311
tp528
Rp529
(I1
(I2
tp530
g318
I00
S'\r\x0ef\xbc%\xdb2\xc0\x87d\xf5\x12\x82\xabD\xc0'
p531
tp532
bag308
(g309
(I0
tp533
g311
tp534
Rp535
(I1
(I2
tp536
g318
I00
S'\xe2\x81Y\xdeE7;\xc0\xe0\x88\xca^\x91\xbc\x17@'
p537
tp538
bag308
(g309
(I0
tp539
g311
tp540
Rp541
(I1
(I2
tp542
g318
I00
S',\xe7]r"BB@\xfe\x04\xf8;\xe5\x8fC\xc0'
p543
tp544
bag308
(g309
(I0
tp545
g311
tp546
Rp547
(I1
(I2
tp548
g318
I00
S'\xc3c\xe5q\x82\xfd6\xc0@\xffn\xfcC\x7f1\xc0'
p549
tp550
bag308
(g309
(I0
tp551
g311
tp552
Rp553
(I1
(I2
tp554
g318
I00
S'&U\xb6\xdfq\xf8A@\xb6\xdd\xe4\xe8XB=\xc0'
p555
tp556
bag308
(g309
(I0
tp557
g311
tp558
Rp559
(I1
(I2
tp560
g318
I00
S'\x8c\x81%\x8f\xda\xbf0\xc0L\x98\xe1a\x05\xa6*@'
p561
tp562
bag308
(g309
(I0
tp563
g311
tp564
Rp565
(I1
(I2
tp566
g318
I00
S'\x06r\x90^\xbe\x8a7\xc0\xd8F\xe5Q\x92\xec\x18@'
p567
tp568
bag308
(g309
(I0
tp569
g311
tp570
Rp571
(I1
(I2
tp572
g318
I00
S'0\xda:y\xd9e<\xc0rc7\x80\x85\xcc>\xc0'
p573
tp574
bag308
(g309
(I0
tp575
g311
tp576
Rp577
(I1
(I2
tp578
g318
I00
S'\x05\xf0\xb2\xf4`l7\xc0\xb8\xb4\xa8b\x08\xa4D@'
p579
tp580
bag308
(g309
(I0
tp581
g311
tp582
Rp583
(I1
(I2
tp584
g318
I00
S'8\xda\x17RQ,D\xc0\x88\xb0\xba\xc6C\xbbG@'
p585
tp586
bag308
(g309
(I0
tp587
g311
tp588
Rp589
(I1
(I2
tp590
g318
I00
S'\xfc\xc9Mp\x8d/<@\xe4\xf4\xac\xafr\xbaD\xc0'
p591
tp592
bag308
(g309
(I0
tp593
g311
tp594
Rp595
(I1
(I2
tp596
g318
I00
S'D\x93\xcd+c\xdcA@\xc4]r\x04>\x967\xc0'
p597
tp598
bag308
(g309
(I0
tp599
g311
tp600
Rp601
(I1
(I2
tp602
g318
I00
S'\xd6p\xa4\xda\x01\xf2E@L\xb3\x9b4\xef\x9d?@'
p603
tp604
bag308
(g309
(I0
tp605
g311
tp606
Rp607
(I1
(I2
tp608
g318
I00
S'\x00\xbd\xaa\x7f\xb3D+@\x8e\xd3Q\xa6,\xd68\xc0'
p609
tp610
bag308
(g309
(I0
tp611
g311
tp612
Rp613
(I1
(I2
tp614
g318
I00
S"43u'=k/\xc0\x08\x0c\x0fO\xafcH@"
p615
tp616
bag308
(g309
(I0
tp617
g311
tp618
Rp619
(I1
(I2
tp620
g318
I00
S"\xc8\x9d\xc1{\xbdp\x19\xc0/\xf4\xcc\x8b'H?\xc0"
p621
tp622
bag308
(g309
(I0
tp623
g311
tp624
Rp625
(I1
(I2
tp626
g318
I00
S'\xdaD\xb2\x88\xf9\xbb1\xc0\xa0\xa0g9\xa6\x18G\xc0'
p627
tp628
bag308
(g309
(I0
tp629
g311
tp630
Rp631
(I1
(I2
tp632
g318
I00
S'xbe\xc6 ,.\xc0\xbcL\n\xfb\x02\xfc-\xc0'
p633
tp634
bag308
(g309
(I0
tp635
g311
tp636
Rp637
(I1
(I2
tp638
g318
I00
S'\x00\xf5b|\xdc\xcd\xe9\xbf\xe8J\xe1S\xa09C\xc0'
p639
tp640
bag308
(g309
(I0
tp641
g311
tp642
Rp643
(I1
(I2
tp644
g318
I00
S'\xa8RK\x13F\xb18@V\xd9\xb6G\xa6\xe4D@'
p645
tp646
bag308
(g309
(I0
tp647
g311
tp648
Rp649
(I1
(I2
tp650
g318
I00
S'$\xfb#\xb5y\xfe@\xc0x\xdacie\xba-@'
p651
tp652
bag308
(g309
(I0
tp653
g311
tp654
Rp655
(I1
(I2
tp656
g318
I00
S' MDr\xc6I:\xc0\x84%\x89\x15\x91/2@'
p657
tp658
bag308
(g309
(I0
tp659
g311
tp660
Rp661
(I1
(I2
tp662
g318
I00
S'EJ\x9b\xd8\rtF\xc0`K\xa2\xb9Q_#\xc0'
p663
tp664
bag308
(g309
(I0
tp665
g311
tp666
Rp667
(I1
(I2
tp668
g318
I00
S'Hl\xf6\xe3\x80\xf4.@\xc0\x9a)\xd4l\xac?@'
p669
tp670
bag308
(g309
(I0
tp671
g311
tp672
Rp673
(I1
(I2
tp674
g318
I00
S"\xe4F\x16F-\xe0'@\x08\xa5\xd2\x89C\xba,@"
p675
tp676
bag308
(g309
(I0
tp677
g311
tp678
Rp679
(I1
(I2
tp680
g318
I00
S'\xb0\x82\xe8g\xbd7\x1d@\xae\xb1\xbbL\x95:E\xc0'
p681
tp682
bag308
(g309
(I0
tp683
g311
tp684
Rp685
(I1
(I2
tp686
g318
I00
S'\x08\x93\xd9:[\xae\x19@\xea4\x9d\xd4\x8d\xee?\xc0'
p687
tp688
bag308
(g309
(I0
tp689
g311
tp690
Rp691
(I1
(I2
tp692
g318
I00
S'\xf0i\xc1\x8e\x86\xde.\xc0an\xaa\x9d\x9e\xebB\xc0'
p693
tp694
bag308
(g309
(I0
tp695
g311
tp696
Rp697
(I1
(I2
tp698
g318
I00
S'*G\x06\xf3\xe8\xc3C@\x00\x1e\xc9}Q\xcf\xf6?'
p699
tp700
bag308
(g309
(I0
tp701
g311
tp702
Rp703
(I1
(I2
tp704
g318
I00
S'\xa8\xad\xe5\x1c\xf3{ \xc0`\xea\x02\xbe,\xec\n\xc0'
p705
tp706
bag308
(g309
(I0
tp707
g311
tp708
Rp709
(I1
(I2
tp710
g318
I00
S'\\\x8b\t\x07s\x8d&\xc0V\xde:\x88\x8b&@@'
p711
tp712
bag308
(g309
(I0
tp713
g311
tp714
Rp715
(I1
(I2
tp716
g318
I00
S'\x8ax\xcb\x82\xbe\xc5D@\xa6\x89\x8ba\x12\x9dE@'
p717
tp718
bag308
(g309
(I0
tp719
g311
tp720
Rp721
(I1
(I2
tp722
g318
I00
S'\xd0X\xe7\xa3\xd7J\x1f\xc0\xb0 %\xfe\xaawB\xc0'
p723
tp724
bag308
(g309
(I0
tp725
g311
tp726
Rp727
(I1
(I2
tp728
g318
I00
S'\x8e~9R\x1b^E@\x00r@\x89z?\x16\xc0'
p729
tp730
bag308
(g309
(I0
tp731
g311
tp732
Rp733
(I1
(I2
tp734
g318
I00
S"\x14\xe7\x1cV\xcb\xe3'\xc0\x8d\x07\xcc[\\VG\xc0"
p735
tp736
bag308
(g309
(I0
tp737
g311
tp738
Rp739
(I1
(I2
tp740
g318
I00
S'\x00\xd4\xb3\xbc\xc0\xdb\xc9?\xde\x9d\xbb\x99\xe5jA\xc0'
p741
tp742
bag308
(g309
(I0
tp743
g311
tp744
Rp745
(I1
(I2
tp746
g318
I00
S"\xd0R\xcc<-w\x18\xc0h!\xcc'\xecx=@"
p747
tp748
bag308
(g309
(I0
tp749
g311
tp750
Rp751
(I1
(I2
tp752
g318
I00
S'\x10\x12+J \x87?@\x98\x15\xc68\xec\xfa>@'
p753
tp754
bag308
(g309
(I0
tp755
g311
tp756
Rp757
(I1
(I2
tp758
g318
I00
S'\x0eY\xc9\xdbX\xab=\xc0\x85\xa0\x05\xe5\x8d\xb5F\xc0'
p759
tp760
bag308
(g309
(I0
tp761
g311
tp762
Rp763
(I1
(I2
tp764
g318
I00
S';\xbc\xc1\x10o\x069\xc0\xca\xe6\xd7\xf2\x12\x7fB@'
p765
tp766
bag308
(g309
(I0
tp767
g311
tp768
Rp769
(I1
(I2
tp770
g318
I00
S'\x08-\x81\xaf\xa6\xe2C@\xe4\x07\xbc\xdb|\xf5C\xc0'
p771
tp772
bag308
(g309
(I0
tp773
g311
tp774
Rp775
(I1
(I2
tp776
g318
I00
S'\xf3\xb9B\xd37JB\xc0n\xce\xb4r\\\xca6\xc0'
p777
tp778
bag308
(g309
(I0
tp779
g311
tp780
Rp781
(I1
(I2
tp782
g318
I00
S'\xe87\n\x13\x8b\xa5:@H_\\\x9c\x0b\x0c6\xc0'
p783
tp784
bag308
(g309
(I0
tp785
g311
tp786
Rp787
(I1
(I2
tp788
g318
I00
S'&\x96p\x14_\x99D@\x9c\xbeO\xb8]\x1e)@'
p789
tp790
bag308
(g309
(I0
tp791
g311
tp792
Rp793
(I1
(I2
tp794
g318
I00
S'\xd0C*\x17\x8a\x893@0\xe6\x8f\xe2TY5@'
p795
tp796
bag308
(g309
(I0
tp797
g311
tp798
Rp799
(I1
(I2
tp800
g318
I00
S'tk)\xf6\xc4\xbb"@\x8c]\xfa\x03\x0e\x8d@@'
p801
tp802
bag308
(g309
(I0
tp803
g311
tp804
Rp805
(I1
(I2
tp806
g318
I00
S'\\\xc8Z]\x99\xaeF@\xe4\x00\x8d\x10EV*\xc0'
p807
tp808
bag308
(g309
(I0
tp809
g311
tp810
Rp811
(I1
(I2
tp812
g318
I00
S'\x90<q\x94[\xe50@n2\xc7\x1c\xab\xe7G@'
p813
tp814
bag308
(g309
(I0
tp815
g311
tp816
Rp817
(I1
(I2
tp818
g318
I00
S'`\xc2n\xa4\x81-\x00\xc0t\xbbXn\x13\xffE@'
p819
tp820
bag308
(g309
(I0
tp821
g311
tp822
Rp823
(I1
(I2
tp824
g318
I00
S'x\xa4\xe4&\x07\x1b;\xc0\x0e\xb09\x0b\x08\x881\xc0'
p825
tp826
bag308
(g309
(I0
tp827
g311
tp828
Rp829
(I1
(I2
tp830
g318
I00
S'\x88\xb8\xce}\n\x9c:@N+\x19\xec\x87c@@'
p831
tp832
bag308
(g309
(I0
tp833
g311
tp834
Rp835
(I1
(I2
tp836
g318
I00
S'PI&\x845\x1b\x15\xc0\xcc\x18\x93\xd8\x8e\x0e4\xc0'
p837
tp838
bag308
(g309
(I0
tp839
g311
tp840
Rp841
(I1
(I2
tp842
g318
I00
S'n\x9a\x1a\x93U\xbbC\xc0\x96\xd9\x06\xed<\x8eB@'
p843
tp844
bag308
(g309
(I0
tp845
g311
tp846
Rp847
(I1
(I2
tp848
g318
I00
S'\xa8\xc3,G\x8b\x92E@\\\xca\xa59\x80\x95$\xc0'
p849
tp850
bag308
(g309
(I0
tp851
g311
tp852
Rp853
(I1
(I2
tp854
g318
I00
S'zz\xf1\x9c\x18\xd5B@f6LNa&G@'
p855
tp856
bag308
(g309
(I0
tp857
g311
tp858
Rp859
(I1
(I2
tp860
g318
I00
S'0\n\xd7\xcd\xf4\x9f\x0b\xc0T%\xad\xc7\xd0\x91F\xc0'
p861
tp862
bag308
(g309
(I0
tp863
g311
tp864
Rp865
(I1
(I2
tp866
g318
I00
S'h\x0c\xef \xe4\x00&\xc0\xc0\xca[\xb0\x05\xd2\x1d\xc0'
p867
tp868
bag308
(g309
(I0
tp869
g311
tp870
Rp871
(I1
(I2
tp872
g318
I00
S'\x08e\xea\x9f\x15\xaeC@XH\x9f\x91\\S7@'
p873
tp874
bag308
(g309
(I0
tp875
g311
tp876
Rp877
(I1
(I2
tp878
g318
I00
S'\x85y\xb5\x17i\xbc4\xc0\xce\x0b\xc0\x13\x1cFB@'
p879
tp880
bag308
(g309
(I0
tp881
g311
tp882
Rp883
(I1
(I2
tp884
g318
I00
S'\x00\xfd\x18\xd9:Q\xd2\xbf$\xdc\x06\x81\xfd1"@'
p885
tp886
bag308
(g309
(I0
tp887
g311
tp888
Rp889
(I1
(I2
tp890
g318
I00
S'\xf0\x9c\x921O}.@\xd34\x1f\xda\xe4M3\xc0'
p891
tp892
bag308
(g309
(I0
tp893
g311
tp894
Rp895
(I1
(I2
tp896
g318
I00
S'@!\x84\xb2)\\\x18\xc0X|\x18\x8f\xf9\xfb@\xc0'
p897
tp898
bag308
(g309
(I0
tp899
g311
tp900
Rp901
(I1
(I2
tp902
g318
I00
S'K\xbb\xffN\xde\xc44\xc0\x92\xa6m\xa3\xc6(:\xc0'
p903
tp904
bag308
(g309
(I0
tp905
g311
tp906
Rp907
(I1
(I2
tp908
g318
I00
S'\xa5\xc1H\xfe\xc5R?\xc0\x18G5\xb6!s \xc0'
p909
tp910
bag308
(g309
(I0
tp911
g311
tp912
Rp913
(I1
(I2
tp914
g318
I00
S'\xc0\xa4HL<\x99\x11@\xfa%,^\x958<\xc0'
p915
tp916
bag308
(g309
(I0
tp917
g311
tp918
Rp919
(I1
(I2
tp920
g318
I00
S"\xd0D\x92\xe6\xd1\xa1=@d\xcc\xb8E+l'\xc0"
p921
tp922
bag308
(g309
(I0
tp923
g311
tp924
Rp925
(I1
(I2
tp926
g318
I00
S'l<<\xab\xd6\xc5%\xc0c\xbf|\xb2\xf5w7\xc0'
p927
tp928
bag308
(g309
(I0
tp929
g311
tp930
Rp931
(I1
(I2
tp932
g318
I00
S'\x98%z\xeb[\x81\x18\xc0pJ>\xa0\xae\xdd$\xc0'
p933
tp934
bag308
(g309
(I0
tp935
g311
tp936
Rp937
(I1
(I2
tp938
g318
I00
S'p6\x9d\xe4\x83\xd4.@ \xfderr\xda\xfc?'
p939
tp940
bag308
(g309
(I0
tp941
g311
tp942
Rp943
(I1
(I2
tp944
g318
I00
S'\x00\xb7\xffxr\xc4\xc3?\x982F\x06\xfb\xd7&\xc0'
p945
tp946
bag308
(g309
(I0
tp947
g311
tp948
Rp949
(I1
(I2
tp950
g318
I00
S'L\xdd(Y\xfb\xfdA@\xb8\xb5\xfe\xc5\xd2\xb7>@'
p951
tp952
bag308
(g309
(I0
tp953
g311
tp954
Rp955
(I1
(I2
tp956
g318
I00
S"p\x8cr~\x7f\xcf\x19\xc0\xf8\xe4\x148*('\xc0"
p957
tp958
bag308
(g309
(I0
tp959
g311
tp960
Rp961
(I1
(I2
tp962
g318
I00
S'\xd0S\x96$\x04A:\xc0\xb0"R\x87YH@@'
p963
tp964
bag308
(g309
(I0
tp965
g311
tp966
Rp967
(I1
(I2
tp968
g318
I00
S'(\x1d!\xf4\xda\xefC\xc0\xa0\xcd\x7f\x99J\xea @'
p969
tp970
bag308
(g309
(I0
tp971
g311
tp972
Rp973
(I1
(I2
tp974
g318
I00
S'\x84\x1f\x96|n\x06@@X\xa8\xed\x8f;\xba$@'
p975
tp976
bag308
(g309
(I0
tp977
g311
tp978
Rp979
(I1
(I2
tp980
g318
I00
S'\xc8\xb2\xc3\xe7\x93\x1e\x15\xc0\xad\x01f\x8f\x86\x84D\xc0'
p981
tp982
bag308
(g309
(I0
tp983
g311
tp984
Rp985
(I1
(I2
tp986
g318
I00
S'\xe8\xed! \x1b\xf0&@ \x10=\xb0$\x96\xf1\xbf'
p987
tp988
bag308
(g309
(I0
tp989
g311
tp990
Rp991
(I1
(I2
tp992
g318
I00
S'3\xb0 \x03P(6\xc0\xb0\xd2`\x7f\xc7>,\xc0'
p993
tp994
bag308
(g309
(I0
tp995
g311
tp996
Rp997
(I1
(I2
tp998
g318
I00
S'\x80\x8eJ9\xa9\x1e\xf6?\x1bF4\xf7\x8f\x99E\xc0'
p999
tp1000
bag308
(g309
(I0
tp1001
g311
tp1002
Rp1003
(I1
(I2
tp1004
g318
I00
S'\xc6>\xf8\x06\xb6\xe5G@G7\xcb~\xcbaD\xc0'
p1005
tp1006
bag308
(g309
(I0
tp1007
g311
tp1008
Rp1009
(I1
(I2
tp1010
g318
I00
S'\x0c\xa2\xb9]\xca\xed?\xc0\xe4\xe6\xbfi\\\x96=@'
p1011
tp1012
bag308
(g309
(I0
tp1013
g311
tp1014
Rp1015
(I1
(I2
tp1016
g318
I00
S' U\xc7=\x86\xbd6@\xf0\x7fc\xa9j\xa2\x14\xc0'
p1017
tp1018
bag308
(g309
(I0
tp1019
g311
tp1020
Rp1021
(I1
(I2
tp1022
g318
I00
S'\x02\xfe&\x999\xc1E@\xc4\x80u\x7f\x91\xb0>@'
p1023
tp1024
bag308
(g309
(I0
tp1025
g311
tp1026
Rp1027
(I1
(I2
tp1028
g318
I00
S'\xc0\xca\x926WG\xf4?\x90\xca\x84\x0f\x9d\x87#\xc0'
p1029
tp1030
bag308
(g309
(I0
tp1031
g311
tp1032
Rp1033
(I1
(I2
tp1034
g318
I00
S'(\xa5T\x1e\x87o @\x84\xd3\xf2\x18\xbc\x90%@'
p1035
tp1036
bag308
(g309
(I0
tp1037
g311
tp1038
Rp1039
(I1
(I2
tp1040
g318
I00
S'\xc02\x86\x7f\xfa\xfeG@n\xe7\xd5\xf0\xb1\x1b?\xc0'
p1041
tp1042
bag308
(g309
(I0
tp1043
g311
tp1044
Rp1045
(I1
(I2
tp1046
g318
I00
S'P=\\\xac\x88\n+@d8\x8a\xc2\xcb\xef#\xc0'
p1047
tp1048
bag308
(g309
(I0
tp1049
g311
tp1050
Rp1051
(I1
(I2
tp1052
g318
I00
S'\xb6O\xe9\x1aT\xd01\xc0Hb\xcb{\x9c`9@'
p1053
tp1054
bag308
(g309
(I0
tp1055
g311
tp1056
Rp1057
(I1
(I2
tp1058
g318
I00
S'\xee\xc6\x17X"\xe0H\xc0pQ\x13\xfa\x14\x95,\xc0'
p1059
tp1060
bag308
(g309
(I0
tp1061
g311
tp1062
Rp1063
(I1
(I2
tp1064
g318
I00
S'\x08\xf8B\xce\x91\xd57@\xe4\xc6\xa5\x1e\x0eD3@'
p1065
tp1066
bag308
(g309
(I0
tp1067
g311
tp1068
Rp1069
(I1
(I2
tp1070
g318
I00
S'\xe0\xa1"\xba<\xb3&@\xfc\x8671E!>@'
p1071
tp1072
bag308
(g309
(I0
tp1073
g311
tp1074
Rp1075
(I1
(I2
tp1076
g318
I00
S'\x96\x12\x9cp}\x80B\xc0\xbe}\x9d\x11\xac\x8dG\xc0'
p1077
tp1078
bag308
(g309
(I0
tp1079
g311
tp1080
Rp1081
(I1
(I2
tp1082
g318
I00
S'@|\x05\xf6"\x1c\x03\xc0\xc0|\xb2t+n(\xc0'
p1083
tp1084
bag308
(g309
(I0
tp1085
g311
tp1086
Rp1087
(I1
(I2
tp1088
g318
I00
S'\x84\xceA\xaa\x18\xb28@\xe6y\x05\xb6X\xeaA@'
p1089
tp1090
bag308
(g309
(I0
tp1091
g311
tp1092
Rp1093
(I1
(I2
tp1094
g318
I00
S'\xe4x\x04\xa2\xea*0@\xde\x04\t{\xea@D@'
p1095
tp1096
bag308
(g309
(I0
tp1097
g311
tp1098
Rp1099
(I1
(I2
tp1100
g318
I00
S'`&\x9a\xda`\xa1\x1c@\\Sy\xbdY\x164\xc0'
p1101
tp1102
bag308
(g309
(I0
tp1103
g311
tp1104
Rp1105
(I1
(I2
tp1106
g318
I00
S';\xab\xa5dc\xb35\xc0\x08h\tZ\xb0hD@'
p1107
tp1108
bag308
(g309
(I0
tp1109
g311
tp1110
Rp1111
(I1
(I2
tp1112
g318
I00
S'R\xce\xa2\xbd|\xd8:\xc0x;m\xf6\xa7\xe0;@'
p1113
tp1114
bag308
(g309
(I0
tp1115
g311
tp1116
Rp1117
(I1
(I2
tp1118
g318
I00
S'6D\xb4\xba\x16;B\xc0\x1c\x99\xb4\x82\xfc,H@'
p1119
tp1120
bag308
(g309
(I0
tp1121
g311
tp1122
Rp1123
(I1
(I2
tp1124
g318
I00
S' kfp{W\x18@\x84T\xfe\xb6Gv*\xc0'
p1125
tp1126
bag308
(g309
(I0
tp1127
g311
tp1128
Rp1129
(I1
(I2
tp1130
g318
I00
S'\xa2\x8c\x81P\xa9\xcfC@\xa8V\x8b\xf1s\xbb\x13@'
p1131
tp1132
bag308
(g309
(I0
tp1133
g311
tp1134
Rp1135
(I1
(I2
tp1136
g318
I00
S'X\xde\x92~-\xdc>@\xf077\xa8\xa7\xff*\xc0'
p1137
tp1138
bag308
(g309
(I0
tp1139
g311
tp1140
Rp1141
(I1
(I2
tp1142
g318
I00
S'"\xd0\xdd\x8f\xf5\xf6G@\x04\xa1\xdbz\xf5k0\xc0'
p1143
tp1144
bag308
(g309
(I0
tp1145
g311
tp1146
Rp1147
(I1
(I2
tp1148
g318
I00
S'0\xbc\xe5\x98XA"\xc0\x9a\x82T\xb1,\xd3A\xc0'
p1149
tp1150
bag308
(g309
(I0
tp1151
g311
tp1152
Rp1153
(I1
(I2
tp1154
g318
I00
S'\xe0\xef[\xd2\xf2\xda\x18\xc0\x08]\x14\x8d\x92RH@'
p1155
tp1156
bag308
(g309
(I0
tp1157
g311
tp1158
Rp1159
(I1
(I2
tp1160
g318
I00
S'\xb5\xe2\x83\xf6pp:\xc08\xde\x1eD\xc6r;@'
p1161
tp1162
bag308
(g309
(I0
tp1163
g311
tp1164
Rp1165
(I1
(I2
tp1166
g318
I00
S'\xa2\xa5\x12\x91/\xe5@@\xf6\x1d"\xf9\xa52F@'
p1167
tp1168
bag308
(g309
(I0
tp1169
g311
tp1170
Rp1171
(I1
(I2
tp1172
g318
I00
S'\xc2\xca\xf1\xdc\xa6\xa5C\xc0d\xab\xa2\xd2K\xed2\xc0'
p1173
tp1174
bag308
(g309
(I0
tp1175
g311
tp1176
Rp1177
(I1
(I2
tp1178
g318
I00
S'W\xfe=\xe4nKE\xc0`l\x8dE"\x98\x0f@'
p1179
tp1180
bag308
(g309
(I0
tp1181
g311
tp1182
Rp1183
(I1
(I2
tp1184
g318
I00
S'0sT\x91\x1al&\xc0\xd6\xd7S\xe4D\x88B@'
p1185
tp1186
bag308
(g309
(I0
tp1187
g311
tp1188
Rp1189
(I1
(I2
tp1190
g318
I00
S'\xb8\xc8\x1a<q\xb8 @P\x15f\xecX\x82)@'
p1191
tp1192
bag308
(g309
(I0
tp1193
g311
tp1194
Rp1195
(I1
(I2
tp1196
g318
I00
S"n\t\xab\x1d'\x1c6\xc0\xac\x90^T\x8faE@"
p1197
tp1198
bag308
(g309
(I0
tp1199
g311
tp1200
Rp1201
(I1
(I2
tp1202
g318
I00
S'su\xb4\xf0E\xecC\xc0\x14\xce\x0e>\x1a:;@'
p1203
tp1204
bag308
(g309
(I0
tp1205
g311
tp1206
Rp1207
(I1
(I2
tp1208
g318
I00
S'\xa4\x93\xb9\x1c\xb4\x926\xc0P\xe5M+\xe7\x12.@'
p1209
tp1210
bag308
(g309
(I0
tp1211
g311
tp1212
Rp1213
(I1
(I2
tp1214
g318
I00
S'\x87\x16-\x80\xa9\x1cF\xc0\xdd\r\x0b\xa4x\xf9E\xc0'
p1215
tp1216
bag308
(g309
(I0
tp1217
g311
tp1218
Rp1219
(I1
(I2
tp1220
g318
I00
S'\xe8\x16\xf4\x1d\xc4\xfe-\xc0\xfc]\xa8\xcb\x04d8\xc0'
p1221
tp1222
bag308
(g309
(I0
tp1223
g311
tp1224
Rp1225
(I1
(I2
tp1226
g318
I00
S'\xbc\x7f\xb6\x7f\xe9\xfcC@x\xf7\xe2j\x1doH\xc0'
p1227
tp1228
bag308
(g309
(I0
tp1229
g311
tp1230
Rp1231
(I1
(I2
tp1232
g318
I00
S'\x10\xb9\xa5#<\xe7\x12\xc0\xa0\x95\xfb\xfc\x9a\xfaE@'
p1233
tp1234
bag308
(g309
(I0
tp1235
g311
tp1236
Rp1237
(I1
(I2
tp1238
g318
I00
S'o\xda\x1c8\xe6\x1d=\xc00a\xf0\xbc|\t\x1c@'
p1239
tp1240
bag308
(g309
(I0
tp1241
g311
tp1242
Rp1243
(I1
(I2
tp1244
g318
I00
S'\xcd\xd8\xb6?\x13yA\xc0X\x9a\x07\xb5\x18\xdeA\xc0'
p1245
tp1246
bag308
(g309
(I0
tp1247
g311
tp1248
Rp1249
(I1
(I2
tp1250
g318
I00
S'\xe0\x97qG\x8bP9@(\xb3\x8e\xe7\xd0\xad:\xc0'
p1251
tp1252
bag308
(g309
(I0
tp1253
g311
tp1254
Rp1255
(I1
(I2
tp1256
g318
I00
S'\xe8\\oI\xe8,,@\x1c\xda\x86\x90\r\xf0,\xc0'
p1257
tp1258
bag308
(g309
(I0
tp1259
g311
tp1260
Rp1261
(I1
(I2
tp1262
g318
I00
S'\x80;\xcb.\x85D\x02@F\xc4\xf6\xef\xf6\x9e0\xc0'
p1263
tp1264
bag308
(g309
(I0
tp1265
g311
tp1266
Rp1267
(I1
(I2
tp1268
g318
I00
S'\xbe\xaa\xabY+%3\xc0\xb0\xb5\xbb\xb8r%=@'
p1269
tp1270
bag308
(g309
(I0
tp1271
g311
tp1272
Rp1273
(I1
(I2
tp1274
g318
I00
S'\xcc\xae\x82\x87\xea\xeaD\xc0H\xee\x98\x0c\xca\x93\x1b\xc0'
p1275
tp1276
bag308
(g309
(I0
tp1277
g311
tp1278
Rp1279
(I1
(I2
tp1280
g318
I00
S'\x0eW\x04V\r_G@\x94\x14\xf9.\x85\xb00@'
p1281
tp1282
bag308
(g309
(I0
tp1283
g311
tp1284
Rp1285
(I1
(I2
tp1286
g318
I00
S'H\x08\xd6\x06?\xbc=@\x0c\xe1p\xd5\xf4\xc5(@'
p1287
tp1288
bag308
(g309
(I0
tp1289
g311
tp1290
Rp1291
(I1
(I2
tp1292
g318
I00
S'\x04\x14\xd7\xb6i2>@\x15"\x97\x0eXxG\xc0'
p1293
tp1294
bag308
(g309
(I0
tp1295
g311
tp1296
Rp1297
(I1
(I2
tp1298
g318
I00
S'\x8a`$\x1e\xed\x01B\xc00\x9af\n9\x0b\x04@'
p1299
tp1300
bag308
(g309
(I0
tp1301
g311
tp1302
Rp1303
(I1
(I2
tp1304
g318
I00
S'p\x8d]\x1be!\x18@\xc8\x05?y5\x12E@'
p1305
tp1306
bag308
(g309
(I0
tp1307
g311
tp1308
Rp1309
(I1
(I2
tp1310
g318
I00
S'\xd8C\xd6\xf9\xbdUE\xc08\xa8?+\xa0\x0cG\xc0'
p1311
tp1312
bag308
(g309
(I0
tp1313
g311
tp1314
Rp1315
(I1
(I2
tp1316
g318
I00
S'\xe8\x8f\xe1(\xc0"\x18\xc0`?\xf0m\x12\xf6%\xc0'
p1317
tp1318
bag308
(g309
(I0
tp1319
g311
tp1320
Rp1321
(I1
(I2
tp1322
g318
I00
S'\xc3\xcd\xfdR\x7f\x1b?\xc0\xac]\xfeKP\xe1G\xc0'
p1323
tp1324
bag308
(g309
(I0
tp1325
g311
tp1326
Rp1327
(I1
(I2
tp1328
g318
I00
S'8\x1e\xba\xc4.~$@(I\x9c\x17\xef\xc3\x1b@'
p1329
tp1330
bag308
(g309
(I0
tp1331
g311
tp1332
Rp1333
(I1
(I2
tp1334
g318
I00
S'&?\xa4?\x15\xc7D\xc0\xf0\x86\x1d\x93?\xcc.@'
p1335
tp1336
bag308
(g309
(I0
tp1337
g311
tp1338
Rp1339
(I1
(I2
tp1340
g318
I00
S'\xec\xccD!-^5@\xc0\x17\x03\xbf\x8c\xc0\x11\xc0'
p1341
tp1342
bag308
(g309
(I0
tp1343
g311
tp1344
Rp1345
(I1
(I2
tp1346
g318
I00
S'\xd1x/l\xd9]6\xc0l\xec\xea\xbb\xdb\xfdA\xc0'
p1347
tp1348
bag308
(g309
(I0
tp1349
g311
tp1350
Rp1351
(I1
(I2
tp1352
g318
I00
S'P\xfcM\xfd\xe2j=\xc0\x94\x1f\xf0\x13x\xe9H@'
p1353
tp1354
bag308
(g309
(I0
tp1355
g311
tp1356
Rp1357
(I1
(I2
tp1358
g318
I00
S'P\xfb\xedFpr\x04@\x0cd\x12Gg\x195@'
p1359
tp1360
bag308
(g309
(I0
tp1361
g311
tp1362
Rp1363
(I1
(I2
tp1364
g318
I00
S'\x96\x80\xa5\xd4\xafd7\xc0&\xb3\xc1\xdc\xcepE@'
p1365
tp1366
bag308
(g309
(I0
tp1367
g311
tp1368
Rp1369
(I1
(I2
tp1370
g318
I00
S'\xc0\xd7\xaf\x87\x80\xb2+\xc0\x00\xb6\xed\xac\x0f\x0b\xde?'
p1371
tp1372
bag308
(g309
(I0
tp1373
g311
tp1374
Rp1375
(I1
(I2
tp1376
g318
I00
S'H/ 5i\xfb4@\xb0\xdd\xf1\x80\xef\xd1-@'
p1377
tp1378
bag308
(g309
(I0
tp1379
g311
tp1380
Rp1381
(I1
(I2
tp1382
g318
I00
S'\xda\xf0\xc5\xc2\xb9N4\xc0\x00\xbf\x07\x19\x15\x89\x10\xc0'
p1383
tp1384
bag308
(g309
(I0
tp1385
g311
tp1386
Rp1387
(I1
(I2
tp1388
g318
I00
S'\x80\xd2n\xd5\xa3f\x03\xc0lW\xd1\x9a\xd0\xd4B@'
p1389
tp1390
bag308
(g309
(I0
tp1391
g311
tp1392
Rp1393
(I1
(I2
tp1394
g318
I00
S'\xee\t\xb4\xe5\xb9i;\xc0\xf8\x12\xefl\x84\xbaC@'
p1395
tp1396
bag308
(g309
(I0
tp1397
g311
tp1398
Rp1399
(I1
(I2
tp1400
g318
I00
S'P\x854j\x8a\xaf\x0e\xc0\xe8\xab\xa7+p:B@'
p1401
tp1402
bag308
(g309
(I0
tp1403
g311
tp1404
Rp1405
(I1
(I2
tp1406
g318
I00
S'l9\\\xdaP\xac/\xc0,\xbe\x89\x7f=l3@'
p1407
tp1408
bag308
(g309
(I0
tp1409
g311
tp1410
Rp1411
(I1
(I2
tp1412
g318
I00
S'\xb35\xda;\xe2\xb1@\xc0\xa4"\x1c\x88\tL1\xc0'
p1413
tp1414
bag308
(g309
(I0
tp1415
g311
tp1416
Rp1417
(I1
(I2
tp1418
g318
I00
S'P@ur36"@P\xf5\xe0\xa8\xb9\xbf\x12@'
p1419
tp1420
bag308
(g309
(I0
tp1421
g311
tp1422
Rp1423
(I1
(I2
tp1424
g318
I00
S'\xe0x%$Sv1\xc0@\xe2\r3}&\x10\xc0'
p1425
tp1426
bag308
(g309
(I0
tp1427
g311
tp1428
Rp1429
(I1
(I2
tp1430
g318
I00
S"\xa8\x11\xa5B\xe1\xad'@(L&\xb9\x16\xa8&@"
p1431
tp1432
bag308
(g309
(I0
tp1433
g311
tp1434
Rp1435
(I1
(I2
tp1436
g318
I00
S' +p\xe8\x0bhD@\xa8\x92\xe5"\x0f\xbd+\xc0'
p1437
tp1438
bag308
(g309
(I0
tp1439
g311
tp1440
Rp1441
(I1
(I2
tp1442
g318
I00
S'\xfc\xa2\xc5 \xdc/8@\xccX\xfe\x08E\xccF\xc0'
p1443
tp1444
bag308
(g309
(I0
tp1445
g311
tp1446
Rp1447
(I1
(I2
tp1448
g318
I00
S'l\x91^yE\xf0@\xc0\xd0Z\nV\x96\xe5:\xc0'
p1449
tp1450
bag308
(g309
(I0
tp1451
g311
tp1452
Rp1453
(I1
(I2
tp1454
g318
I00
S'\x12\xf11i\x8f\xac2\xc0\xf0\xe2\x146\x8f\x18%@'
p1455
tp1456
bag308
(g309
(I0
tp1457
g311
tp1458
Rp1459
(I1
(I2
tp1460
g318
I00
S'\x06\x19\xbe>m\x04B@\x1dp\xa0\xb4}sC\xc0'
p1461
tp1462
bag308
(g309
(I0
tp1463
g311
tp1464
Rp1465
(I1
(I2
tp1466
g318
I00
S'L\xa5\xc9;\xfcc.\xc0\x9e\xa0\xc6\x86\xe2\xbcG\xc0'
p1467
tp1468
bag308
(g309
(I0
tp1469
g311
tp1470
Rp1471
(I1
(I2
tp1472
g318
I00
S'\x00d~HhR\xd6?\xe0\x93\xf5L\x9ex7@'
p1473
tp1474
bag308
(g309
(I0
tp1475
g311
tp1476
Rp1477
(I1
(I2
tp1478
g318
I00
S'(Wi\xee\x17\x90\x15@\x19\x1b\xf7!\x03\xcb=\xc0'
p1479
tp1480
bag308
(g309
(I0
tp1481
g311
tp1482
Rp1483
(I1
(I2
tp1484
g318
I00
S'x\xb8\xb8 \x0f\x96E@gY\xff\xe1\xde\xd1E\xc0'
p1485
tp1486
bag308
(g309
(I0
tp1487
g311
tp1488
Rp1489
(I1
(I2
tp1490
g318
I00
S'\x88\x912\x88\x9ei@@\x04aJ=A\x173@'
p1491
tp1492
bag308
(g309
(I0
tp1493
g311
tp1494
Rp1495
(I1
(I2
tp1496
g318
I00
S"X\x19R\xa2\x99\x06'\xc0\xf2\x16\xdd\xd9\x9e\x14C@"
p1497
tp1498
bag308
(g309
(I0
tp1499
g311
tp1500
Rp1501
(I1
(I2
tp1502
g318
I00
S'$\x17\xe2\xc3\x076E@\x00d\x04\xfd\xca_\xb7?'
p1503
tp1504
bag308
(g309
(I0
tp1505
g311
tp1506
Rp1507
(I1
(I2
tp1508
g318
I00
S'\xc0\x12;Ye\xf6>@\x98\x0b+\xae\xb4\xab\x1f@'
p1509
tp1510
bag308
(g309
(I0
tp1511
g311
tp1512
Rp1513
(I1
(I2
tp1514
g318
I00
S'\xb8\xc8\xfc+\xcd\xdf\x1b@\n\x19.\xf1W,H\xc0'
p1515
tp1516
bag308
(g309
(I0
tp1517
g311
tp1518
Rp1519
(I1
(I2
tp1520
g318
I00
S'\x98\xd5\xc0A\xfb\xa61\xc0n|\\JQ\xc3D@'
p1521
tp1522
bag308
(g309
(I0
tp1523
g311
tp1524
Rp1525
(I1
(I2
tp1526
g318
I00
S'>\xbfP;^\xa26\xc0\xe8\xd2\x08-0\x821\xc0'
p1527
tp1528
bag308
(g309
(I0
tp1529
g311
tp1530
Rp1531
(I1
(I2
tp1532
g318
I00
S' t\x1e\xc5\x1e\xbf\t@j6\xfab\xc5\xedD@'
p1533
tp1534
bag308
(g309
(I0
tp1535
g311
tp1536
Rp1537
(I1
(I2
tp1538
g318
I00
S'\xca\x96u\r\xd2\xf0@@\\\xecq\x84\x0e\xa85@'
p1539
tp1540
bag308
(g309
(I0
tp1541
g311
tp1542
Rp1543
(I1
(I2
tp1544
g318
I00
S'\xc0q\x8173#D@4\xf0\xc6\xc0\xc0)4@'
p1545
tp1546
bag308
(g309
(I0
tp1547
g311
tp1548
Rp1549
(I1
(I2
tp1550
g318
I00
S'H\x01H\x11\x94*\x1f\xc0\xa3C\xb5>C\x033\xc0'
p1551
tp1552
bag308
(g309
(I0
tp1553
g311
tp1554
Rp1555
(I1
(I2
tp1556
g318
I00
S'\xd8)\xa9\xca-\r\x1f\xc0\xe0\x89\xaa(\x85\xa0\x03\xc0'
p1557
tp1558
bag308
(g309
(I0
tp1559
g311
tp1560
Rp1561
(I1
(I2
tp1562
g318
I00
S'h\x00\xc3\xc12{0@\xb7\x0e{\x04AYF\xc0'
p1563
tp1564
bag308
(g309
(I0
tp1565
g311
tp1566
Rp1567
(I1
(I2
tp1568
g318
I00
S'\xbd\xff\x9fRd%H\xc0h\xa3\xd9GT\x808@'
p1569
tp1570
bag308
(g309
(I0
tp1571
g311
tp1572
Rp1573
(I1
(I2
tp1574
g318
I00
S'\x19S\x19\xd9\xe4\x8eB\xc0t\x04H\xfdKk=@'
p1575
tp1576
bag308
(g309
(I0
tp1577
g311
tp1578
Rp1579
(I1
(I2
tp1580
g318
I00
S'rYR#v(B@@;q\\\xa6\xbe\x0f@'
p1581
tp1582
bag308
(g309
(I0
tp1583
g311
tp1584
Rp1585
(I1
(I2
tp1586
g318
I00
S'\x8c\x1b\xdf\xa5z\x962@\x08E\xad\xb76\x8e&@'
p1587
tp1588
bag308
(g309
(I0
tp1589
g311
tp1590
Rp1591
(I1
(I2
tp1592
g318
I00
S'\xd8\xfe\xa7\x0f\xd9\xd3B@~l\x12\x06N\xf1F@'
p1593
tp1594
bag308
(g309
(I0
tp1595
g311
tp1596
Rp1597
(I1
(I2
tp1598
g318
I00
S'\x00\x88s\x10\xd9\xcf*@\xf00(\xdf>\xff\t\xc0'
p1599
tp1600
bag308
(g309
(I0
tp1601
g311
tp1602
Rp1603
(I1
(I2
tp1604
g318
I00
S'\x18\xc2\xe8B\x86\xeb=\xc0\x00I\xb3\x86oM\xf5\xbf'
p1605
tp1606
bag308
(g309
(I0
tp1607
g311
tp1608
Rp1609
(I1
(I2
tp1610
g318
I00
S'\xf0\x83\xff\xf0,\x0e\x07@\xc0}\x12\xe4\xa9\x86-@'
p1611
tp1612
bag308
(g309
(I0
tp1613
g311
tp1614
Rp1615
(I1
(I2
tp1616
g318
I00
S'\\\xb9\x17~\x91\x161@\x80h\x86\x9a/\xd8\xff\xbf'
p1617
tp1618
bag308
(g309
(I0
tp1619
g311
tp1620
Rp1621
(I1
(I2
tp1622
g318
I00
S'\xdc%\rG\x84\x85D@\x9e\x89`\r\xc2\x0cA@'
p1623
tp1624
bag308
(g309
(I0
tp1625
g311
tp1626
Rp1627
(I1
(I2
tp1628
g318
I00
S'\x8c\x96U\x9f\x97NB@\xab\x7fK\xf7\xc1c8\xc0'
p1629
tp1630
bag308
(g309
(I0
tp1631
g311
tp1632
Rp1633
(I1
(I2
tp1634
g318
I00
S"\xcb1\xe2\xde'\xe9F\xc0HGu+\xec\x8aG\xc0"
p1635
tp1636
bag308
(g309
(I0
tp1637
g311
tp1638
Rp1639
(I1
(I2
tp1640
g318
I00
S'TX\x05N\xe4\xdc @\xac\xf8E\xf1\xbf\x185@'
p1641
tp1642
bag308
(g309
(I0
tp1643
g311
tp1644
Rp1645
(I1
(I2
tp1646
g318
I00
S'\xf7\xbasY\x8e\xae5\xc0\xbafe\xfdaHC\xc0'
p1647
tp1648
bag308
(g309
(I0
tp1649
g311
tp1650
Rp1651
(I1
(I2
tp1652
g318
I00
S'#M.\xd7cA@\xc0\x10\x1c\xacO\x10\xb8H@'
p1653
tp1654
bag308
(g309
(I0
tp1655
g311
tp1656
Rp1657
(I1
(I2
tp1658
g318
I00
S"\xc4\x9a]\xc2\x0e>5@\xf8'\x92\xe7\xc2\xbf9@"
p1659
tp1660
bag308
(g309
(I0
tp1661
g311
tp1662
Rp1663
(I1
(I2
tp1664
g318
I00
S'\xe4\x99\x01\x13\xfaG+\xc0\xf0bp\xeb(\xb4@\xc0'
p1665
tp1666
bag308
(g309
(I0
tp1667
g311
tp1668
Rp1669
(I1
(I2
tp1670
g318
I00
S'_\xd8\x86+\xbb\x83H\xc0|~\x12\xa9\xd8\x198\xc0'
p1671
tp1672
bag308
(g309
(I0
tp1673
g311
tp1674
Rp1675
(I1
(I2
tp1676
g318
I00
S'\xaa\xe5\xf99]\x813\xc0\x8c\xf5\x03\xe0\xe1\x9a)\xc0'
p1677
tp1678
bag308
(g309
(I0
tp1679
g311
tp1680
Rp1681
(I1
(I2
tp1682
g318
I00
S'\x1a\xff\xd4O\x19\x0eA@\x9a\xd0\xc5\xaaT\x8bC\xc0'
p1683
tp1684
bag308
(g309
(I0
tp1685
g311
tp1686
Rp1687
(I1
(I2
tp1688
g318
I00
S'\x10w\xa0\x86EB\x04@\xfc\xac\xde\xfd\xab\x16A\xc0'
p1689
tp1690
bag308
(g309
(I0
tp1691
g311
tp1692
Rp1693
(I1
(I2
tp1694
g318
I00
S'\xa8~\x02\xa3~\x1fD@\xe0\xe6I\xf5\xa5\xfa$\xc0'
p1695
tp1696
bag308
(g309
(I0
tp1697
g311
tp1698
Rp1699
(I1
(I2
tp1700
g318
I00
S'\x1c\xa8\x99\xa8ON(@@.\x80\xd1\x8a\xdb4@'
p1701
tp1702
bag308
(g309
(I0
tp1703
g311
tp1704
Rp1705
(I1
(I2
tp1706
g318
I00
S' \x1d\xf4((\xf3\x10@$\x04>z\x07\x8c:@'
p1707
tp1708
bag308
(g309
(I0
tp1709
g311
tp1710
Rp1711
(I1
(I2
tp1712
g318
I00
S'=\tE\xb2\x19uB\xc0,#3\x07\xe1h*\xc0'
p1713
tp1714
bag308
(g309
(I0
tp1715
g311
tp1716
Rp1717
(I1
(I2
tp1718
g318
I00
S'P\x95\x8f\xe5\x8a\xf86@\x18\xc8\x80\xcfC1\x11\xc0'
p1719
tp1720
bag308
(g309
(I0
tp1721
g311
tp1722
Rp1723
(I1
(I2
tp1724
g318
I00
S'\x86\xc78b\xdc\xfcE@\xc8\xa9\xe1hXb\x15@'
p1725
tp1726
bag308
(g309
(I0
tp1727
g311
tp1728
Rp1729
(I1
(I2
tp1730
g318
I00
S'$\x95\x0c\xa7\xf7\x04D\xc0\xf56\x91%%GA\xc0'
p1731
tp1732
bag308
(g309
(I0
tp1733
g311
tp1734
Rp1735
(I1
(I2
tp1736
g318
I00
S'\x08\xaa\xdf\xd6\x80\x12?@\x8e\x082\xcc\x98QF@'
p1737
tp1738
bag308
(g309
(I0
tp1739
g311
tp1740
Rp1741
(I1
(I2
tp1742
g318
I00
S'\x8c\xbc\xf3\xe5\x13g&@\xb3T\xdb\x17\x19rE\xc0'
p1743
tp1744
bag308
(g309
(I0
tp1745
g311
tp1746
Rp1747
(I1
(I2
tp1748
g318
I00
S"\\W\xc6\xa6\xa7&:@`q\xbf\x07&O'@"
p1749
tp1750
bag308
(g309
(I0
tp1751
g311
tp1752
Rp1753
(I1
(I2
tp1754
g318
I00
S'\\\xb2o\x1b\x8b$#\xc0\x80\xdf\xab\x84\xac\xc03@'
p1755
tp1756
bag308
(g309
(I0
tp1757
g311
tp1758
Rp1759
(I1
(I2
tp1760
g318
I00
S'p\x94\xad/\xf4\xb0>@\x96D\x10\xa6\x9d\xc1B@'
p1761
tp1762
bag308
(g309
(I0
tp1763
g311
tp1764
Rp1765
(I1
(I2
tp1766
g318
I00
S',\xd6\xe8\x1bS\xfc2@0\xa8\xc4\x86f\x9eH@'
p1767
tp1768
bag308
(g309
(I0
tp1769
g311
tp1770
Rp1771
(I1
(I2
tp1772
g318
I00
S'\xdc\r|`r\xa5D@\x00\xcd\xf2\x01\xdb\n\xdd?'
p1773
tp1774
bag308
(g309
(I0
tp1775
g311
tp1776
Rp1777
(I1
(I2
tp1778
g318
I00
S' L\xe6\xdan\xa8\x11\xc0\xf0\x94w\x0c\xedC\x17\xc0'
p1779
tp1780
bag308
(g309
(I0
tp1781
g311
tp1782
Rp1783
(I1
(I2
tp1784
g318
I00
S'R\xa3Y\x16\x93IG\xc0\x00)\x99~\xeb\xd8\xd7\xbf'
p1785
tp1786
bag308
(g309
(I0
tp1787
g311
tp1788
Rp1789
(I1
(I2
tp1790
g318
I00
S'PB\xefOu\xe5\x03@\xd0\xf2\xcaS\xc4\xd59@'
p1791
tp1792
bag308
(g309
(I0
tp1793
g311
tp1794
Rp1795
(I1
(I2
tp1796
g318
I00
S'\\{\x06{ax6@`\xac/\x06\xd2\xde\x0e\xc0'
p1797
tp1798
bag308
(g309
(I0
tp1799
g311
tp1800
Rp1801
(I1
(I2
tp1802
g318
I00
S'\xc6\x02\xfc\xb1\x8f\xd0D\xc00\x80_-2s3@'
p1803
tp1804
bag308
(g309
(I0
tp1805
g311
tp1806
Rp1807
(I1
(I2
tp1808
g318
I00
S'\xcb\x91n\x1b\x05\x05C\xc0h\xb5_\xe0\xa6\xe4?\xc0'
p1809
tp1810
bag308
(g309
(I0
tp1811
g311
tp1812
Rp1813
(I1
(I2
tp1814
g318
I00
S'Z$\xc2g\x0cI@\xc0\t\xbe\xf5\xc9\xafI?\xc0'
p1815
tp1816
bag308
(g309
(I0
tp1817
g311
tp1818
Rp1819
(I1
(I2
tp1820
g318
I00
S'\xe0(P\xe8\xa8\xaf8@X,\xfbFN\xb1\x1d@'
p1821
tp1822
bag308
(g309
(I0
tp1823
g311
tp1824
Rp1825
(I1
(I2
tp1826
g318
I00
S'\x80\xc58\xf68\xc9\xd5\xbf\r\xfc5\xce\xb694\xc0'
p1827
tp1828
bag308
(g309
(I0
tp1829
g311
tp1830
Rp1831
(I1
(I2
tp1832
g318
I00
S'\x8c\xba\xe5\xe1\xb2\x03"\xc00\xfb\x1b.\xff\x15\x02@'
p1833
tp1834
bag308
(g309
(I0
tp1835
g311
tp1836
Rp1837
(I1
(I2
tp1838
g318
I00
S'\x88~\xbf\xd3V\x84;@Q\xae\x8b#7\xbe7\xc0'
p1839
tp1840
bag308
(g309
(I0
tp1841
g311
tp1842
Rp1843
(I1
(I2
tp1844
g318
I00
S'\xac\r\xc3A*\xa2&\xc0\xb8YPuY\xd9\x1a\xc0'
p1845
tp1846
bag308
(g309
(I0
tp1847
g311
tp1848
Rp1849
(I1
(I2
tp1850
g318
I00
S'\xe8r\x04]\x99\x86\x10\xc0_b\x1eq\xd9\x1c9\xc0'
p1851
tp1852
bag308
(g309
(I0
tp1853
g311
tp1854
Rp1855
(I1
(I2
tp1856
g318
I00
S'\xde\x00\x92\x1f\xd6\xf8;\xc0\xde\xa5\x13KSAB@'
p1857
tp1858
bag308
(g309
(I0
tp1859
g311
tp1860
Rp1861
(I1
(I2
tp1862
g318
I00
S'\x14\xbbr\xa9\x97\x06F\xc0\xaa\x91\xd1\xd7gbC@'
p1863
tp1864
bag308
(g309
(I0
tp1865
g311
tp1866
Rp1867
(I1
(I2
tp1868
g318
I00
S'\xf8$\xc2/\xc55C@\x88\xde\xfc\x01\x85(H\xc0'
p1869
tp1870
bag308
(g309
(I0
tp1871
g311
tp1872
Rp1873
(I1
(I2
tp1874
g318
I00
S"\xb4\xf8\x01'AE7@H\xfe\xcd\xabn(F@"
p1875
tp1876
bag308
(g309
(I0
tp1877
g311
tp1878
Rp1879
(I1
(I2
tp1880
g318
I00
S"0\xeb\xa9\x98x\x94'\xc0\xa0>6~\n\x93C\xc0"
p1881
tp1882
bag308
(g309
(I0
tp1883
g311
tp1884
Rp1885
(I1
(I2
tp1886
g318
I00
S'\xd72\xb1X)oA\xc0zj\xa7G\x1e\xc7H@'
p1887
tp1888
bag308
(g309
(I0
tp1889
g311
tp1890
Rp1891
(I1
(I2
tp1892
g318
I00
S'\xa4\x93S^|\xcc8@\x0ct\xda\xb4ywB@'
p1893
tp1894
bag308
(g309
(I0
tp1895
g311
tp1896
Rp1897
(I1
(I2
tp1898
g318
I00
S'\x18@Yk\xf3\xae>@\xe8w\xf6-T\x1a)@'
p1899
tp1900
bag308
(g309
(I0
tp1901
g311
tp1902
Rp1903
(I1
(I2
tp1904
g318
I00
S'\xcdrZ\x0f~\x13B\xc0\x07"\xf5\xac\xd5\xb4D\xc0'
p1905
tp1906
bag308
(g309
(I0
tp1907
g311
tp1908
Rp1909
(I1
(I2
tp1910
g318
I00
S'\xe4\x14\x03\x0f\x82\xc8/\xc0\xec\xddF\xd0\xf4\xd5C@'
p1911
tp1912
bag308
(g309
(I0
tp1913
g311
tp1914
Rp1915
(I1
(I2
tp1916
g318
I00
S'\xee\x8fl0\xe8\x1f6\xc04<AP\xd1\xfeB\xc0'
p1917
tp1918
bag308
(g309
(I0
tp1919
g311
tp1920
Rp1921
(I1
(I2
tp1922
g318
I00
S"\x08\xad\xa5\xcd\x7f8'\xc0;\xca2\x89\x1e\x8fC\xc0"
p1923
tp1924
bag308
(g309
(I0
tp1925
g311
tp1926
Rp1927
(I1
(I2
tp1928
g318
I00
S'\xad\xfdf\x01I\xa54\xc0\x8b\x81i\x92e\xf64\xc0'
p1929
tp1930
bag308
(g309
(I0
tp1931
g311
tp1932
Rp1933
(I1
(I2
tp1934
g318
I00
S'\x90\x8b\x81g\xfbr#@(wIJe\x12G@'
p1935
tp1936
bag308
(g309
(I0
tp1937
g311
tp1938
Rp1939
(I1
(I2
tp1940
g318
I00
S'\xde\x1c/\x82\xa6\x96>\xc0Z\xa4\x90+lmH\xc0'
p1941
tp1942
bag308
(g309
(I0
tp1943
g311
tp1944
Rp1945
(I1
(I2
tp1946
g318
I00
S'\x10\xc4\x8fD\xa2+\x06\xc0\\|\x80?\tP+@'
p1947
tp1948
bag308
(g309
(I0
tp1949
g311
tp1950
Rp1951
(I1
(I2
tp1952
g318
I00
S'\x8ep\xa6\xa3\xb1\xd27\xc0\xa0Z\x0b\x16\xb6|4@'
p1953
tp1954
bag308
(g309
(I0
tp1955
g311
tp1956
Rp1957
(I1
(I2
tp1958
g318
I00
S'\x1c.\xe2\x05<\xa66@3\xffy\xa4L\x9cE\xc0'
p1959
tp1960
bag308
(g309
(I0
tp1961
g311
tp1962
Rp1963
(I1
(I2
tp1964
g318
I00
S' 1\x1aa#\x97\x08\xc0\x103S\x98\xfa\x9e,\xc0'
p1965
tp1966
bag308
(g309
(I0
tp1967
g311
tp1968
Rp1969
(I1
(I2
tp1970
g318
I00
S't\xf7\xf78\xf2O3@h\xb0\xf8\xcfg\xf84\xc0'
p1971
tp1972
bag308
(g309
(I0
tp1973
g311
tp1974
Rp1975
(I1
(I2
tp1976
g318
I00
S'\xea\x13\xe0]\xe6;H\xc0p\xd4T\xf6\xcb\xee2@'
p1977
tp1978
bag308
(g309
(I0
tp1979
g311
tp1980
Rp1981
(I1
(I2
tp1982
g318
I00
S'\xc582Y\x16\xa73\xc0@\xe7\x1d^Xc\xe7?'
p1983
tp1984
bag308
(g309
(I0
tp1985
g311
tp1986
Rp1987
(I1
(I2
tp1988
g318
I00
S'\x16\xa2i.\x1b\xd9G@8\xa7\xad\x01\x17\x9aC\xc0'
p1989
tp1990
bag308
(g309
(I0
tp1991
g311
tp1992
Rp1993
(I1
(I2
tp1994
g318
I00
S'\xa0\x12R\x1f\x97\x1d"@\x05\x99\x0f\x8f\xb1\x13A\xc0'
p1995
tp1996
bag308
(g309
(I0
tp1997
g311
tp1998
Rp1999
(I1
(I2
tp2000
g318
I00
S'\xa4\x95\x9c\xe3\xc6e5\xc0\x8c\xc1\xe7!\n_$\xc0'
p2001
tp2002
bag308
(g309
(I0
tp2003
g311
tp2004
Rp2005
(I1
(I2
tp2006
g318
I00
S'\xa4s\xd5\x8d\xde\x9e$@\xf0\xb6%\xc7hz>\xc0'
p2007
tp2008
bag308
(g309
(I0
tp2009
g311
tp2010
Rp2011
(I1
(I2
tp2012
g318
I00
S'|f\xc9?\x921-\xc0\xe0\x87\x88f\x12\x196\xc0'
p2013
tp2014
bag308
(g309
(I0
tp2015
g311
tp2016
Rp2017
(I1
(I2
tp2018
g318
I00
S'\xe8\xfa\xa56z\xbe&@o1\xec\x9f\x8673\xc0'
p2019
tp2020
bag308
(g309
(I0
tp2021
g311
tp2022
Rp2023
(I1
(I2
tp2024
g318
I00
S'\x0c\xabc\xb6z\xa9)\xc06\x16\xccn\x7f\x94C\xc0'
p2025
tp2026
bag308
(g309
(I0
tp2027
g311
tp2028
Rp2029
(I1
(I2
tp2030
g318
I00
S' @\x03u\xb9]\xfd?\xfc\x97x\x85\xadBC@'
p2031
tp2032
bag308
(g309
(I0
tp2033
g311
tp2034
Rp2035
(I1
(I2
tp2036
g318
I00
S'H)\xd1\x90\xe2\xd7G\xc0\xc6ov3\x81\x9aC\xc0'
p2037
tp2038
bag308
(g309
(I0
tp2039
g311
tp2040
Rp2041
(I1
(I2
tp2042
g318
I00
S'l\x1a\xa7\xea4:D\xc0\xe8Q\x92R\x05y=@'
p2043
tp2044
bag308
(g309
(I0
tp2045
g311
tp2046
Rp2047
(I1
(I2
tp2048
g318
I00
S'\xfe\x019\x8e\x83\x1c@\xc0\xc0\xcd\x906\x99&G@'
p2049
tp2050
bag308
(g309
(I0
tp2051
g311
tp2052
Rp2053
(I1
(I2
tp2054
g318
I00
S'\xa2\xcd\xb9\x82\xa2\x8dA\xc0x2y\xa3o\x88&@'
p2055
tp2056
bag308
(g309
(I0
tp2057
g311
tp2058
Rp2059
(I1
(I2
tp2060
g318
I00
S'\x9c\xd4\xbbX\xd3\xd3 \xc0\x82\x1b\xa4\x86\xe1\r9\xc0'
p2061
tp2062
bag308
(g309
(I0
tp2063
g311
tp2064
Rp2065
(I1
(I2
tp2066
g318
I00
S'\xd0\xe0B\x16O_\x18\xc0T_\x89\x92D+7\xc0'
p2067
tp2068
bag308
(g309
(I0
tp2069
g311
tp2070
Rp2071
(I1
(I2
tp2072
g318
I00
S'\xb4\xbb\x0ey\xa5\xbaF\xc0\xff2\xfb;a\xd19\xc0'
p2073
tp2074
bag308
(g309
(I0
tp2075
g311
tp2076
Rp2077
(I1
(I2
tp2078
g318
I00
S'iDk\xe0\xd1\xcbD\xc0(\xd7\x19\xf8\xfa\x01!@'
p2079
tp2080
bag308
(g309
(I0
tp2081
g311
tp2082
Rp2083
(I1
(I2
tp2084
g318
I00
S':\xf8)\x9f?\x80C\xc0\x1cP\x0e\xaeh\xef.\xc0'
p2085
tp2086
bag308
(g309
(I0
tp2087
g311
tp2088
Rp2089
(I1
(I2
tp2090
g318
I00
S'\nZvUB\x1aE@\xfe\xb0\xf6"\x05\x97@\xc0'
p2091
tp2092
bag308
(g309
(I0
tp2093
g311
tp2094
Rp2095
(I1
(I2
tp2096
g318
I00
S'\xdc\xe3)\t\xc1w&@\x90\r\xdf,\x0e\xef\x03@'
p2097
tp2098
bag308
(g309
(I0
tp2099
g311
tp2100
Rp2101
(I1
(I2
tp2102
g318
I00
S'\x05\x8a\xf2G\xfc\xcdH\xc0x\xee4\x98\xadcF\xc0'
p2103
tp2104
bag308
(g309
(I0
tp2105
g311
tp2106
Rp2107
(I1
(I2
tp2108
g318
I00
S'\x0e\xd0F\xe2g\xeaC\xc0\xa7\xda4\x9d\n+B\xc0'
p2109
tp2110
bag308
(g309
(I0
tp2111
g311
tp2112
Rp2113
(I1
(I2
tp2114
g318
I00
S'`\xfc\xef\xe1\xd1+*\xc0\x8au\xc8O\xeafB\xc0'
p2115
tp2116
bas.